
SAMD51.elf:     file format elf32-littlearm

Sections:
Idx Name          Size      VMA       LMA       File off  Algn
  0 .text         00002848  00000000  00000000  00010000  2**4
                  CONTENTS, ALLOC, LOAD, READONLY, CODE
  1 .relocate     000000f0  20000000  00002848  00020000  2**2
                  CONTENTS, ALLOC, LOAD, DATA
  2 .bkupram      00000000  47000000  47000000  000200f0  2**0
                  CONTENTS
  3 .qspi         00000000  04000000  04000000  000200f0  2**0
                  CONTENTS
  4 .bss          000008d0  200000f0  00002940  000200f0  2**4
                  ALLOC
  5 .stack        00010000  200009c0  00003210  000200f0  2**0
                  ALLOC
  6 .ARM.attributes 0000002e  00000000  00000000  000200f0  2**0
                  CONTENTS, READONLY
  7 .comment      00000059  00000000  00000000  0002011e  2**0
                  CONTENTS, READONLY
  8 .debug_frame  0000004c  00000000  00000000  00020178  2**2
                  CONTENTS, READONLY, DEBUGGING

Disassembly of section .text:

00000000 <exception_table>:
       0:	c0 09 01 20 fd 05 00 00 f9 05 00 00 f9 05 00 00     ... ............
      10:	f9 05 00 00 f9 05 00 00 f9 05 00 00 00 00 00 00     ................
	...
      2c:	b1 1f 00 00 f9 05 00 00 00 00 00 00 e1 1f 00 00     ................
      3c:	45 20 00 00 f9 05 00 00 f9 05 00 00 f9 05 00 00     E ..............
      4c:	f9 05 00 00 f9 05 00 00 f9 05 00 00 f9 05 00 00     ................
      5c:	f9 05 00 00 f9 05 00 00 f9 05 00 00 f9 05 00 00     ................
      6c:	f9 05 00 00 f9 05 00 00 f9 05 00 00 f9 05 00 00     ................
      7c:	f9 05 00 00 f9 05 00 00 f9 05 00 00 f9 05 00 00     ................
      8c:	f9 05 00 00 f9 05 00 00 f9 05 00 00 f9 05 00 00     ................
      9c:	f9 05 00 00 f9 05 00 00 f9 05 00 00 f9 05 00 00     ................
      ac:	f9 05 00 00 f9 05 00 00 71 14 00 00 45 14 00 00     ........q...E...
      bc:	71 12 00 00 79 12 00 00 81 12 00 00 89 12 00 00     q...y...........
      cc:	91 12 00 00 f9 05 00 00 f9 05 00 00 f9 05 00 00     ................
      dc:	f9 05 00 00 f9 05 00 00 f9 05 00 00 f9 05 00 00     ................
      ec:	f9 05 00 00 00 00 00 00 39 15 00 00 f9 05 00 00     ........9.......
      fc:	f9 05 00 00 f9 05 00 00 f9 05 00 00 f9 05 00 00     ................
     10c:	f9 05 00 00 f9 05 00 00 f9 05 00 00 f9 05 00 00     ................
     11c:	f9 05 00 00 f9 05 00 00 f9 05 00 00 41 03 00 00     ............A...
     12c:	79 03 00 00 a9 03 00 00 f9 05 00 00 f9 05 00 00     y...............
     13c:	f9 05 00 00 f9 05 00 00 f9 05 00 00 f9 05 00 00     ................
     14c:	f9 05 00 00 9d 05 00 00 f9 05 00 00 00 00 00 00     ................
	...
     180:	f9 05 00 00 f9 05 00 00 f9 05 00 00 f9 05 00 00     ................
     190:	00 00 00 00 35 1a 00 00 f9 05 00 00 f9 05 00 00     ....5...........
     1a0:	f9 05 00 00 f9 05 00 00 f9 05 00 00 f9 05 00 00     ................
     1b0:	45 1a 00 00 f9 05 00 00 f9 05 00 00 f9 05 00 00     E...............
     1c0:	f9 05 00 00 55 1a 00 00 f9 05 00 00 f9 05 00 00     ....U...........
     1d0:	f9 05 00 00 65 1a 00 00 f9 05 00 00 f9 05 00 00     ....e...........
     1e0:	75 1a 00 00 f9 05 00 00 f9 05 00 00 9d 1e 00 00     u...............
     1f0:	ad 1e 00 00 bd 1e 00 00 cd 1e 00 00 dd 1e 00 00     ................
     200:	ed 1e 00 00 00 00 00 00 00 00 00 00 f9 05 00 00     ................
     210:	f9 05 00 00 f9 05 00 00 f9 05 00 00 f9 05 00 00     ................
     220:	f9 05 00 00 f9 05 00 00 f9 05 00 00 f9 05 00 00     ................
     230:	f9 05 00 00 f9 05 00 00 f9 05 00 00 f9 05 00 00     ................
     240:	f9 05 00 00 f9 05 00 00 f9 05 00 00 f9 05 00 00     ................
     250:	f9 05 00 00 f9 05 00 00 f9 05 00 00 f9 05 00 00     ................
     260:	00 00 00 00                                         ....

00000264 <__do_global_dtors_aux>:
     264:	b510      	push	{r4, lr}
     266:	4c05      	ldr	r4, [pc, #20]	; (27c <__do_global_dtors_aux+0x18>)
     268:	7823      	ldrb	r3, [r4, #0]
     26a:	b933      	cbnz	r3, 27a <__do_global_dtors_aux+0x16>
     26c:	4b04      	ldr	r3, [pc, #16]	; (280 <__do_global_dtors_aux+0x1c>)
     26e:	b113      	cbz	r3, 276 <__do_global_dtors_aux+0x12>
     270:	4804      	ldr	r0, [pc, #16]	; (284 <__do_global_dtors_aux+0x20>)
     272:	f3af 8000 	nop.w
     276:	2301      	movs	r3, #1
     278:	7023      	strb	r3, [r4, #0]
     27a:	bd10      	pop	{r4, pc}
     27c:	200000f0 	.word	0x200000f0
     280:	00000000 	.word	0x00000000
     284:	00002848 	.word	0x00002848

00000288 <frame_dummy>:
     288:	4b0c      	ldr	r3, [pc, #48]	; (2bc <frame_dummy+0x34>)
     28a:	b143      	cbz	r3, 29e <frame_dummy+0x16>
     28c:	480c      	ldr	r0, [pc, #48]	; (2c0 <frame_dummy+0x38>)
     28e:	490d      	ldr	r1, [pc, #52]	; (2c4 <frame_dummy+0x3c>)
     290:	b510      	push	{r4, lr}
     292:	f3af 8000 	nop.w
     296:	480c      	ldr	r0, [pc, #48]	; (2c8 <frame_dummy+0x40>)
     298:	6803      	ldr	r3, [r0, #0]
     29a:	b923      	cbnz	r3, 2a6 <frame_dummy+0x1e>
     29c:	bd10      	pop	{r4, pc}
     29e:	480a      	ldr	r0, [pc, #40]	; (2c8 <frame_dummy+0x40>)
     2a0:	6803      	ldr	r3, [r0, #0]
     2a2:	b933      	cbnz	r3, 2b2 <frame_dummy+0x2a>
     2a4:	4770      	bx	lr
     2a6:	4b09      	ldr	r3, [pc, #36]	; (2cc <frame_dummy+0x44>)
     2a8:	2b00      	cmp	r3, #0
     2aa:	d0f7      	beq.n	29c <frame_dummy+0x14>
     2ac:	e8bd 4010 	ldmia.w	sp!, {r4, lr}
     2b0:	4718      	bx	r3
     2b2:	4b06      	ldr	r3, [pc, #24]	; (2cc <frame_dummy+0x44>)
     2b4:	2b00      	cmp	r3, #0
     2b6:	d0f5      	beq.n	2a4 <frame_dummy+0x1c>
     2b8:	4718      	bx	r3
     2ba:	bf00      	nop
     2bc:	00000000 	.word	0x00000000
     2c0:	00002848 	.word	0x00002848
     2c4:	200000f4 	.word	0x200000f4
     2c8:	00002848 	.word	0x00002848
     2cc:	00000000 	.word	0x00000000

000002d0 <ModemDataCommInit>:
     2d0:	b570      	push	{r4, r5, r6, lr}
     2d2:	4b11      	ldr	r3, [pc, #68]	; (318 <ModemDataCommInit+0x48>)
     2d4:	4911      	ldr	r1, [pc, #68]	; (31c <ModemDataCommInit+0x4c>)
     2d6:	4812      	ldr	r0, [pc, #72]	; (320 <ModemDataCommInit+0x50>)
     2d8:	4c12      	ldr	r4, [pc, #72]	; (324 <ModemDataCommInit+0x54>)
     2da:	4798      	blx	r3
     2dc:	2201      	movs	r2, #1
     2de:	2100      	movs	r1, #0
     2e0:	4605      	mov	r5, r0
     2e2:	480f      	ldr	r0, [pc, #60]	; (320 <ModemDataCommInit+0x50>)
     2e4:	47a0      	blx	r4
     2e6:	2201      	movs	r2, #1
     2e8:	2102      	movs	r1, #2
     2ea:	480d      	ldr	r0, [pc, #52]	; (320 <ModemDataCommInit+0x50>)
     2ec:	47a0      	blx	r4
     2ee:	2201      	movs	r2, #1
     2f0:	2103      	movs	r1, #3
     2f2:	480b      	ldr	r0, [pc, #44]	; (320 <ModemDataCommInit+0x50>)
     2f4:	47a0      	blx	r4
     2f6:	4b0c      	ldr	r3, [pc, #48]	; (328 <ModemDataCommInit+0x58>)
     2f8:	4809      	ldr	r0, [pc, #36]	; (320 <ModemDataCommInit+0x50>)
     2fa:	4c0c      	ldr	r4, [pc, #48]	; (32c <ModemDataCommInit+0x5c>)
     2fc:	4798      	blx	r3
     2fe:	4b0c      	ldr	r3, [pc, #48]	; (330 <ModemDataCommInit+0x60>)
     300:	b945      	cbnz	r5, 314 <ModemDataCommInit+0x44>
     302:	490c      	ldr	r1, [pc, #48]	; (334 <ModemDataCommInit+0x64>)
     304:	480c      	ldr	r0, [pc, #48]	; (338 <ModemDataCommInit+0x68>)
     306:	4798      	blx	r3
     308:	4623      	mov	r3, r4
     30a:	2128      	movs	r1, #40	; 0x28
     30c:	480a      	ldr	r0, [pc, #40]	; (338 <ModemDataCommInit+0x68>)
     30e:	e8bd 4070 	ldmia.w	sp!, {r4, r5, r6, lr}
     312:	4718      	bx	r3
     314:	4909      	ldr	r1, [pc, #36]	; (33c <ModemDataCommInit+0x6c>)
     316:	e7f5      	b.n	304 <ModemDataCommInit+0x34>
     318:	000016e5 	.word	0x000016e5
     31c:	41014000 	.word	0x41014000
     320:	20000000 	.word	0x20000000
     324:	00001783 	.word	0x00001783
     328:	0000177b 	.word	0x0000177b
     32c:	00000559 	.word	0x00000559
     330:	00002231 	.word	0x00002231
     334:	00002240 	.word	0x00002240
     338:	200007bc 	.word	0x200007bc
     33c:	00002268 	.word	0x00002268

00000340 <SERCOM3_0_Handler>:
     340:	b508      	push	{r3, lr}
     342:	4b08      	ldr	r3, [pc, #32]	; (364 <SERCOM3_0_Handler+0x24>)
     344:	4a08      	ldr	r2, [pc, #32]	; (368 <SERCOM3_0_Handler+0x28>)
     346:	4909      	ldr	r1, [pc, #36]	; (36c <SERCOM3_0_Handler+0x2c>)
     348:	4618      	mov	r0, r3
     34a:	4790      	blx	r2
     34c:	4b08      	ldr	r3, [pc, #32]	; (370 <SERCOM3_0_Handler+0x30>)
     34e:	2128      	movs	r1, #40	; 0x28
     350:	4798      	blx	r3
     352:	4b08      	ldr	r3, [pc, #32]	; (374 <SERCOM3_0_Handler+0x34>)
     354:	2201      	movs	r2, #1
     356:	761a      	strb	r2, [r3, #24]
     358:	7d1a      	ldrb	r2, [r3, #20]
     35a:	f042 0201 	orr.w	r2, r2, #1
     35e:	751a      	strb	r2, [r3, #20]
     360:	bd08      	pop	{r3, pc}
     362:	bf00      	nop
     364:	200007bc 	.word	0x200007bc
     368:	00002231 	.word	0x00002231
     36c:	00002282 	.word	0x00002282
     370:	00000559 	.word	0x00000559
     374:	41014000 	.word	0x41014000

00000378 <SERCOM3_1_Handler>:
     378:	b508      	push	{r3, lr}
     37a:	4b06      	ldr	r3, [pc, #24]	; (394 <SERCOM3_1_Handler+0x1c>)
     37c:	4a06      	ldr	r2, [pc, #24]	; (398 <SERCOM3_1_Handler+0x20>)
     37e:	4907      	ldr	r1, [pc, #28]	; (39c <SERCOM3_1_Handler+0x24>)
     380:	4618      	mov	r0, r3
     382:	4790      	blx	r2
     384:	4b06      	ldr	r3, [pc, #24]	; (3a0 <SERCOM3_1_Handler+0x28>)
     386:	2128      	movs	r1, #40	; 0x28
     388:	4798      	blx	r3
     38a:	4b06      	ldr	r3, [pc, #24]	; (3a4 <SERCOM3_1_Handler+0x2c>)
     38c:	2202      	movs	r2, #2
     38e:	761a      	strb	r2, [r3, #24]
     390:	bd08      	pop	{r3, pc}
     392:	bf00      	nop
     394:	200007bc 	.word	0x200007bc
     398:	00002231 	.word	0x00002231
     39c:	000022aa 	.word	0x000022aa
     3a0:	00000559 	.word	0x00000559
     3a4:	41014000 	.word	0x41014000

000003a8 <SERCOM3_2_Handler>:
     3a8:	b570      	push	{r4, r5, r6, lr}
     3aa:	490f      	ldr	r1, [pc, #60]	; (3e8 <SERCOM3_2_Handler+0x40>)
     3ac:	4d0f      	ldr	r5, [pc, #60]	; (3ec <SERCOM3_2_Handler+0x44>)
     3ae:	4810      	ldr	r0, [pc, #64]	; (3f0 <SERCOM3_2_Handler+0x48>)
     3b0:	4c10      	ldr	r4, [pc, #64]	; (3f4 <SERCOM3_2_Handler+0x4c>)
     3b2:	4e11      	ldr	r6, [pc, #68]	; (3f8 <SERCOM3_2_Handler+0x50>)
     3b4:	47a8      	blx	r5
     3b6:	2128      	movs	r1, #40	; 0x28
     3b8:	480d      	ldr	r0, [pc, #52]	; (3f0 <SERCOM3_2_Handler+0x48>)
     3ba:	47a0      	blx	r4
     3bc:	490f      	ldr	r1, [pc, #60]	; (3fc <SERCOM3_2_Handler+0x54>)
     3be:	480c      	ldr	r0, [pc, #48]	; (3f0 <SERCOM3_2_Handler+0x48>)
     3c0:	47a8      	blx	r5
     3c2:	2128      	movs	r1, #40	; 0x28
     3c4:	480a      	ldr	r0, [pc, #40]	; (3f0 <SERCOM3_2_Handler+0x48>)
     3c6:	4d0e      	ldr	r5, [pc, #56]	; (400 <SERCOM3_2_Handler+0x58>)
     3c8:	47a0      	blx	r4
     3ca:	4b0e      	ldr	r3, [pc, #56]	; (404 <SERCOM3_2_Handler+0x5c>)
     3cc:	2204      	movs	r2, #4
     3ce:	761a      	strb	r2, [r3, #24]
     3d0:	4630      	mov	r0, r6
     3d2:	47a8      	blx	r5
     3d4:	2800      	cmp	r0, #0
     3d6:	d0fb      	beq.n	3d0 <SERCOM3_2_Handler+0x28>
     3d8:	4b0b      	ldr	r3, [pc, #44]	; (408 <SERCOM3_2_Handler+0x60>)
     3da:	4807      	ldr	r0, [pc, #28]	; (3f8 <SERCOM3_2_Handler+0x50>)
     3dc:	4798      	blx	r3
     3de:	4623      	mov	r3, r4
     3e0:	2101      	movs	r1, #1
     3e2:	e8bd 4070 	ldmia.w	sp!, {r4, r5, r6, lr}
     3e6:	4718      	bx	r3
     3e8:	000022d1 	.word	0x000022d1
     3ec:	00002231 	.word	0x00002231
     3f0:	200007bc 	.word	0x200007bc
     3f4:	00000559 	.word	0x00000559
     3f8:	20000000 	.word	0x20000000
     3fc:	000022f3 	.word	0x000022f3
     400:	00001771 	.word	0x00001771
     404:	41014000 	.word	0x41014000
     408:	0000175f 	.word	0x0000175f

0000040c <sendCommandToModem>:
     40c:	b570      	push	{r4, r5, r6, lr}
     40e:	4c06      	ldr	r4, [pc, #24]	; (428 <sendCommandToModem+0x1c>)
     410:	4b06      	ldr	r3, [pc, #24]	; (42c <sendCommandToModem+0x20>)
     412:	460e      	mov	r6, r1
     414:	4605      	mov	r5, r0
     416:	4620      	mov	r0, r4
     418:	4798      	blx	r3
     41a:	4632      	mov	r2, r6
     41c:	4629      	mov	r1, r5
     41e:	4620      	mov	r0, r4
     420:	4b03      	ldr	r3, [pc, #12]	; (430 <sendCommandToModem+0x24>)
     422:	e8bd 4070 	ldmia.w	sp!, {r4, r5, r6, lr}
     426:	4718      	bx	r3
     428:	20000000 	.word	0x20000000
     42c:	0000173d 	.word	0x0000173d
     430:	000004e1 	.word	0x000004e1

00000434 <_gpio_set_direction.constprop.4>:
     434:	01c0      	lsls	r0, r0, #7
     436:	f100 4082 	add.w	r0, r0, #1090519040	; 0x41000000
     43a:	f500 4000 	add.w	r0, r0, #32768	; 0x8000
     43e:	b28b      	uxth	r3, r1
     440:	6081      	str	r1, [r0, #8]
     442:	0c09      	lsrs	r1, r1, #16
     444:	f043 4380 	orr.w	r3, r3, #1073741824	; 0x40000000
     448:	f041 4140 	orr.w	r1, r1, #3221225472	; 0xc0000000
     44c:	6283      	str	r3, [r0, #40]	; 0x28
     44e:	6281      	str	r1, [r0, #40]	; 0x28
     450:	4770      	bx	lr
	...

00000454 <modemPowerInit>:
     454:	b570      	push	{r4, r5, r6, lr}
     456:	4c1d      	ldr	r4, [pc, #116]	; (4cc <modemPowerInit+0x78>)
     458:	4a1d      	ldr	r2, [pc, #116]	; (4d0 <modemPowerInit+0x7c>)
     45a:	4e1e      	ldr	r6, [pc, #120]	; (4d4 <modemPowerInit+0x80>)
     45c:	f44f 3180 	mov.w	r1, #65536	; 0x10000
     460:	2001      	movs	r0, #1
     462:	4790      	blx	r2
     464:	f894 30d0 	ldrb.w	r3, [r4, #208]	; 0xd0
     468:	f44f 3580 	mov.w	r5, #65536	; 0x10000
     46c:	f003 03fe 	and.w	r3, r3, #254	; 0xfe
     470:	f884 30d0 	strb.w	r3, [r4, #208]	; 0xd0
     474:	f44f 2100 	mov.w	r1, #524288	; 0x80000
     478:	f8c4 5094 	str.w	r5, [r4, #148]	; 0x94
     47c:	2000      	movs	r0, #0
     47e:	4790      	blx	r2
     480:	f894 3053 	ldrb.w	r3, [r4, #83]	; 0x53
     484:	f003 03fe 	and.w	r3, r3, #254	; 0xfe
     488:	f884 3053 	strb.w	r3, [r4, #83]	; 0x53
     48c:	f44f 2300 	mov.w	r3, #524288	; 0x80000
     490:	4629      	mov	r1, r5
     492:	6163      	str	r3, [r4, #20]
     494:	2000      	movs	r0, #0
     496:	4790      	blx	r2
     498:	f894 3050 	ldrb.w	r3, [r4, #80]	; 0x50
     49c:	f003 03fe 	and.w	r3, r3, #254	; 0xfe
     4a0:	f884 3050 	strb.w	r3, [r4, #80]	; 0x50
     4a4:	f44f 70fa 	mov.w	r0, #500	; 0x1f4
     4a8:	6165      	str	r5, [r4, #20]
     4aa:	47b0      	blx	r6
     4ac:	f8c4 5098 	str.w	r5, [r4, #152]	; 0x98
     4b0:	2032      	movs	r0, #50	; 0x32
     4b2:	47b0      	blx	r6
     4b4:	f8c4 5094 	str.w	r5, [r4, #148]	; 0x94
     4b8:	f640 30b8 	movw	r0, #3000	; 0xbb8
     4bc:	47b0      	blx	r6
     4be:	2129      	movs	r1, #41	; 0x29
     4c0:	4805      	ldr	r0, [pc, #20]	; (4d8 <modemPowerInit+0x84>)
     4c2:	4b06      	ldr	r3, [pc, #24]	; (4dc <modemPowerInit+0x88>)
     4c4:	e8bd 4070 	ldmia.w	sp!, {r4, r5, r6, lr}
     4c8:	4718      	bx	r3
     4ca:	bf00      	nop
     4cc:	41008000 	.word	0x41008000
     4d0:	00000435 	.word	0x00000435
     4d4:	00000dad 	.word	0x00000dad
     4d8:	0000241a 	.word	0x0000241a
     4dc:	00000559 	.word	0x00000559

000004e0 <usart_async_write>:
     4e0:	e92d 43f8 	stmdb	sp!, {r3, r4, r5, r6, r7, r8, r9, lr}
     4e4:	4c0c      	ldr	r4, [pc, #48]	; (518 <usart_async_write+0x38>)
     4e6:	4605      	mov	r5, r0
     4e8:	460f      	mov	r7, r1
     4ea:	4616      	mov	r6, r2
     4ec:	46a1      	mov	r9, r4
     4ee:	4628      	mov	r0, r5
     4f0:	47a0      	blx	r4
     4f2:	2800      	cmp	r0, #0
     4f4:	d0fb      	beq.n	4ee <usart_async_write+0xe>
     4f6:	f8df 8024 	ldr.w	r8, [pc, #36]	; 51c <usart_async_write+0x3c>
     4fa:	2400      	movs	r4, #0
     4fc:	5d39      	ldrb	r1, [r7, r4]
     4fe:	4628      	mov	r0, r5
     500:	47c0      	blx	r8
     502:	4628      	mov	r0, r5
     504:	47c8      	blx	r9
     506:	2800      	cmp	r0, #0
     508:	d0fb      	beq.n	502 <usart_async_write+0x22>
     50a:	3401      	adds	r4, #1
     50c:	42b4      	cmp	r4, r6
     50e:	d3f5      	bcc.n	4fc <usart_async_write+0x1c>
     510:	4620      	mov	r0, r4
     512:	e8bd 83f8 	ldmia.w	sp!, {r3, r4, r5, r6, r7, r8, r9, pc}
     516:	bf00      	nop
     518:	00001767 	.word	0x00001767
     51c:	00001759 	.word	0x00001759

00000520 <SerialDebugTxByteSentCallBack>:
     520:	2302      	movs	r3, #2
     522:	7603      	strb	r3, [r0, #24]
     524:	4770      	bx	lr

00000526 <SerialDebugErrorCallBack>:
     526:	2380      	movs	r3, #128	; 0x80
     528:	7603      	strb	r3, [r0, #24]
     52a:	4770      	bx	lr

0000052c <SerialDebugPrintInit>:
     52c:	b510      	push	{r4, lr}
     52e:	4c06      	ldr	r4, [pc, #24]	; (548 <SerialDebugPrintInit+0x1c>)
     530:	4906      	ldr	r1, [pc, #24]	; (54c <SerialDebugPrintInit+0x20>)
     532:	4b07      	ldr	r3, [pc, #28]	; (550 <SerialDebugPrintInit+0x24>)
     534:	4620      	mov	r0, r4
     536:	4798      	blx	r3
     538:	2201      	movs	r2, #1
     53a:	4620      	mov	r0, r4
     53c:	4611      	mov	r1, r2
     53e:	4b05      	ldr	r3, [pc, #20]	; (554 <SerialDebugPrintInit+0x28>)
     540:	e8bd 4010 	ldmia.w	sp!, {r4, lr}
     544:	4718      	bx	r3
     546:	bf00      	nop
     548:	2000001c 	.word	0x2000001c
     54c:	43000400 	.word	0x43000400
     550:	000016e5 	.word	0x000016e5
     554:	00001783 	.word	0x00001783

00000558 <SerialDebugPrint>:
     558:	b570      	push	{r4, r5, r6, lr}
     55a:	4c06      	ldr	r4, [pc, #24]	; (574 <SerialDebugPrint+0x1c>)
     55c:	4b06      	ldr	r3, [pc, #24]	; (578 <SerialDebugPrint+0x20>)
     55e:	460e      	mov	r6, r1
     560:	4605      	mov	r5, r0
     562:	4620      	mov	r0, r4
     564:	4798      	blx	r3
     566:	4632      	mov	r2, r6
     568:	4629      	mov	r1, r5
     56a:	4620      	mov	r0, r4
     56c:	4b03      	ldr	r3, [pc, #12]	; (57c <SerialDebugPrint+0x24>)
     56e:	e8bd 4070 	ldmia.w	sp!, {r4, r5, r6, lr}
     572:	4718      	bx	r3
     574:	2000001c 	.word	0x2000001c
     578:	0000173d 	.word	0x0000173d
     57c:	000004e1 	.word	0x000004e1

00000580 <SerialDebugTxDoneCallBack>:
     580:	b510      	push	{r4, lr}
     582:	4b04      	ldr	r3, [pc, #16]	; (594 <SerialDebugTxDoneCallBack+0x14>)
     584:	4604      	mov	r4, r0
     586:	2116      	movs	r1, #22
     588:	4803      	ldr	r0, [pc, #12]	; (598 <SerialDebugTxDoneCallBack+0x18>)
     58a:	4798      	blx	r3
     58c:	2301      	movs	r3, #1
     58e:	7623      	strb	r3, [r4, #24]
     590:	bd10      	pop	{r4, pc}
     592:	bf00      	nop
     594:	00000559 	.word	0x00000559
     598:	00002470 	.word	0x00002470

0000059c <SERCOM5_2_Handler>:
     59c:	4b0c      	ldr	r3, [pc, #48]	; (5d0 <SERCOM5_2_Handler+0x34>)
     59e:	b510      	push	{r4, lr}
     5a0:	2204      	movs	r2, #4
     5a2:	4c0c      	ldr	r4, [pc, #48]	; (5d4 <SERCOM5_2_Handler+0x38>)
     5a4:	761a      	strb	r2, [r3, #24]
     5a6:	480c      	ldr	r0, [pc, #48]	; (5d8 <SERCOM5_2_Handler+0x3c>)
     5a8:	47a0      	blx	r4
     5aa:	2800      	cmp	r0, #0
     5ac:	d0fb      	beq.n	5a6 <SERCOM5_2_Handler+0xa>
     5ae:	4b0b      	ldr	r3, [pc, #44]	; (5dc <SERCOM5_2_Handler+0x40>)
     5b0:	4809      	ldr	r0, [pc, #36]	; (5d8 <SERCOM5_2_Handler+0x3c>)
     5b2:	4798      	blx	r3
     5b4:	490a      	ldr	r1, [pc, #40]	; (5e0 <SERCOM5_2_Handler+0x44>)
     5b6:	2300      	movs	r3, #0
     5b8:	7008      	strb	r0, [r1, #0]
     5ba:	704b      	strb	r3, [r1, #1]
     5bc:	4809      	ldr	r0, [pc, #36]	; (5e4 <SERCOM5_2_Handler+0x48>)
     5be:	4b0a      	ldr	r3, [pc, #40]	; (5e8 <SERCOM5_2_Handler+0x4c>)
     5c0:	4798      	blx	r3
     5c2:	2105      	movs	r1, #5
     5c4:	4807      	ldr	r0, [pc, #28]	; (5e4 <SERCOM5_2_Handler+0x48>)
     5c6:	4b09      	ldr	r3, [pc, #36]	; (5ec <SERCOM5_2_Handler+0x50>)
     5c8:	e8bd 4010 	ldmia.w	sp!, {r4, lr}
     5cc:	4718      	bx	r3
     5ce:	bf00      	nop
     5d0:	43000400 	.word	0x43000400
     5d4:	00001771 	.word	0x00001771
     5d8:	2000001c 	.word	0x2000001c
     5dc:	0000175f 	.word	0x0000175f
     5e0:	200007fc 	.word	0x200007fc
     5e4:	200007fe 	.word	0x200007fe
     5e8:	00002231 	.word	0x00002231
     5ec:	00000559 	.word	0x00000559

000005f0 <atmel_start_init>:
     5f0:	4b00      	ldr	r3, [pc, #0]	; (5f4 <atmel_start_init+0x4>)
     5f2:	4718      	bx	r3
     5f4:	00000c55 	.word	0x00000c55

000005f8 <Dummy_Handler>:
     5f8:	e7fe      	b.n	5f8 <Dummy_Handler>
	...

000005fc <Reset_Handler>:
     5fc:	b508      	push	{r3, lr}
     5fe:	4a14      	ldr	r2, [pc, #80]	; (650 <Reset_Handler+0x54>)
     600:	4b14      	ldr	r3, [pc, #80]	; (654 <Reset_Handler+0x58>)
     602:	429a      	cmp	r2, r3
     604:	d118      	bne.n	638 <Reset_Handler+0x3c>
     606:	4b14      	ldr	r3, [pc, #80]	; (658 <Reset_Handler+0x5c>)
     608:	4a14      	ldr	r2, [pc, #80]	; (65c <Reset_Handler+0x60>)
     60a:	2100      	movs	r1, #0
     60c:	4293      	cmp	r3, r2
     60e:	d31c      	bcc.n	64a <Reset_Handler+0x4e>
     610:	4a13      	ldr	r2, [pc, #76]	; (660 <Reset_Handler+0x64>)
     612:	4b14      	ldr	r3, [pc, #80]	; (664 <Reset_Handler+0x68>)
     614:	f022 027f 	bic.w	r2, r2, #127	; 0x7f
     618:	609a      	str	r2, [r3, #8]
     61a:	f8d3 2088 	ldr.w	r2, [r3, #136]	; 0x88
     61e:	f442 0270 	orr.w	r2, r2, #15728640	; 0xf00000
     622:	f8c3 2088 	str.w	r2, [r3, #136]	; 0x88
     626:	f3bf 8f4f 	dsb	sy
     62a:	f3bf 8f6f 	isb	sy
     62e:	4b0e      	ldr	r3, [pc, #56]	; (668 <Reset_Handler+0x6c>)
     630:	4798      	blx	r3
     632:	4b0e      	ldr	r3, [pc, #56]	; (66c <Reset_Handler+0x70>)
     634:	4798      	blx	r3
     636:	e7fe      	b.n	636 <Reset_Handler+0x3a>
     638:	490d      	ldr	r1, [pc, #52]	; (670 <Reset_Handler+0x74>)
     63a:	3a04      	subs	r2, #4
     63c:	428b      	cmp	r3, r1
     63e:	d2e2      	bcs.n	606 <Reset_Handler+0xa>
     640:	f852 0f04 	ldr.w	r0, [r2, #4]!
     644:	f843 0b04 	str.w	r0, [r3], #4
     648:	e7f8      	b.n	63c <Reset_Handler+0x40>
     64a:	f843 1b04 	str.w	r1, [r3], #4
     64e:	e7dd      	b.n	60c <Reset_Handler+0x10>
     650:	00002848 	.word	0x00002848
     654:	20000000 	.word	0x20000000
     658:	200000f0 	.word	0x200000f0
     65c:	200009c0 	.word	0x200009c0
     660:	00000000 	.word	0x00000000
     664:	e000ed00 	.word	0xe000ed00
     668:	000021e9 	.word	0x000021e9
     66c:	00001f3d 	.word	0x00001f3d
     670:	200000f0 	.word	0x200000f0

00000674 <_gpio_set_pin_function>:
     674:	b530      	push	{r4, r5, lr}
     676:	1c4a      	adds	r2, r1, #1
     678:	b2c4      	uxtb	r4, r0
     67a:	f3c0 1247 	ubfx	r2, r0, #5, #8
     67e:	4816      	ldr	r0, [pc, #88]	; (6d8 <_gpio_set_pin_function+0x64>)
     680:	f004 031f 	and.w	r3, r4, #31
     684:	eb00 10c2 	add.w	r0, r0, r2, lsl #7
     688:	d107      	bne.n	69a <_gpio_set_pin_function+0x26>
     68a:	4418      	add	r0, r3
     68c:	f890 3040 	ldrb.w	r3, [r0, #64]	; 0x40
     690:	f003 03fe 	and.w	r3, r3, #254	; 0xfe
     694:	f880 3040 	strb.w	r3, [r0, #64]	; 0x40
     698:	bd30      	pop	{r4, r5, pc}
     69a:	18c5      	adds	r5, r0, r3
     69c:	085b      	lsrs	r3, r3, #1
     69e:	f895 2040 	ldrb.w	r2, [r5, #64]	; 0x40
     6a2:	f002 02fe 	and.w	r2, r2, #254	; 0xfe
     6a6:	4418      	add	r0, r3
     6a8:	f042 0201 	orr.w	r2, r2, #1
     6ac:	f885 2040 	strb.w	r2, [r5, #64]	; 0x40
     6b0:	f890 3030 	ldrb.w	r3, [r0, #48]	; 0x30
     6b4:	f014 0f01 	tst.w	r4, #1
     6b8:	bf19      	ittee	ne
     6ba:	f003 030f 	andne.w	r3, r3, #15
     6be:	ea43 1101 	orrne.w	r1, r3, r1, lsl #4
     6c2:	f001 010f 	andeq.w	r1, r1, #15
     6c6:	f003 03f0 	andeq.w	r3, r3, #240	; 0xf0
     6ca:	bf14      	ite	ne
     6cc:	b2c9      	uxtbne	r1, r1
     6ce:	4319      	orreq	r1, r3
     6d0:	f880 1030 	strb.w	r1, [r0, #48]	; 0x30
     6d4:	bd30      	pop	{r4, r5, pc}
     6d6:	bf00      	nop
     6d8:	41008000 	.word	0x41008000

000006dc <gpio_set_pin_direction.constprop.1>:
     6dc:	f000 021f 	and.w	r2, r0, #31
     6e0:	0940      	lsrs	r0, r0, #5
     6e2:	01c0      	lsls	r0, r0, #7
     6e4:	f100 4082 	add.w	r0, r0, #1090519040	; 0x41000000
     6e8:	f500 4000 	add.w	r0, r0, #32768	; 0x8000
     6ec:	2301      	movs	r3, #1
     6ee:	4093      	lsls	r3, r2
     6f0:	6043      	str	r3, [r0, #4]
     6f2:	b29a      	uxth	r2, r3
     6f4:	0c1b      	lsrs	r3, r3, #16
     6f6:	f042 4280 	orr.w	r2, r2, #1073741824	; 0x40000000
     6fa:	f043 4340 	orr.w	r3, r3, #3221225472	; 0xc0000000
     6fe:	6282      	str	r2, [r0, #40]	; 0x28
     700:	6283      	str	r3, [r0, #40]	; 0x28
     702:	4770      	bx	lr

00000704 <AC_0_CLOCK_init>:
     704:	4a04      	ldr	r2, [pc, #16]	; (718 <AC_0_CLOCK_init+0x14>)
     706:	69d3      	ldr	r3, [r2, #28]
     708:	f443 7380 	orr.w	r3, r3, #256	; 0x100
     70c:	61d3      	str	r3, [r2, #28]
     70e:	4b03      	ldr	r3, [pc, #12]	; (71c <AC_0_CLOCK_init+0x18>)
     710:	2240      	movs	r2, #64	; 0x40
     712:	f8c3 2100 	str.w	r2, [r3, #256]	; 0x100
     716:	4770      	bx	lr
     718:	40000800 	.word	0x40000800
     71c:	40001c00 	.word	0x40001c00

00000720 <AC_0_init>:
     720:	b510      	push	{r4, lr}
     722:	4b04      	ldr	r3, [pc, #16]	; (734 <AC_0_init+0x14>)
     724:	4798      	blx	r3
     726:	4904      	ldr	r1, [pc, #16]	; (738 <AC_0_init+0x18>)
     728:	4804      	ldr	r0, [pc, #16]	; (73c <AC_0_init+0x1c>)
     72a:	4b05      	ldr	r3, [pc, #20]	; (740 <AC_0_init+0x20>)
     72c:	e8bd 4010 	ldmia.w	sp!, {r4, lr}
     730:	4718      	bx	r3
     732:	bf00      	nop
     734:	00000705 	.word	0x00000705
     738:	42002000 	.word	0x42002000
     73c:	200008a4 	.word	0x200008a4
     740:	00000d75 	.word	0x00000d75

00000744 <ADC_0_PORT_init>:
     744:	b570      	push	{r4, r5, r6, lr}
     746:	2002      	movs	r0, #2
     748:	4d15      	ldr	r5, [pc, #84]	; (7a0 <ADC_0_PORT_init+0x5c>)
     74a:	4c16      	ldr	r4, [pc, #88]	; (7a4 <ADC_0_PORT_init+0x60>)
     74c:	47a8      	blx	r5
     74e:	4916      	ldr	r1, [pc, #88]	; (7a8 <ADC_0_PORT_init+0x64>)
     750:	2002      	movs	r0, #2
     752:	47a0      	blx	r4
     754:	2003      	movs	r0, #3
     756:	47a8      	blx	r5
     758:	4914      	ldr	r1, [pc, #80]	; (7ac <ADC_0_PORT_init+0x68>)
     75a:	2003      	movs	r0, #3
     75c:	47a0      	blx	r4
     75e:	2028      	movs	r0, #40	; 0x28
     760:	47a8      	blx	r5
     762:	4913      	ldr	r1, [pc, #76]	; (7b0 <ADC_0_PORT_init+0x6c>)
     764:	2028      	movs	r0, #40	; 0x28
     766:	47a0      	blx	r4
     768:	2029      	movs	r0, #41	; 0x29
     76a:	47a8      	blx	r5
     76c:	4911      	ldr	r1, [pc, #68]	; (7b4 <ADC_0_PORT_init+0x70>)
     76e:	2029      	movs	r0, #41	; 0x29
     770:	47a0      	blx	r4
     772:	2004      	movs	r0, #4
     774:	47a8      	blx	r5
     776:	4910      	ldr	r1, [pc, #64]	; (7b8 <ADC_0_PORT_init+0x74>)
     778:	2004      	movs	r0, #4
     77a:	47a0      	blx	r4
     77c:	2005      	movs	r0, #5
     77e:	47a8      	blx	r5
     780:	490e      	ldr	r1, [pc, #56]	; (7bc <ADC_0_PORT_init+0x78>)
     782:	2005      	movs	r0, #5
     784:	47a0      	blx	r4
     786:	2006      	movs	r0, #6
     788:	47a8      	blx	r5
     78a:	490d      	ldr	r1, [pc, #52]	; (7c0 <ADC_0_PORT_init+0x7c>)
     78c:	2006      	movs	r0, #6
     78e:	47a0      	blx	r4
     790:	2007      	movs	r0, #7
     792:	47a8      	blx	r5
     794:	4623      	mov	r3, r4
     796:	490b      	ldr	r1, [pc, #44]	; (7c4 <ADC_0_PORT_init+0x80>)
     798:	2007      	movs	r0, #7
     79a:	e8bd 4070 	ldmia.w	sp!, {r4, r5, r6, lr}
     79e:	4718      	bx	r3
     7a0:	000006dd 	.word	0x000006dd
     7a4:	00000675 	.word	0x00000675
     7a8:	00020001 	.word	0x00020001
     7ac:	00030001 	.word	0x00030001
     7b0:	00280001 	.word	0x00280001
     7b4:	00290001 	.word	0x00290001
     7b8:	00040001 	.word	0x00040001
     7bc:	00050001 	.word	0x00050001
     7c0:	00060001 	.word	0x00060001
     7c4:	00070001 	.word	0x00070001

000007c8 <ADC_0_CLOCK_init>:
     7c8:	4a04      	ldr	r2, [pc, #16]	; (7dc <ADC_0_CLOCK_init+0x14>)
     7ca:	6a13      	ldr	r3, [r2, #32]
     7cc:	f043 0380 	orr.w	r3, r3, #128	; 0x80
     7d0:	6213      	str	r3, [r2, #32]
     7d2:	4b03      	ldr	r3, [pc, #12]	; (7e0 <ADC_0_CLOCK_init+0x18>)
     7d4:	2241      	movs	r2, #65	; 0x41
     7d6:	f8c3 2120 	str.w	r2, [r3, #288]	; 0x120
     7da:	4770      	bx	lr
     7dc:	40000800 	.word	0x40000800
     7e0:	40001c00 	.word	0x40001c00

000007e4 <ADC_0_init>:
     7e4:	b510      	push	{r4, lr}
     7e6:	4b05      	ldr	r3, [pc, #20]	; (7fc <ADC_0_init+0x18>)
     7e8:	4798      	blx	r3
     7ea:	4b05      	ldr	r3, [pc, #20]	; (800 <ADC_0_init+0x1c>)
     7ec:	4798      	blx	r3
     7ee:	2200      	movs	r2, #0
     7f0:	4904      	ldr	r1, [pc, #16]	; (804 <ADC_0_init+0x20>)
     7f2:	4805      	ldr	r0, [pc, #20]	; (808 <ADC_0_init+0x24>)
     7f4:	4b05      	ldr	r3, [pc, #20]	; (80c <ADC_0_init+0x28>)
     7f6:	e8bd 4010 	ldmia.w	sp!, {r4, lr}
     7fa:	4718      	bx	r3
     7fc:	000007c9 	.word	0x000007c9
     800:	00000745 	.word	0x00000745
     804:	43001c00 	.word	0x43001c00
     808:	200008b4 	.word	0x200008b4
     80c:	00000d7d 	.word	0x00000d7d

00000810 <ADC_1_CLOCK_init>:
     810:	4a04      	ldr	r2, [pc, #16]	; (824 <ADC_1_CLOCK_init+0x14>)
     812:	6a13      	ldr	r3, [r2, #32]
     814:	f443 7380 	orr.w	r3, r3, #256	; 0x100
     818:	6213      	str	r3, [r2, #32]
     81a:	4b03      	ldr	r3, [pc, #12]	; (828 <ADC_1_CLOCK_init+0x18>)
     81c:	2240      	movs	r2, #64	; 0x40
     81e:	f8c3 2124 	str.w	r2, [r3, #292]	; 0x124
     822:	4770      	bx	lr
     824:	40000800 	.word	0x40000800
     828:	40001c00 	.word	0x40001c00

0000082c <ADC_1_init>:
     82c:	b510      	push	{r4, lr}
     82e:	4b04      	ldr	r3, [pc, #16]	; (840 <ADC_1_init+0x14>)
     830:	4798      	blx	r3
     832:	2200      	movs	r2, #0
     834:	4903      	ldr	r1, [pc, #12]	; (844 <ADC_1_init+0x18>)
     836:	4804      	ldr	r0, [pc, #16]	; (848 <ADC_1_init+0x1c>)
     838:	4b04      	ldr	r3, [pc, #16]	; (84c <ADC_1_init+0x20>)
     83a:	e8bd 4010 	ldmia.w	sp!, {r4, lr}
     83e:	4718      	bx	r3
     840:	00000811 	.word	0x00000811
     844:	43002000 	.word	0x43002000
     848:	2000096c 	.word	0x2000096c
     84c:	00000d7d 	.word	0x00000d7d

00000850 <DAC_0_CLOCK_init>:
     850:	4a04      	ldr	r2, [pc, #16]	; (864 <DAC_0_CLOCK_init+0x14>)
     852:	6a13      	ldr	r3, [r2, #32]
     854:	f443 7300 	orr.w	r3, r3, #512	; 0x200
     858:	6213      	str	r3, [r2, #32]
     85a:	4b03      	ldr	r3, [pc, #12]	; (868 <DAC_0_CLOCK_init+0x18>)
     85c:	2240      	movs	r2, #64	; 0x40
     85e:	f8c3 2128 	str.w	r2, [r3, #296]	; 0x128
     862:	4770      	bx	lr
     864:	40000800 	.word	0x40000800
     868:	40001c00 	.word	0x40001c00

0000086c <DAC_0_init>:
     86c:	b510      	push	{r4, lr}
     86e:	4b04      	ldr	r3, [pc, #16]	; (880 <DAC_0_init+0x14>)
     870:	4798      	blx	r3
     872:	4904      	ldr	r1, [pc, #16]	; (884 <DAC_0_init+0x18>)
     874:	4804      	ldr	r0, [pc, #16]	; (888 <DAC_0_init+0x1c>)
     876:	4b05      	ldr	r3, [pc, #20]	; (88c <DAC_0_init+0x20>)
     878:	e8bd 4010 	ldmia.w	sp!, {r4, lr}
     87c:	4718      	bx	r3
     87e:	bf00      	nop
     880:	00000851 	.word	0x00000851
     884:	43002400 	.word	0x43002400
     888:	200008dc 	.word	0x200008dc
     88c:	00000d85 	.word	0x00000d85

00000890 <EXTERNAL_IRQ_0_init>:
     890:	4b05      	ldr	r3, [pc, #20]	; (8a8 <EXTERNAL_IRQ_0_init+0x18>)
     892:	2240      	movs	r2, #64	; 0x40
     894:	f8c3 2090 	str.w	r2, [r3, #144]	; 0x90
     898:	4a04      	ldr	r2, [pc, #16]	; (8ac <EXTERNAL_IRQ_0_init+0x1c>)
     89a:	6953      	ldr	r3, [r2, #20]
     89c:	f443 6380 	orr.w	r3, r3, #1024	; 0x400
     8a0:	6153      	str	r3, [r2, #20]
     8a2:	4b03      	ldr	r3, [pc, #12]	; (8b0 <EXTERNAL_IRQ_0_init+0x20>)
     8a4:	4718      	bx	r3
     8a6:	bf00      	nop
     8a8:	40001c00 	.word	0x40001c00
     8ac:	40000800 	.word	0x40000800
     8b0:	00000e09 	.word	0x00000e09

000008b4 <EVENT_SYSTEM_0_init>:
     8b4:	4a03      	ldr	r2, [pc, #12]	; (8c4 <EVENT_SYSTEM_0_init+0x10>)
     8b6:	6993      	ldr	r3, [r2, #24]
     8b8:	f043 0380 	orr.w	r3, r3, #128	; 0x80
     8bc:	6193      	str	r3, [r2, #24]
     8be:	4b02      	ldr	r3, [pc, #8]	; (8c8 <EVENT_SYSTEM_0_init+0x14>)
     8c0:	4718      	bx	r3
     8c2:	bf00      	nop
     8c4:	40000800 	.word	0x40000800
     8c8:	00000dd1 	.word	0x00000dd1

000008cc <FLASH_0_CLOCK_init>:
     8cc:	4a02      	ldr	r2, [pc, #8]	; (8d8 <FLASH_0_CLOCK_init+0xc>)
     8ce:	6913      	ldr	r3, [r2, #16]
     8d0:	f043 0340 	orr.w	r3, r3, #64	; 0x40
     8d4:	6113      	str	r3, [r2, #16]
     8d6:	4770      	bx	lr
     8d8:	40000800 	.word	0x40000800

000008dc <FLASH_0_init>:
     8dc:	b510      	push	{r4, lr}
     8de:	4b04      	ldr	r3, [pc, #16]	; (8f0 <FLASH_0_init+0x14>)
     8e0:	4798      	blx	r3
     8e2:	4904      	ldr	r1, [pc, #16]	; (8f4 <FLASH_0_init+0x18>)
     8e4:	4804      	ldr	r0, [pc, #16]	; (8f8 <FLASH_0_init+0x1c>)
     8e6:	4b05      	ldr	r3, [pc, #20]	; (8fc <FLASH_0_init+0x20>)
     8e8:	e8bd 4010 	ldmia.w	sp!, {r4, lr}
     8ec:	4718      	bx	r3
     8ee:	bf00      	nop
     8f0:	000008cd 	.word	0x000008cd
     8f4:	41004000 	.word	0x41004000
     8f8:	20000868 	.word	0x20000868
     8fc:	00000e39 	.word	0x00000e39

00000900 <ModemData_PORT_init>:
     900:	b510      	push	{r4, lr}
     902:	4c05      	ldr	r4, [pc, #20]	; (918 <ModemData_PORT_init+0x18>)
     904:	4905      	ldr	r1, [pc, #20]	; (91c <ModemData_PORT_init+0x1c>)
     906:	2011      	movs	r0, #17
     908:	47a0      	blx	r4
     90a:	4623      	mov	r3, r4
     90c:	4904      	ldr	r1, [pc, #16]	; (920 <ModemData_PORT_init+0x20>)
     90e:	2012      	movs	r0, #18
     910:	e8bd 4010 	ldmia.w	sp!, {r4, lr}
     914:	4718      	bx	r3
     916:	bf00      	nop
     918:	00000675 	.word	0x00000675
     91c:	00110003 	.word	0x00110003
     920:	00120003 	.word	0x00120003

00000924 <ModemData_CLOCK_init>:
     924:	4b06      	ldr	r3, [pc, #24]	; (940 <ModemData_CLOCK_init+0x1c>)
     926:	2240      	movs	r2, #64	; 0x40
     928:	f8c3 20e0 	str.w	r2, [r3, #224]	; 0xe0
     92c:	224a      	movs	r2, #74	; 0x4a
     92e:	f8c3 208c 	str.w	r2, [r3, #140]	; 0x8c
     932:	4a04      	ldr	r2, [pc, #16]	; (944 <ModemData_CLOCK_init+0x20>)
     934:	6993      	ldr	r3, [r2, #24]
     936:	f443 6380 	orr.w	r3, r3, #1024	; 0x400
     93a:	6193      	str	r3, [r2, #24]
     93c:	4770      	bx	lr
     93e:	bf00      	nop
     940:	40001c00 	.word	0x40001c00
     944:	40000800 	.word	0x40000800

00000948 <ModemData_init>:
     948:	b510      	push	{r4, lr}
     94a:	4b04      	ldr	r3, [pc, #16]	; (95c <ModemData_init+0x14>)
     94c:	4798      	blx	r3
     94e:	4b04      	ldr	r3, [pc, #16]	; (960 <ModemData_init+0x18>)
     950:	4798      	blx	r3
     952:	4b04      	ldr	r3, [pc, #16]	; (964 <ModemData_init+0x1c>)
     954:	e8bd 4010 	ldmia.w	sp!, {r4, lr}
     958:	4718      	bx	r3
     95a:	bf00      	nop
     95c:	00000925 	.word	0x00000925
     960:	000002d1 	.word	0x000002d1
     964:	00000901 	.word	0x00000901

00000968 <SerialDebug_PORT_init>:
     968:	b510      	push	{r4, lr}
     96a:	4c05      	ldr	r4, [pc, #20]	; (980 <SerialDebug_PORT_init+0x18>)
     96c:	4905      	ldr	r1, [pc, #20]	; (984 <SerialDebug_PORT_init+0x1c>)
     96e:	2017      	movs	r0, #23
     970:	47a0      	blx	r4
     972:	4623      	mov	r3, r4
     974:	4904      	ldr	r1, [pc, #16]	; (988 <SerialDebug_PORT_init+0x20>)
     976:	2037      	movs	r0, #55	; 0x37
     978:	e8bd 4010 	ldmia.w	sp!, {r4, lr}
     97c:	4718      	bx	r3
     97e:	bf00      	nop
     980:	00000675 	.word	0x00000675
     984:	00170003 	.word	0x00170003
     988:	00370003 	.word	0x00370003

0000098c <SerialDebug_CLOCK_init>:
     98c:	4b06      	ldr	r3, [pc, #24]	; (9a8 <SerialDebug_CLOCK_init+0x1c>)
     98e:	2240      	movs	r2, #64	; 0x40
     990:	f8c3 210c 	str.w	r2, [r3, #268]	; 0x10c
     994:	224a      	movs	r2, #74	; 0x4a
     996:	f8c3 208c 	str.w	r2, [r3, #140]	; 0x8c
     99a:	4a04      	ldr	r2, [pc, #16]	; (9ac <SerialDebug_CLOCK_init+0x20>)
     99c:	6a13      	ldr	r3, [r2, #32]
     99e:	f043 0302 	orr.w	r3, r3, #2
     9a2:	6213      	str	r3, [r2, #32]
     9a4:	4770      	bx	lr
     9a6:	bf00      	nop
     9a8:	40001c00 	.word	0x40001c00
     9ac:	40000800 	.word	0x40000800

000009b0 <SerialDebug_init>:
     9b0:	b510      	push	{r4, lr}
     9b2:	4b04      	ldr	r3, [pc, #16]	; (9c4 <SerialDebug_init+0x14>)
     9b4:	4798      	blx	r3
     9b6:	4b04      	ldr	r3, [pc, #16]	; (9c8 <SerialDebug_init+0x18>)
     9b8:	4798      	blx	r3
     9ba:	4b04      	ldr	r3, [pc, #16]	; (9cc <SerialDebug_init+0x1c>)
     9bc:	e8bd 4010 	ldmia.w	sp!, {r4, lr}
     9c0:	4718      	bx	r3
     9c2:	bf00      	nop
     9c4:	0000098d 	.word	0x0000098d
     9c8:	0000052d 	.word	0x0000052d
     9cc:	00000969 	.word	0x00000969

000009d0 <delay_driver_init>:
     9d0:	4801      	ldr	r0, [pc, #4]	; (9d8 <delay_driver_init+0x8>)
     9d2:	4b02      	ldr	r3, [pc, #8]	; (9dc <delay_driver_init+0xc>)
     9d4:	4718      	bx	r3
     9d6:	bf00      	nop
     9d8:	e000e010 	.word	0xe000e010
     9dc:	00000d9d 	.word	0x00000d9d

000009e0 <PWM_0_CLOCK_init>:
     9e0:	4a04      	ldr	r2, [pc, #16]	; (9f4 <PWM_0_CLOCK_init+0x14>)
     9e2:	6953      	ldr	r3, [r2, #20]
     9e4:	f443 4380 	orr.w	r3, r3, #16384	; 0x4000
     9e8:	6153      	str	r3, [r2, #20]
     9ea:	4b03      	ldr	r3, [pc, #12]	; (9f8 <PWM_0_CLOCK_init+0x18>)
     9ec:	2240      	movs	r2, #64	; 0x40
     9ee:	f8c3 20a4 	str.w	r2, [r3, #164]	; 0xa4
     9f2:	4770      	bx	lr
     9f4:	40000800 	.word	0x40000800
     9f8:	40001c00 	.word	0x40001c00

000009fc <PWM_0_init>:
     9fc:	b510      	push	{r4, lr}
     9fe:	4b05      	ldr	r3, [pc, #20]	; (a14 <PWM_0_init+0x18>)
     a00:	4798      	blx	r3
     a02:	4b05      	ldr	r3, [pc, #20]	; (a18 <PWM_0_init+0x1c>)
     a04:	4798      	blx	r3
     a06:	4905      	ldr	r1, [pc, #20]	; (a1c <PWM_0_init+0x20>)
     a08:	4b05      	ldr	r3, [pc, #20]	; (a20 <PWM_0_init+0x24>)
     a0a:	4602      	mov	r2, r0
     a0c:	e8bd 4010 	ldmia.w	sp!, {r4, lr}
     a10:	4804      	ldr	r0, [pc, #16]	; (a24 <PWM_0_init+0x28>)
     a12:	4718      	bx	r3
     a14:	000009e1 	.word	0x000009e1
     a18:	00001e99 	.word	0x00001e99
     a1c:	40003800 	.word	0x40003800
     a20:	00000e69 	.word	0x00000e69
     a24:	20000830 	.word	0x20000830

00000a28 <PWM_1_CLOCK_init>:
     a28:	4a04      	ldr	r2, [pc, #16]	; (a3c <PWM_1_CLOCK_init+0x14>)
     a2a:	6953      	ldr	r3, [r2, #20]
     a2c:	f443 4300 	orr.w	r3, r3, #32768	; 0x8000
     a30:	6153      	str	r3, [r2, #20]
     a32:	4b03      	ldr	r3, [pc, #12]	; (a40 <PWM_1_CLOCK_init+0x18>)
     a34:	2240      	movs	r2, #64	; 0x40
     a36:	f8c3 20a4 	str.w	r2, [r3, #164]	; 0xa4
     a3a:	4770      	bx	lr
     a3c:	40000800 	.word	0x40000800
     a40:	40001c00 	.word	0x40001c00

00000a44 <PWM_1_init>:
     a44:	b510      	push	{r4, lr}
     a46:	4b05      	ldr	r3, [pc, #20]	; (a5c <PWM_1_init+0x18>)
     a48:	4798      	blx	r3
     a4a:	4b05      	ldr	r3, [pc, #20]	; (a60 <PWM_1_init+0x1c>)
     a4c:	4798      	blx	r3
     a4e:	4905      	ldr	r1, [pc, #20]	; (a64 <PWM_1_init+0x20>)
     a50:	4b05      	ldr	r3, [pc, #20]	; (a68 <PWM_1_init+0x24>)
     a52:	4602      	mov	r2, r0
     a54:	e8bd 4010 	ldmia.w	sp!, {r4, lr}
     a58:	4804      	ldr	r0, [pc, #16]	; (a6c <PWM_1_init+0x28>)
     a5a:	4718      	bx	r3
     a5c:	00000a29 	.word	0x00000a29
     a60:	00001e99 	.word	0x00001e99
     a64:	40003c00 	.word	0x40003c00
     a68:	00000e69 	.word	0x00000e69
     a6c:	20000950 	.word	0x20000950

00000a70 <PWM_2_CLOCK_init>:
     a70:	4a04      	ldr	r2, [pc, #16]	; (a84 <PWM_2_CLOCK_init+0x14>)
     a72:	6993      	ldr	r3, [r2, #24]
     a74:	f443 5300 	orr.w	r3, r3, #8192	; 0x2000
     a78:	6193      	str	r3, [r2, #24]
     a7a:	4b03      	ldr	r3, [pc, #12]	; (a88 <PWM_2_CLOCK_init+0x18>)
     a7c:	2240      	movs	r2, #64	; 0x40
     a7e:	f8c3 20e8 	str.w	r2, [r3, #232]	; 0xe8
     a82:	4770      	bx	lr
     a84:	40000800 	.word	0x40000800
     a88:	40001c00 	.word	0x40001c00

00000a8c <PWM_2_init>:
     a8c:	b510      	push	{r4, lr}
     a8e:	4b05      	ldr	r3, [pc, #20]	; (aa4 <PWM_2_init+0x18>)
     a90:	4798      	blx	r3
     a92:	4b05      	ldr	r3, [pc, #20]	; (aa8 <PWM_2_init+0x1c>)
     a94:	4798      	blx	r3
     a96:	4905      	ldr	r1, [pc, #20]	; (aac <PWM_2_init+0x20>)
     a98:	4b05      	ldr	r3, [pc, #20]	; (ab0 <PWM_2_init+0x24>)
     a9a:	4602      	mov	r2, r0
     a9c:	e8bd 4010 	ldmia.w	sp!, {r4, lr}
     aa0:	4804      	ldr	r0, [pc, #16]	; (ab4 <PWM_2_init+0x28>)
     aa2:	4718      	bx	r3
     aa4:	00000a71 	.word	0x00000a71
     aa8:	00001e99 	.word	0x00001e99
     aac:	4101a000 	.word	0x4101a000
     ab0:	00000e69 	.word	0x00000e69
     ab4:	2000084c 	.word	0x2000084c

00000ab8 <TIMER_3_CLOCK_init>:
     ab8:	4a04      	ldr	r2, [pc, #16]	; (acc <TIMER_3_CLOCK_init+0x14>)
     aba:	6993      	ldr	r3, [r2, #24]
     abc:	f443 6300 	orr.w	r3, r3, #2048	; 0x800
     ac0:	6193      	str	r3, [r2, #24]
     ac2:	4b03      	ldr	r3, [pc, #12]	; (ad0 <TIMER_3_CLOCK_init+0x18>)
     ac4:	2240      	movs	r2, #64	; 0x40
     ac6:	f8c3 20e4 	str.w	r2, [r3, #228]	; 0xe4
     aca:	4770      	bx	lr
     acc:	40000800 	.word	0x40000800
     ad0:	40001c00 	.word	0x40001c00

00000ad4 <TIMER_3_init>:
     ad4:	b510      	push	{r4, lr}
     ad6:	4b05      	ldr	r3, [pc, #20]	; (aec <TIMER_3_init+0x18>)
     ad8:	4798      	blx	r3
     ada:	4b05      	ldr	r3, [pc, #20]	; (af0 <TIMER_3_init+0x1c>)
     adc:	4798      	blx	r3
     ade:	4905      	ldr	r1, [pc, #20]	; (af4 <TIMER_3_init+0x20>)
     ae0:	4b05      	ldr	r3, [pc, #20]	; (af8 <TIMER_3_init+0x24>)
     ae2:	4602      	mov	r2, r0
     ae4:	e8bd 4010 	ldmia.w	sp!, {r4, lr}
     ae8:	4804      	ldr	r0, [pc, #16]	; (afc <TIMER_3_init+0x28>)
     aea:	4718      	bx	r3
     aec:	00000ab9 	.word	0x00000ab9
     af0:	00001a2d 	.word	0x00001a2d
     af4:	41016000 	.word	0x41016000
     af8:	00000f41 	.word	0x00000f41
     afc:	20000970 	.word	0x20000970

00000b00 <TIMER_4_CLOCK_init>:
     b00:	4a04      	ldr	r2, [pc, #16]	; (b14 <TIMER_4_CLOCK_init+0x14>)
     b02:	6993      	ldr	r3, [r2, #24]
     b04:	f443 5380 	orr.w	r3, r3, #4096	; 0x1000
     b08:	6193      	str	r3, [r2, #24]
     b0a:	4b03      	ldr	r3, [pc, #12]	; (b18 <TIMER_4_CLOCK_init+0x18>)
     b0c:	2240      	movs	r2, #64	; 0x40
     b0e:	f8c3 20e4 	str.w	r2, [r3, #228]	; 0xe4
     b12:	4770      	bx	lr
     b14:	40000800 	.word	0x40000800
     b18:	40001c00 	.word	0x40001c00

00000b1c <TIMER_4_init>:
     b1c:	b510      	push	{r4, lr}
     b1e:	4b05      	ldr	r3, [pc, #20]	; (b34 <TIMER_4_init+0x18>)
     b20:	4798      	blx	r3
     b22:	4b05      	ldr	r3, [pc, #20]	; (b38 <TIMER_4_init+0x1c>)
     b24:	4798      	blx	r3
     b26:	4905      	ldr	r1, [pc, #20]	; (b3c <TIMER_4_init+0x20>)
     b28:	4b05      	ldr	r3, [pc, #20]	; (b40 <TIMER_4_init+0x24>)
     b2a:	4602      	mov	r2, r0
     b2c:	e8bd 4010 	ldmia.w	sp!, {r4, lr}
     b30:	4804      	ldr	r0, [pc, #16]	; (b44 <TIMER_4_init+0x28>)
     b32:	4718      	bx	r3
     b34:	00000b01 	.word	0x00000b01
     b38:	00001a2d 	.word	0x00001a2d
     b3c:	41018000 	.word	0x41018000
     b40:	00000f41 	.word	0x00000f41
     b44:	200008b8 	.word	0x200008b8

00000b48 <TIMER_5_CLOCK_init>:
     b48:	4a04      	ldr	r2, [pc, #16]	; (b5c <TIMER_5_CLOCK_init+0x14>)
     b4a:	69d3      	ldr	r3, [r2, #28]
     b4c:	f043 0308 	orr.w	r3, r3, #8
     b50:	61d3      	str	r3, [r2, #28]
     b52:	4b03      	ldr	r3, [pc, #12]	; (b60 <TIMER_5_CLOCK_init+0x18>)
     b54:	2240      	movs	r2, #64	; 0x40
     b56:	f8c3 20f4 	str.w	r2, [r3, #244]	; 0xf4
     b5a:	4770      	bx	lr
     b5c:	40000800 	.word	0x40000800
     b60:	40001c00 	.word	0x40001c00

00000b64 <TIMER_5_init>:
     b64:	b510      	push	{r4, lr}
     b66:	4b05      	ldr	r3, [pc, #20]	; (b7c <TIMER_5_init+0x18>)
     b68:	4798      	blx	r3
     b6a:	4b05      	ldr	r3, [pc, #20]	; (b80 <TIMER_5_init+0x1c>)
     b6c:	4798      	blx	r3
     b6e:	4905      	ldr	r1, [pc, #20]	; (b84 <TIMER_5_init+0x20>)
     b70:	4b05      	ldr	r3, [pc, #20]	; (b88 <TIMER_5_init+0x24>)
     b72:	4602      	mov	r2, r0
     b74:	e8bd 4010 	ldmia.w	sp!, {r4, lr}
     b78:	4804      	ldr	r0, [pc, #16]	; (b8c <TIMER_5_init+0x28>)
     b7a:	4718      	bx	r3
     b7c:	00000b49 	.word	0x00000b49
     b80:	00001a2d 	.word	0x00001a2d
     b84:	42000c00 	.word	0x42000c00
     b88:	00000f41 	.word	0x00000f41
     b8c:	20000910 	.word	0x20000910

00000b90 <TIMER_6_CLOCK_init>:
     b90:	4a04      	ldr	r2, [pc, #16]	; (ba4 <TIMER_6_CLOCK_init+0x14>)
     b92:	69d3      	ldr	r3, [r2, #28]
     b94:	f043 0310 	orr.w	r3, r3, #16
     b98:	61d3      	str	r3, [r2, #28]
     b9a:	4b03      	ldr	r3, [pc, #12]	; (ba8 <TIMER_6_CLOCK_init+0x18>)
     b9c:	2240      	movs	r2, #64	; 0x40
     b9e:	f8c3 20f4 	str.w	r2, [r3, #244]	; 0xf4
     ba2:	4770      	bx	lr
     ba4:	40000800 	.word	0x40000800
     ba8:	40001c00 	.word	0x40001c00

00000bac <TIMER_6_init>:
     bac:	b510      	push	{r4, lr}
     bae:	4b05      	ldr	r3, [pc, #20]	; (bc4 <TIMER_6_init+0x18>)
     bb0:	4798      	blx	r3
     bb2:	4b05      	ldr	r3, [pc, #20]	; (bc8 <TIMER_6_init+0x1c>)
     bb4:	4798      	blx	r3
     bb6:	4905      	ldr	r1, [pc, #20]	; (bcc <TIMER_6_init+0x20>)
     bb8:	4b05      	ldr	r3, [pc, #20]	; (bd0 <TIMER_6_init+0x24>)
     bba:	4602      	mov	r2, r0
     bbc:	e8bd 4010 	ldmia.w	sp!, {r4, lr}
     bc0:	4804      	ldr	r0, [pc, #16]	; (bd4 <TIMER_6_init+0x28>)
     bc2:	4718      	bx	r3
     bc4:	00000b91 	.word	0x00000b91
     bc8:	00001a2d 	.word	0x00001a2d
     bcc:	42001000 	.word	0x42001000
     bd0:	00000f41 	.word	0x00000f41
     bd4:	20000930 	.word	0x20000930

00000bd8 <TIMER_7_CLOCK_init>:
     bd8:	4a04      	ldr	r2, [pc, #16]	; (bec <TIMER_7_CLOCK_init+0x14>)
     bda:	6a13      	ldr	r3, [r2, #32]
     bdc:	f043 0310 	orr.w	r3, r3, #16
     be0:	6213      	str	r3, [r2, #32]
     be2:	4b03      	ldr	r3, [pc, #12]	; (bf0 <TIMER_7_CLOCK_init+0x18>)
     be4:	2240      	movs	r2, #64	; 0x40
     be6:	f8c3 2118 	str.w	r2, [r3, #280]	; 0x118
     bea:	4770      	bx	lr
     bec:	40000800 	.word	0x40000800
     bf0:	40001c00 	.word	0x40001c00

00000bf4 <TIMER_7_init>:
     bf4:	b510      	push	{r4, lr}
     bf6:	4b05      	ldr	r3, [pc, #20]	; (c0c <TIMER_7_init+0x18>)
     bf8:	4798      	blx	r3
     bfa:	4b05      	ldr	r3, [pc, #20]	; (c10 <TIMER_7_init+0x1c>)
     bfc:	4798      	blx	r3
     bfe:	4905      	ldr	r1, [pc, #20]	; (c14 <TIMER_7_init+0x20>)
     c00:	4b05      	ldr	r3, [pc, #20]	; (c18 <TIMER_7_init+0x24>)
     c02:	4602      	mov	r2, r0
     c04:	e8bd 4010 	ldmia.w	sp!, {r4, lr}
     c08:	4804      	ldr	r0, [pc, #16]	; (c1c <TIMER_7_init+0x28>)
     c0a:	4718      	bx	r3
     c0c:	00000bd9 	.word	0x00000bd9
     c10:	00001a2d 	.word	0x00001a2d
     c14:	43001000 	.word	0x43001000
     c18:	00000f41 	.word	0x00000f41
     c1c:	20000884 	.word	0x20000884

00000c20 <WDT_0_CLOCK_init>:
     c20:	4a02      	ldr	r2, [pc, #8]	; (c2c <WDT_0_CLOCK_init+0xc>)
     c22:	6953      	ldr	r3, [r2, #20]
     c24:	f443 7380 	orr.w	r3, r3, #256	; 0x100
     c28:	6153      	str	r3, [r2, #20]
     c2a:	4770      	bx	lr
     c2c:	40000800 	.word	0x40000800

00000c30 <WDT_0_init>:
     c30:	b510      	push	{r4, lr}
     c32:	4b04      	ldr	r3, [pc, #16]	; (c44 <WDT_0_init+0x14>)
     c34:	4798      	blx	r3
     c36:	4804      	ldr	r0, [pc, #16]	; (c48 <WDT_0_init+0x18>)
     c38:	4b04      	ldr	r3, [pc, #16]	; (c4c <WDT_0_init+0x1c>)
     c3a:	6003      	str	r3, [r0, #0]
     c3c:	e8bd 4010 	ldmia.w	sp!, {r4, lr}
     c40:	4b03      	ldr	r3, [pc, #12]	; (c50 <WDT_0_init+0x20>)
     c42:	4718      	bx	r3
     c44:	00000c21 	.word	0x00000c21
     c48:	200008d8 	.word	0x200008d8
     c4c:	40002000 	.word	0x40002000
     c50:	00001efd 	.word	0x00001efd

00000c54 <system_init>:
     c54:	e92d 41f0 	stmdb	sp!, {r4, r5, r6, r7, r8, lr}
     c58:	4b28      	ldr	r3, [pc, #160]	; (cfc <system_init+0xa8>)
     c5a:	4c29      	ldr	r4, [pc, #164]	; (d00 <system_init+0xac>)
     c5c:	4f29      	ldr	r7, [pc, #164]	; (d04 <system_init+0xb0>)
     c5e:	4e2a      	ldr	r6, [pc, #168]	; (d08 <system_init+0xb4>)
     c60:	4d2a      	ldr	r5, [pc, #168]	; (d0c <system_init+0xb8>)
     c62:	4798      	blx	r3
     c64:	4b2a      	ldr	r3, [pc, #168]	; (d10 <system_init+0xbc>)
     c66:	4798      	blx	r3
     c68:	4b2a      	ldr	r3, [pc, #168]	; (d14 <system_init+0xc0>)
     c6a:	4798      	blx	r3
     c6c:	4b2a      	ldr	r3, [pc, #168]	; (d18 <system_init+0xc4>)
     c6e:	4798      	blx	r3
     c70:	4b2a      	ldr	r3, [pc, #168]	; (d1c <system_init+0xc8>)
     c72:	4798      	blx	r3
     c74:	4b2a      	ldr	r3, [pc, #168]	; (d20 <system_init+0xcc>)
     c76:	4798      	blx	r3
     c78:	4b2a      	ldr	r3, [pc, #168]	; (d24 <system_init+0xd0>)
     c7a:	4798      	blx	r3
     c7c:	4b2a      	ldr	r3, [pc, #168]	; (d28 <system_init+0xd4>)
     c7e:	4798      	blx	r3
     c80:	4b2a      	ldr	r3, [pc, #168]	; (d2c <system_init+0xd8>)
     c82:	4798      	blx	r3
     c84:	4b2a      	ldr	r3, [pc, #168]	; (d30 <system_init+0xdc>)
     c86:	4798      	blx	r3
     c88:	4b2a      	ldr	r3, [pc, #168]	; (d34 <system_init+0xe0>)
     c8a:	4798      	blx	r3
     c8c:	4b2a      	ldr	r3, [pc, #168]	; (d38 <system_init+0xe4>)
     c8e:	4798      	blx	r3
     c90:	4b2a      	ldr	r3, [pc, #168]	; (d3c <system_init+0xe8>)
     c92:	4798      	blx	r3
     c94:	4b2a      	ldr	r3, [pc, #168]	; (d40 <system_init+0xec>)
     c96:	4798      	blx	r3
     c98:	69a3      	ldr	r3, [r4, #24]
     c9a:	f04f 0840 	mov.w	r8, #64	; 0x40
     c9e:	f443 4380 	orr.w	r3, r3, #16384	; 0x4000
     ca2:	61a3      	str	r3, [r4, #24]
     ca4:	f8c7 80e8 	str.w	r8, [r7, #232]	; 0xe8
     ca8:	47b0      	blx	r6
     caa:	4926      	ldr	r1, [pc, #152]	; (d44 <system_init+0xf0>)
     cac:	4602      	mov	r2, r0
     cae:	4826      	ldr	r0, [pc, #152]	; (d48 <system_init+0xf4>)
     cb0:	47a8      	blx	r5
     cb2:	69e3      	ldr	r3, [r4, #28]
     cb4:	f043 0320 	orr.w	r3, r3, #32
     cb8:	61e3      	str	r3, [r4, #28]
     cba:	f8c7 80f8 	str.w	r8, [r7, #248]	; 0xf8
     cbe:	47b0      	blx	r6
     cc0:	4922      	ldr	r1, [pc, #136]	; (d4c <system_init+0xf8>)
     cc2:	4602      	mov	r2, r0
     cc4:	4822      	ldr	r0, [pc, #136]	; (d50 <system_init+0xfc>)
     cc6:	47a8      	blx	r5
     cc8:	69e3      	ldr	r3, [r4, #28]
     cca:	ea43 0308 	orr.w	r3, r3, r8
     cce:	61e3      	str	r3, [r4, #28]
     cd0:	f8c7 80f8 	str.w	r8, [r7, #248]	; 0xf8
     cd4:	47b0      	blx	r6
     cd6:	491f      	ldr	r1, [pc, #124]	; (d54 <system_init+0x100>)
     cd8:	4602      	mov	r2, r0
     cda:	481f      	ldr	r0, [pc, #124]	; (d58 <system_init+0x104>)
     cdc:	47a8      	blx	r5
     cde:	4b1f      	ldr	r3, [pc, #124]	; (d5c <system_init+0x108>)
     ce0:	4798      	blx	r3
     ce2:	4b1f      	ldr	r3, [pc, #124]	; (d60 <system_init+0x10c>)
     ce4:	4798      	blx	r3
     ce6:	4b1f      	ldr	r3, [pc, #124]	; (d64 <system_init+0x110>)
     ce8:	4798      	blx	r3
     cea:	4b1f      	ldr	r3, [pc, #124]	; (d68 <system_init+0x114>)
     cec:	4798      	blx	r3
     cee:	4b1f      	ldr	r3, [pc, #124]	; (d6c <system_init+0x118>)
     cf0:	4798      	blx	r3
     cf2:	4b1f      	ldr	r3, [pc, #124]	; (d70 <system_init+0x11c>)
     cf4:	e8bd 41f0 	ldmia.w	sp!, {r4, r5, r6, r7, r8, lr}
     cf8:	4718      	bx	r3
     cfa:	bf00      	nop
     cfc:	000010b1 	.word	0x000010b1
     d00:	40000800 	.word	0x40000800
     d04:	40001c00 	.word	0x40001c00
     d08:	00001e91 	.word	0x00001e91
     d0c:	00000f41 	.word	0x00000f41
     d10:	00000721 	.word	0x00000721
     d14:	000007e5 	.word	0x000007e5
     d18:	0000082d 	.word	0x0000082d
     d1c:	0000086d 	.word	0x0000086d
     d20:	00000891 	.word	0x00000891
     d24:	000008b5 	.word	0x000008b5
     d28:	000008dd 	.word	0x000008dd
     d2c:	000009b1 	.word	0x000009b1
     d30:	00000949 	.word	0x00000949
     d34:	000009d1 	.word	0x000009d1
     d38:	000009fd 	.word	0x000009fd
     d3c:	00000a45 	.word	0x00000a45
     d40:	00000a8d 	.word	0x00000a8d
     d44:	4101c000 	.word	0x4101c000
     d48:	20000990 	.word	0x20000990
     d4c:	42001400 	.word	0x42001400
     d50:	200008f0 	.word	0x200008f0
     d54:	42001800 	.word	0x42001800
     d58:	20000810 	.word	0x20000810
     d5c:	00000ad5 	.word	0x00000ad5
     d60:	00000b1d 	.word	0x00000b1d
     d64:	00000b65 	.word	0x00000b65
     d68:	00000bad 	.word	0x00000bad
     d6c:	00000bf5 	.word	0x00000bf5
     d70:	00000c31 	.word	0x00000c31

00000d74 <ac_sync_init>:
     d74:	4b00      	ldr	r3, [pc, #0]	; (d78 <ac_sync_init+0x4>)
     d76:	4718      	bx	r3
     d78:	00000fc1 	.word	0x00000fc1

00000d7c <adc_sync_init>:
     d7c:	4b00      	ldr	r3, [pc, #0]	; (d80 <adc_sync_init+0x4>)
     d7e:	4718      	bx	r3
     d80:	0000106d 	.word	0x0000106d

00000d84 <dac_sync_init>:
     d84:	b510      	push	{r4, lr}
     d86:	4b04      	ldr	r3, [pc, #16]	; (d98 <dac_sync_init+0x14>)
     d88:	4604      	mov	r4, r0
     d8a:	4798      	blx	r3
     d8c:	b918      	cbnz	r0, d96 <dac_sync_init+0x12>
     d8e:	6060      	str	r0, [r4, #4]
     d90:	60a0      	str	r0, [r4, #8]
     d92:	60e0      	str	r0, [r4, #12]
     d94:	6120      	str	r0, [r4, #16]
     d96:	bd10      	pop	{r4, pc}
     d98:	0000114d 	.word	0x0000114d

00000d9c <delay_init>:
     d9c:	4b01      	ldr	r3, [pc, #4]	; (da4 <delay_init+0x8>)
     d9e:	6018      	str	r0, [r3, #0]
     da0:	4b01      	ldr	r3, [pc, #4]	; (da8 <delay_init+0xc>)
     da2:	4718      	bx	r3
     da4:	2000010c 	.word	0x2000010c
     da8:	000017b5 	.word	0x000017b5

00000dac <delay_ms>:
     dac:	4b05      	ldr	r3, [pc, #20]	; (dc4 <delay_ms+0x18>)
     dae:	b510      	push	{r4, lr}
     db0:	681c      	ldr	r4, [r3, #0]
     db2:	4b05      	ldr	r3, [pc, #20]	; (dc8 <delay_ms+0x1c>)
     db4:	4798      	blx	r3
     db6:	4b05      	ldr	r3, [pc, #20]	; (dcc <delay_ms+0x20>)
     db8:	4601      	mov	r1, r0
     dba:	4620      	mov	r0, r4
     dbc:	e8bd 4010 	ldmia.w	sp!, {r4, lr}
     dc0:	4718      	bx	r3
     dc2:	bf00      	nop
     dc4:	2000010c 	.word	0x2000010c
     dc8:	000010a9 	.word	0x000010a9
     dcc:	000017c9 	.word	0x000017c9

00000dd0 <event_system_init>:
     dd0:	4b00      	ldr	r3, [pc, #0]	; (dd4 <event_system_init+0x4>)
     dd2:	4718      	bx	r3
     dd4:	00001305 	.word	0x00001305

00000dd8 <process_ext_irq>:
     dd8:	4b0a      	ldr	r3, [pc, #40]	; (e04 <process_ext_irq+0x2c>)
     dda:	b430      	push	{r4, r5}
     ddc:	685d      	ldr	r5, [r3, #4]
     dde:	2101      	movs	r1, #1
     de0:	2200      	movs	r2, #0
     de2:	188c      	adds	r4, r1, r2
     de4:	0864      	lsrs	r4, r4, #1
     de6:	d001      	beq.n	dec <process_ext_irq+0x14>
     de8:	bc30      	pop	{r4, r5}
     dea:	4770      	bx	lr
     dec:	4285      	cmp	r5, r0
     dee:	d104      	bne.n	dfa <process_ext_irq+0x22>
     df0:	681b      	ldr	r3, [r3, #0]
     df2:	2b00      	cmp	r3, #0
     df4:	d0f8      	beq.n	de8 <process_ext_irq+0x10>
     df6:	bc30      	pop	{r4, r5}
     df8:	4718      	bx	r3
     dfa:	bf2c      	ite	cs
     dfc:	21ff      	movcs	r1, #255	; 0xff
     dfe:	2201      	movcc	r2, #1
     e00:	e7ef      	b.n	de2 <process_ext_irq+0xa>
     e02:	bf00      	nop
     e04:	20000110 	.word	0x20000110

00000e08 <ext_irq_init>:
     e08:	4b04      	ldr	r3, [pc, #16]	; (e1c <ext_irq_init+0x14>)
     e0a:	4805      	ldr	r0, [pc, #20]	; (e20 <ext_irq_init+0x18>)
     e0c:	2100      	movs	r1, #0
     e0e:	f04f 32ff 	mov.w	r2, #4294967295
     e12:	e883 0006 	stmia.w	r3, {r1, r2}
     e16:	4b03      	ldr	r3, [pc, #12]	; (e24 <ext_irq_init+0x1c>)
     e18:	4718      	bx	r3
     e1a:	bf00      	nop
     e1c:	20000110 	.word	0x20000110
     e20:	00000dd9 	.word	0x00000dd9
     e24:	00001299 	.word	0x00001299

00000e28 <flash_ready>:
     e28:	6943      	ldr	r3, [r0, #20]
     e2a:	b103      	cbz	r3, e2e <flash_ready+0x6>
     e2c:	4718      	bx	r3
     e2e:	4770      	bx	lr

00000e30 <flash_error>:
     e30:	6983      	ldr	r3, [r0, #24]
     e32:	b103      	cbz	r3, e36 <flash_error+0x6>
     e34:	4718      	bx	r3
     e36:	4770      	bx	lr

00000e38 <flash_init>:
     e38:	b510      	push	{r4, lr}
     e3a:	4b04      	ldr	r3, [pc, #16]	; (e4c <flash_init+0x14>)
     e3c:	4604      	mov	r4, r0
     e3e:	4798      	blx	r3
     e40:	b918      	cbnz	r0, e4a <flash_init+0x12>
     e42:	4b03      	ldr	r3, [pc, #12]	; (e50 <flash_init+0x18>)
     e44:	6023      	str	r3, [r4, #0]
     e46:	4b03      	ldr	r3, [pc, #12]	; (e54 <flash_init+0x1c>)
     e48:	6063      	str	r3, [r4, #4]
     e4a:	bd10      	pop	{r4, pc}
     e4c:	000013f9 	.word	0x000013f9
     e50:	00000e29 	.word	0x00000e29
     e54:	00000e31 	.word	0x00000e31

00000e58 <pwm_period_expired>:
     e58:	6943      	ldr	r3, [r0, #20]
     e5a:	b103      	cbz	r3, e5e <pwm_period_expired+0x6>
     e5c:	4718      	bx	r3
     e5e:	4770      	bx	lr

00000e60 <pwm_detect_fault>:
     e60:	6983      	ldr	r3, [r0, #24]
     e62:	b103      	cbz	r3, e66 <pwm_detect_fault+0x6>
     e64:	4718      	bx	r3
     e66:	4770      	bx	lr

00000e68 <pwm_init>:
     e68:	b510      	push	{r4, lr}
     e6a:	4b04      	ldr	r3, [pc, #16]	; (e7c <pwm_init+0x14>)
     e6c:	4604      	mov	r4, r0
     e6e:	4798      	blx	r3
     e70:	4b03      	ldr	r3, [pc, #12]	; (e80 <pwm_init+0x18>)
     e72:	6023      	str	r3, [r4, #0]
     e74:	4b03      	ldr	r3, [pc, #12]	; (e84 <pwm_init+0x1c>)
     e76:	6063      	str	r3, [r4, #4]
     e78:	2000      	movs	r0, #0
     e7a:	bd10      	pop	{r4, pc}
     e7c:	00001dcd 	.word	0x00001dcd
     e80:	00000e59 	.word	0x00000e59
     e84:	00000e61 	.word	0x00000e61

00000e88 <timer_add_timer_task>:
     e88:	b5f0      	push	{r4, r5, r6, r7, lr}
     e8a:	6805      	ldr	r5, [r0, #0]
     e8c:	b91d      	cbnz	r5, e96 <timer_add_timer_task+0xe>
     e8e:	4b0f      	ldr	r3, [pc, #60]	; (ecc <timer_add_timer_task+0x44>)
     e90:	e8bd 40f0 	ldmia.w	sp!, {r4, r5, r6, r7, lr}
     e94:	4718      	bx	r3
     e96:	f8d1 e008 	ldr.w	lr, [r1, #8]
     e9a:	462c      	mov	r4, r5
     e9c:	2600      	movs	r6, #0
     e9e:	f1c2 0c01 	rsb	ip, r2, #1
     ea2:	6863      	ldr	r3, [r4, #4]
     ea4:	68a7      	ldr	r7, [r4, #8]
     ea6:	4293      	cmp	r3, r2
     ea8:	bf95      	itete	ls
     eaa:	19db      	addls	r3, r3, r7
     eac:	4463      	addhi	r3, ip
     eae:	1a9b      	subls	r3, r3, r2
     eb0:	19db      	addhi	r3, r3, r7
     eb2:	4573      	cmp	r3, lr
     eb4:	d207      	bcs.n	ec6 <timer_add_timer_task+0x3e>
     eb6:	6823      	ldr	r3, [r4, #0]
     eb8:	4626      	mov	r6, r4
     eba:	b913      	cbnz	r3, ec2 <timer_add_timer_task+0x3a>
     ebc:	4630      	mov	r0, r6
     ebe:	4b04      	ldr	r3, [pc, #16]	; (ed0 <timer_add_timer_task+0x48>)
     ec0:	e7e6      	b.n	e90 <timer_add_timer_task+0x8>
     ec2:	461c      	mov	r4, r3
     ec4:	e7ed      	b.n	ea2 <timer_add_timer_task+0x1a>
     ec6:	42a5      	cmp	r5, r4
     ec8:	d1f8      	bne.n	ebc <timer_add_timer_task+0x34>
     eca:	e7e0      	b.n	e8e <timer_add_timer_task+0x6>
     ecc:	00000f5d 	.word	0x00000f5d
     ed0:	00000f65 	.word	0x00000f65

00000ed4 <timer_process_counted>:
     ed4:	e92d 47f0 	stmdb	sp!, {r4, r5, r6, r7, r8, r9, sl, lr}
     ed8:	6906      	ldr	r6, [r0, #16]
     eda:	7e03      	ldrb	r3, [r0, #24]
     edc:	6944      	ldr	r4, [r0, #20]
     ede:	3601      	adds	r6, #1
     ee0:	07da      	lsls	r2, r3, #31
     ee2:	4605      	mov	r5, r0
     ee4:	6106      	str	r6, [r0, #16]
     ee6:	d410      	bmi.n	f0a <timer_process_counted+0x36>
     ee8:	7e03      	ldrb	r3, [r0, #24]
     eea:	079b      	lsls	r3, r3, #30
     eec:	d40d      	bmi.n	f0a <timer_process_counted+0x36>
     eee:	f8df 8048 	ldr.w	r8, [pc, #72]	; f38 <timer_process_counted+0x64>
     ef2:	f8df 9048 	ldr.w	r9, [pc, #72]	; f3c <timer_process_counted+0x68>
     ef6:	f100 0714 	add.w	r7, r0, #20
     efa:	b124      	cbz	r4, f06 <timer_process_counted+0x32>
     efc:	6863      	ldr	r3, [r4, #4]
     efe:	68a2      	ldr	r2, [r4, #8]
     f00:	1af3      	subs	r3, r6, r3
     f02:	4293      	cmp	r3, r2
     f04:	d207      	bcs.n	f16 <timer_process_counted+0x42>
     f06:	e8bd 87f0 	ldmia.w	sp!, {r4, r5, r6, r7, r8, r9, sl, pc}
     f0a:	7e2b      	ldrb	r3, [r5, #24]
     f0c:	f043 0302 	orr.w	r3, r3, #2
     f10:	762b      	strb	r3, [r5, #24]
     f12:	e8bd 87f0 	ldmia.w	sp!, {r4, r5, r6, r7, r8, r9, sl, pc}
     f16:	4638      	mov	r0, r7
     f18:	47c0      	blx	r8
     f1a:	7c23      	ldrb	r3, [r4, #16]
     f1c:	2b01      	cmp	r3, #1
     f1e:	d104      	bne.n	f2a <timer_process_counted+0x56>
     f20:	6066      	str	r6, [r4, #4]
     f22:	4632      	mov	r2, r6
     f24:	4621      	mov	r1, r4
     f26:	4638      	mov	r0, r7
     f28:	47c8      	blx	r9
     f2a:	f8d5 a014 	ldr.w	sl, [r5, #20]
     f2e:	68e3      	ldr	r3, [r4, #12]
     f30:	4620      	mov	r0, r4
     f32:	4798      	blx	r3
     f34:	4654      	mov	r4, sl
     f36:	e7e0      	b.n	efa <timer_process_counted+0x26>
     f38:	00000f6d 	.word	0x00000f6d
     f3c:	00000e89 	.word	0x00000e89

00000f40 <timer_init>:
     f40:	b510      	push	{r4, lr}
     f42:	6813      	ldr	r3, [r2, #0]
     f44:	4604      	mov	r4, r0
     f46:	f840 2b04 	str.w	r2, [r0], #4
     f4a:	4798      	blx	r3
     f4c:	2000      	movs	r0, #0
     f4e:	4b02      	ldr	r3, [pc, #8]	; (f58 <timer_init+0x18>)
     f50:	6160      	str	r0, [r4, #20]
     f52:	6063      	str	r3, [r4, #4]
     f54:	bd10      	pop	{r4, pc}
     f56:	bf00      	nop
     f58:	00000ed5 	.word	0x00000ed5

00000f5c <list_insert_as_head>:
     f5c:	6803      	ldr	r3, [r0, #0]
     f5e:	600b      	str	r3, [r1, #0]
     f60:	6001      	str	r1, [r0, #0]
     f62:	4770      	bx	lr

00000f64 <list_insert_after>:
     f64:	6803      	ldr	r3, [r0, #0]
     f66:	600b      	str	r3, [r1, #0]
     f68:	6001      	str	r1, [r0, #0]
     f6a:	4770      	bx	lr

00000f6c <list_remove_head>:
     f6c:	6803      	ldr	r3, [r0, #0]
     f6e:	b10b      	cbz	r3, f74 <list_remove_head+0x8>
     f70:	681a      	ldr	r2, [r3, #0]
     f72:	6002      	str	r2, [r0, #0]
     f74:	4618      	mov	r0, r3
     f76:	4770      	bx	lr

00000f78 <hri_ac_wait_for_sync>:
     f78:	6a03      	ldr	r3, [r0, #32]
     f7a:	420b      	tst	r3, r1
     f7c:	d1fc      	bne.n	f78 <hri_ac_wait_for_sync>
     f7e:	4770      	bx	lr

00000f80 <_ac_init>:
     f80:	b538      	push	{r3, r4, r5, lr}
     f82:	2101      	movs	r1, #1
     f84:	4d0d      	ldr	r5, [pc, #52]	; (fbc <_ac_init+0x3c>)
     f86:	47a8      	blx	r5
     f88:	2103      	movs	r1, #3
     f8a:	47a8      	blx	r5
     f8c:	7804      	ldrb	r4, [r0, #0]
     f8e:	f3c4 0440 	ubfx	r4, r4, #1, #1
     f92:	b984      	cbnz	r4, fb6 <_ac_init+0x36>
     f94:	2101      	movs	r1, #1
     f96:	47a8      	blx	r5
     f98:	7803      	ldrb	r3, [r0, #0]
     f9a:	f043 0301 	orr.w	r3, r3, #1
     f9e:	7003      	strb	r3, [r0, #0]
     fa0:	2101      	movs	r1, #1
     fa2:	47a8      	blx	r5
     fa4:	f44f 63c0 	mov.w	r3, #1536	; 0x600
     fa8:	6103      	str	r3, [r0, #16]
     faa:	7304      	strb	r4, [r0, #12]
     fac:	6143      	str	r3, [r0, #20]
     fae:	7344      	strb	r4, [r0, #13]
     fb0:	8044      	strh	r4, [r0, #2]
     fb2:	4620      	mov	r0, r4
     fb4:	bd38      	pop	{r3, r4, r5, pc}
     fb6:	f06f 0010 	mvn.w	r0, #16
     fba:	bd38      	pop	{r3, r4, r5, pc}
     fbc:	00000f79 	.word	0x00000f79

00000fc0 <_ac_sync_init>:
     fc0:	6001      	str	r1, [r0, #0]
     fc2:	4b01      	ldr	r3, [pc, #4]	; (fc8 <_ac_sync_init+0x8>)
     fc4:	4608      	mov	r0, r1
     fc6:	4718      	bx	r3
     fc8:	00000f81 	.word	0x00000f81

00000fcc <hri_adc_wait_for_sync>:
     fcc:	6b03      	ldr	r3, [r0, #48]	; 0x30
     fce:	420b      	tst	r3, r1
     fd0:	d1fc      	bne.n	fcc <hri_adc_wait_for_sync>
     fd2:	4770      	bx	lr

00000fd4 <hri_adc_set_CTRLA_SWRST_bit>:
     fd4:	b508      	push	{r3, lr}
     fd6:	2101      	movs	r1, #1
     fd8:	4b03      	ldr	r3, [pc, #12]	; (fe8 <hri_adc_set_CTRLA_SWRST_bit+0x14>)
     fda:	4798      	blx	r3
     fdc:	8803      	ldrh	r3, [r0, #0]
     fde:	b29b      	uxth	r3, r3
     fe0:	f043 0301 	orr.w	r3, r3, #1
     fe4:	8003      	strh	r3, [r0, #0]
     fe6:	bd08      	pop	{r3, pc}
     fe8:	00000fcd 	.word	0x00000fcd

00000fec <_adc_get_regs>:
     fec:	f100 403d 	add.w	r0, r0, #3170893824	; 0xbd000000
     ff0:	f5a0 50e0 	sub.w	r0, r0, #7168	; 0x1c00
     ff4:	f3c0 2087 	ubfx	r0, r0, #10, #8
     ff8:	1e43      	subs	r3, r0, #1
     ffa:	4258      	negs	r0, r3
     ffc:	4158      	adcs	r0, r3
     ffe:	4770      	bx	lr

00001000 <_adc_init>:
    1000:	b570      	push	{r4, r5, r6, lr}
    1002:	4e17      	ldr	r6, [pc, #92]	; (1060 <_adc_init+0x60>)
    1004:	460c      	mov	r4, r1
    1006:	2101      	movs	r1, #1
    1008:	47b0      	blx	r6
    100a:	2103      	movs	r1, #3
    100c:	47b0      	blx	r6
    100e:	8805      	ldrh	r5, [r0, #0]
    1010:	f3c5 0540 	ubfx	r5, r5, #1, #1
    1014:	bb0d      	cbnz	r5, 105a <_adc_init+0x5a>
    1016:	4b13      	ldr	r3, [pc, #76]	; (1064 <_adc_init+0x64>)
    1018:	4798      	blx	r3
    101a:	2101      	movs	r1, #1
    101c:	47b0      	blx	r6
    101e:	4912      	ldr	r1, [pc, #72]	; (1068 <_adc_init+0x68>)
    1020:	2316      	movs	r3, #22
    1022:	fb03 1104 	mla	r1, r3, r4, r1
    1026:	888b      	ldrh	r3, [r1, #4]
    1028:	80c3      	strh	r3, [r0, #6]
    102a:	798b      	ldrb	r3, [r1, #6]
    102c:	7203      	strb	r3, [r0, #8]
    102e:	79cb      	ldrb	r3, [r1, #7]
    1030:	7083      	strb	r3, [r0, #2]
    1032:	890b      	ldrh	r3, [r1, #8]
    1034:	8083      	strh	r3, [r0, #4]
    1036:	7a8b      	ldrb	r3, [r1, #10]
    1038:	7283      	strb	r3, [r0, #10]
    103a:	7acb      	ldrb	r3, [r1, #11]
    103c:	72c3      	strb	r3, [r0, #11]
    103e:	898b      	ldrh	r3, [r1, #12]
    1040:	8183      	strh	r3, [r0, #12]
    1042:	89cb      	ldrh	r3, [r1, #14]
    1044:	81c3      	strh	r3, [r0, #14]
    1046:	8a0b      	ldrh	r3, [r1, #16]
    1048:	8203      	strh	r3, [r0, #16]
    104a:	8a4b      	ldrh	r3, [r1, #18]
    104c:	8243      	strh	r3, [r0, #18]
    104e:	7d0b      	ldrb	r3, [r1, #20]
    1050:	70c3      	strb	r3, [r0, #3]
    1052:	884b      	ldrh	r3, [r1, #2]
    1054:	8003      	strh	r3, [r0, #0]
    1056:	4628      	mov	r0, r5
    1058:	bd70      	pop	{r4, r5, r6, pc}
    105a:	f06f 0010 	mvn.w	r0, #16
    105e:	bd70      	pop	{r4, r5, r6, pc}
    1060:	00000fcd 	.word	0x00000fcd
    1064:	00000fd5 	.word	0x00000fd5
    1068:	00002492 	.word	0x00002492

0000106c <_adc_sync_init>:
    106c:	b510      	push	{r4, lr}
    106e:	4b05      	ldr	r3, [pc, #20]	; (1084 <_adc_sync_init+0x18>)
    1070:	6001      	str	r1, [r0, #0]
    1072:	4608      	mov	r0, r1
    1074:	460a      	mov	r2, r1
    1076:	4798      	blx	r3
    1078:	4b03      	ldr	r3, [pc, #12]	; (1088 <_adc_sync_init+0x1c>)
    107a:	4601      	mov	r1, r0
    107c:	e8bd 4010 	ldmia.w	sp!, {r4, lr}
    1080:	4610      	mov	r0, r2
    1082:	4718      	bx	r3
    1084:	00000fed 	.word	0x00000fed
    1088:	00001001 	.word	0x00001001

0000108c <_irq_set>:
    108c:	0943      	lsrs	r3, r0, #5
    108e:	2201      	movs	r2, #1
    1090:	f000 001f 	and.w	r0, r0, #31
    1094:	fa02 f000 	lsl.w	r0, r2, r0
    1098:	3340      	adds	r3, #64	; 0x40
    109a:	4a02      	ldr	r2, [pc, #8]	; (10a4 <_irq_set+0x18>)
    109c:	f842 0023 	str.w	r0, [r2, r3, lsl #2]
    10a0:	4770      	bx	lr
    10a2:	bf00      	nop
    10a4:	e000e100 	.word	0xe000e100

000010a8 <_get_cycles_for_ms>:
    10a8:	f64b 3380 	movw	r3, #48000	; 0xbb80
    10ac:	4358      	muls	r0, r3
    10ae:	4770      	bx	lr

000010b0 <_init_chip>:
    10b0:	b510      	push	{r4, lr}
    10b2:	4a0d      	ldr	r2, [pc, #52]	; (10e8 <_init_chip+0x38>)
    10b4:	4c0d      	ldr	r4, [pc, #52]	; (10ec <_init_chip+0x3c>)
    10b6:	8813      	ldrh	r3, [r2, #0]
    10b8:	b29b      	uxth	r3, r3
    10ba:	8013      	strh	r3, [r2, #0]
    10bc:	4b0c      	ldr	r3, [pc, #48]	; (10f0 <_init_chip+0x40>)
    10be:	4798      	blx	r3
    10c0:	4b0c      	ldr	r3, [pc, #48]	; (10f4 <_init_chip+0x44>)
    10c2:	4798      	blx	r3
    10c4:	f44f 6000 	mov.w	r0, #2048	; 0x800
    10c8:	47a0      	blx	r4
    10ca:	4b0b      	ldr	r3, [pc, #44]	; (10f8 <_init_chip+0x48>)
    10cc:	4798      	blx	r3
    10ce:	f240 70ff 	movw	r0, #2047	; 0x7ff
    10d2:	47a0      	blx	r4
    10d4:	4a09      	ldr	r2, [pc, #36]	; (10fc <_init_chip+0x4c>)
    10d6:	6913      	ldr	r3, [r2, #16]
    10d8:	f443 7300 	orr.w	r3, r3, #512	; 0x200
    10dc:	6113      	str	r3, [r2, #16]
    10de:	e8bd 4010 	ldmia.w	sp!, {r4, lr}
    10e2:	4b07      	ldr	r3, [pc, #28]	; (1100 <_init_chip+0x50>)
    10e4:	4718      	bx	r3
    10e6:	bf00      	nop
    10e8:	41004000 	.word	0x41004000
    10ec:	0000135d 	.word	0x0000135d
    10f0:	00001479 	.word	0x00001479
    10f4:	000013ed 	.word	0x000013ed
    10f8:	00001499 	.word	0x00001499
    10fc:	40000800 	.word	0x40000800
    1100:	000011a9 	.word	0x000011a9

00001104 <hri_dac_wait_for_sync>:
    1104:	6883      	ldr	r3, [r0, #8]
    1106:	420b      	tst	r3, r1
    1108:	d1fc      	bne.n	1104 <hri_dac_wait_for_sync>
    110a:	4770      	bx	lr

0000110c <_dac_init>:
    110c:	b538      	push	{r3, r4, r5, lr}
    110e:	2101      	movs	r1, #1
    1110:	4d0d      	ldr	r5, [pc, #52]	; (1148 <_dac_init+0x3c>)
    1112:	47a8      	blx	r5
    1114:	2103      	movs	r1, #3
    1116:	47a8      	blx	r5
    1118:	7802      	ldrb	r2, [r0, #0]
    111a:	f3c2 0240 	ubfx	r2, r2, #1, #1
    111e:	b97a      	cbnz	r2, 1140 <_dac_init+0x34>
    1120:	2101      	movs	r1, #1
    1122:	47a8      	blx	r5
    1124:	7803      	ldrb	r3, [r0, #0]
    1126:	f043 0301 	orr.w	r3, r3, #1
    112a:	7003      	strb	r3, [r0, #0]
    112c:	2101      	movs	r1, #1
    112e:	47a8      	blx	r5
    1130:	2301      	movs	r3, #1
    1132:	7042      	strb	r2, [r0, #1]
    1134:	7082      	strb	r2, [r0, #2]
    1136:	8182      	strh	r2, [r0, #12]
    1138:	81c2      	strh	r2, [r0, #14]
    113a:	7603      	strb	r3, [r0, #24]
    113c:	4610      	mov	r0, r2
    113e:	bd38      	pop	{r3, r4, r5, pc}
    1140:	f06f 0003 	mvn.w	r0, #3
    1144:	bd38      	pop	{r3, r4, r5, pc}
    1146:	bf00      	nop
    1148:	00001105 	.word	0x00001105

0000114c <_dac_sync_init>:
    114c:	6001      	str	r1, [r0, #0]
    114e:	4b01      	ldr	r3, [pc, #4]	; (1154 <_dac_sync_init+0x8>)
    1150:	4608      	mov	r0, r1
    1152:	4718      	bx	r3
    1154:	0000110d 	.word	0x0000110d

00001158 <_dmac_handler>:
    1158:	b410      	push	{r4}
    115a:	4b11      	ldr	r3, [pc, #68]	; (11a0 <_dmac_handler+0x48>)
    115c:	4c11      	ldr	r4, [pc, #68]	; (11a4 <_dmac_handler+0x4c>)
    115e:	8c19      	ldrh	r1, [r3, #32]
    1160:	f001 011f 	and.w	r1, r1, #31
    1164:	eb03 1301 	add.w	r3, r3, r1, lsl #4
    1168:	220c      	movs	r2, #12
    116a:	434a      	muls	r2, r1
    116c:	f893 104e 	ldrb.w	r1, [r3, #78]	; 0x4e
    1170:	07c9      	lsls	r1, r1, #31
    1172:	eb04 0002 	add.w	r0, r4, r2
    1176:	d506      	bpl.n	1186 <_dmac_handler+0x2e>
    1178:	2201      	movs	r2, #1
    117a:	f883 204e 	strb.w	r2, [r3, #78]	; 0x4e
    117e:	6843      	ldr	r3, [r0, #4]
    1180:	f85d 4b04 	ldr.w	r4, [sp], #4
    1184:	4718      	bx	r3
    1186:	f893 104e 	ldrb.w	r1, [r3, #78]	; 0x4e
    118a:	0789      	lsls	r1, r1, #30
    118c:	d504      	bpl.n	1198 <_dmac_handler+0x40>
    118e:	2102      	movs	r1, #2
    1190:	f883 104e 	strb.w	r1, [r3, #78]	; 0x4e
    1194:	58a3      	ldr	r3, [r4, r2]
    1196:	e7f3      	b.n	1180 <_dmac_handler+0x28>
    1198:	f85d 4b04 	ldr.w	r4, [sp], #4
    119c:	4770      	bx	lr
    119e:	bf00      	nop
    11a0:	4100a000 	.word	0x4100a000
    11a4:	20000120 	.word	0x20000120

000011a8 <_dma_init>:
    11a8:	b530      	push	{r4, r5, lr}
    11aa:	4b2e      	ldr	r3, [pc, #184]	; (1264 <_dma_init+0xbc>)
    11ac:	881a      	ldrh	r2, [r3, #0]
    11ae:	f022 0202 	bic.w	r2, r2, #2
    11b2:	0412      	lsls	r2, r2, #16
    11b4:	0c12      	lsrs	r2, r2, #16
    11b6:	801a      	strh	r2, [r3, #0]
    11b8:	885a      	ldrh	r2, [r3, #2]
    11ba:	f422 527c 	bic.w	r2, r2, #16128	; 0x3f00
    11be:	0412      	lsls	r2, r2, #16
    11c0:	0c12      	lsrs	r2, r2, #16
    11c2:	805a      	strh	r2, [r3, #2]
    11c4:	881a      	ldrh	r2, [r3, #0]
    11c6:	b292      	uxth	r2, r2
    11c8:	f042 0201 	orr.w	r2, r2, #1
    11cc:	801a      	strh	r2, [r3, #0]
    11ce:	881a      	ldrh	r2, [r3, #0]
    11d0:	f012 0201 	ands.w	r2, r2, #1
    11d4:	d1fb      	bne.n	11ce <_dma_init+0x26>
    11d6:	f44f 6170 	mov.w	r1, #3840	; 0xf00
    11da:	8019      	strh	r1, [r3, #0]
    11dc:	7b59      	ldrb	r1, [r3, #13]
    11de:	4822      	ldr	r0, [pc, #136]	; (1268 <_dma_init+0xc0>)
    11e0:	f001 01fe 	and.w	r1, r1, #254	; 0xfe
    11e4:	7359      	strb	r1, [r3, #13]
    11e6:	f500 7100 	add.w	r1, r0, #512	; 0x200
    11ea:	615a      	str	r2, [r3, #20]
    11ec:	6358      	str	r0, [r3, #52]	; 0x34
    11ee:	6399      	str	r1, [r3, #56]	; 0x38
    11f0:	491e      	ldr	r1, [pc, #120]	; (126c <_dma_init+0xc4>)
    11f2:	4613      	mov	r3, r2
    11f4:	f5a0 70c0 	sub.w	r0, r0, #384	; 0x180
    11f8:	011c      	lsls	r4, r3, #4
    11fa:	f104 4282 	add.w	r2, r4, #1090519040	; 0x41000000
    11fe:	f502 4220 	add.w	r2, r2, #40960	; 0xa000
    1202:	680d      	ldr	r5, [r1, #0]
    1204:	6415      	str	r5, [r2, #64]	; 0x40
    1206:	790d      	ldrb	r5, [r1, #4]
    1208:	f882 5045 	strb.w	r5, [r2, #69]	; 0x45
    120c:	794d      	ldrb	r5, [r1, #5]
    120e:	f882 5046 	strb.w	r5, [r2, #70]	; 0x46
    1212:	4404      	add	r4, r0
    1214:	3301      	adds	r3, #1
    1216:	88ca      	ldrh	r2, [r1, #6]
    1218:	f8a4 2180 	strh.w	r2, [r4, #384]	; 0x180
    121c:	2b20      	cmp	r3, #32
    121e:	f101 0108 	add.w	r1, r1, #8
    1222:	d1e9      	bne.n	11f8 <_dma_init+0x50>
    1224:	221f      	movs	r2, #31
    1226:	2001      	movs	r0, #1
    1228:	0953      	lsrs	r3, r2, #5
    122a:	009b      	lsls	r3, r3, #2
    122c:	f103 4360 	add.w	r3, r3, #3758096384	; 0xe0000000
    1230:	f002 011f 	and.w	r1, r2, #31
    1234:	f503 4361 	add.w	r3, r3, #57600	; 0xe100
    1238:	fa00 f101 	lsl.w	r1, r0, r1
    123c:	f8c3 1080 	str.w	r1, [r3, #128]	; 0x80
    1240:	f3bf 8f4f 	dsb	sy
    1244:	f3bf 8f6f 	isb	sy
    1248:	3201      	adds	r2, #1
    124a:	2a24      	cmp	r2, #36	; 0x24
    124c:	f8c3 1180 	str.w	r1, [r3, #384]	; 0x180
    1250:	6019      	str	r1, [r3, #0]
    1252:	d1e9      	bne.n	1228 <_dma_init+0x80>
    1254:	4a03      	ldr	r2, [pc, #12]	; (1264 <_dma_init+0xbc>)
    1256:	8813      	ldrh	r3, [r2, #0]
    1258:	b29b      	uxth	r3, r3
    125a:	f043 0302 	orr.w	r3, r3, #2
    125e:	8013      	strh	r3, [r2, #0]
    1260:	2000      	movs	r0, #0
    1262:	bd30      	pop	{r4, r5, pc}
    1264:	4100a000 	.word	0x4100a000
    1268:	200002a0 	.word	0x200002a0
    126c:	000024c0 	.word	0x000024c0

00001270 <DMAC_0_Handler>:
    1270:	4b00      	ldr	r3, [pc, #0]	; (1274 <DMAC_0_Handler+0x4>)
    1272:	4718      	bx	r3
    1274:	00001159 	.word	0x00001159

00001278 <DMAC_1_Handler>:
    1278:	4b00      	ldr	r3, [pc, #0]	; (127c <DMAC_1_Handler+0x4>)
    127a:	4718      	bx	r3
    127c:	00001159 	.word	0x00001159

00001280 <DMAC_2_Handler>:
    1280:	4b00      	ldr	r3, [pc, #0]	; (1284 <DMAC_2_Handler+0x4>)
    1282:	4718      	bx	r3
    1284:	00001159 	.word	0x00001159

00001288 <DMAC_3_Handler>:
    1288:	4b00      	ldr	r3, [pc, #0]	; (128c <DMAC_3_Handler+0x4>)
    128a:	4718      	bx	r3
    128c:	00001159 	.word	0x00001159

00001290 <DMAC_4_Handler>:
    1290:	4b00      	ldr	r3, [pc, #0]	; (1294 <DMAC_4_Handler+0x4>)
    1292:	4718      	bx	r3
    1294:	00001159 	.word	0x00001159

00001298 <_ext_irq_init>:
    1298:	4a19      	ldr	r2, [pc, #100]	; (1300 <_ext_irq_init+0x68>)
    129a:	4613      	mov	r3, r2
    129c:	6851      	ldr	r1, [r2, #4]
    129e:	07c9      	lsls	r1, r1, #31
    12a0:	d4fc      	bmi.n	129c <_ext_irq_init+0x4>
    12a2:	685a      	ldr	r2, [r3, #4]
    12a4:	0790      	lsls	r0, r2, #30
    12a6:	d1fc      	bne.n	12a2 <_ext_irq_init+0xa>
    12a8:	781b      	ldrb	r3, [r3, #0]
    12aa:	0799      	lsls	r1, r3, #30
    12ac:	d425      	bmi.n	12fa <_ext_irq_init+0x62>
    12ae:	4b14      	ldr	r3, [pc, #80]	; (1300 <_ext_irq_init+0x68>)
    12b0:	4619      	mov	r1, r3
    12b2:	685a      	ldr	r2, [r3, #4]
    12b4:	07d2      	lsls	r2, r2, #31
    12b6:	d4fc      	bmi.n	12b2 <_ext_irq_init+0x1a>
    12b8:	781a      	ldrb	r2, [r3, #0]
    12ba:	f042 0201 	orr.w	r2, r2, #1
    12be:	701a      	strb	r2, [r3, #0]
    12c0:	684b      	ldr	r3, [r1, #4]
    12c2:	07db      	lsls	r3, r3, #31
    12c4:	d4fc      	bmi.n	12c0 <_ext_irq_init+0x28>
    12c6:	4b0e      	ldr	r3, [pc, #56]	; (1300 <_ext_irq_init+0x68>)
    12c8:	685a      	ldr	r2, [r3, #4]
    12ca:	f012 0203 	ands.w	r2, r2, #3
    12ce:	d1fb      	bne.n	12c8 <_ext_irq_init+0x30>
    12d0:	7819      	ldrb	r1, [r3, #0]
    12d2:	f001 01ef 	and.w	r1, r1, #239	; 0xef
    12d6:	7019      	strb	r1, [r3, #0]
    12d8:	705a      	strb	r2, [r3, #1]
    12da:	609a      	str	r2, [r3, #8]
    12dc:	619a      	str	r2, [r3, #24]
    12de:	631a      	str	r2, [r3, #48]	; 0x30
    12e0:	635a      	str	r2, [r3, #52]	; 0x34
    12e2:	61da      	str	r2, [r3, #28]
    12e4:	621a      	str	r2, [r3, #32]
    12e6:	4b06      	ldr	r3, [pc, #24]	; (1300 <_ext_irq_init+0x68>)
    12e8:	6858      	ldr	r0, [r3, #4]
    12ea:	f010 0003 	ands.w	r0, r0, #3
    12ee:	d1fb      	bne.n	12e8 <_ext_irq_init+0x50>
    12f0:	781a      	ldrb	r2, [r3, #0]
    12f2:	f042 0202 	orr.w	r2, r2, #2
    12f6:	701a      	strb	r2, [r3, #0]
    12f8:	4770      	bx	lr
    12fa:	f06f 0010 	mvn.w	r0, #16
    12fe:	4770      	bx	lr
    1300:	40002800 	.word	0x40002800

00001304 <_event_system_init>:
    1304:	b510      	push	{r4, lr}
    1306:	4a12      	ldr	r2, [pc, #72]	; (1350 <_event_system_init+0x4c>)
    1308:	4c12      	ldr	r4, [pc, #72]	; (1354 <_event_system_init+0x50>)
    130a:	2300      	movs	r3, #0
    130c:	5d18      	ldrb	r0, [r3, r4]
    130e:	f103 0148 	add.w	r1, r3, #72	; 0x48
    1312:	3301      	adds	r3, #1
    1314:	2b43      	cmp	r3, #67	; 0x43
    1316:	f842 0021 	str.w	r0, [r2, r1, lsl #2]
    131a:	d1f7      	bne.n	130c <_event_system_init+0x8>
    131c:	480e      	ldr	r0, [pc, #56]	; (1358 <_event_system_init+0x54>)
    131e:	2200      	movs	r2, #0
    1320:	f100 0440 	add.w	r4, r0, #64	; 0x40
    1324:	00d3      	lsls	r3, r2, #3
    1326:	f103 4382 	add.w	r3, r3, #1090519040	; 0x41000000
    132a:	f503 4360 	add.w	r3, r3, #57344	; 0xe000
    132e:	f830 1012 	ldrh.w	r1, [r0, r2, lsl #1]
    1332:	6219      	str	r1, [r3, #32]
    1334:	f814 1022 	ldrb.w	r1, [r4, r2, lsl #2]
    1338:	f883 1025 	strb.w	r1, [r3, #37]	; 0x25
    133c:	3201      	adds	r2, #1
    133e:	43c9      	mvns	r1, r1
    1340:	b2c9      	uxtb	r1, r1
    1342:	2a20      	cmp	r2, #32
    1344:	f883 1024 	strb.w	r1, [r3, #36]	; 0x24
    1348:	d1ec      	bne.n	1324 <_event_system_init+0x20>
    134a:	2000      	movs	r0, #0
    134c:	bd10      	pop	{r4, pc}
    134e:	bf00      	nop
    1350:	4100e000 	.word	0x4100e000
    1354:	000025c0 	.word	0x000025c0
    1358:	00002604 	.word	0x00002604

0000135c <_gclk_init_generators_by_fref>:
    135c:	07c1      	lsls	r1, r0, #31
    135e:	bf42      	ittt	mi
    1360:	4b1d      	ldrmi	r3, [pc, #116]	; (13d8 <_gclk_init_generators_by_fref+0x7c>)
    1362:	4a1e      	ldrmi	r2, [pc, #120]	; (13dc <_gclk_init_generators_by_fref+0x80>)
    1364:	621a      	strmi	r2, [r3, #32]
    1366:	0782      	lsls	r2, r0, #30
    1368:	bf42      	ittt	mi
    136a:	4b1b      	ldrmi	r3, [pc, #108]	; (13d8 <_gclk_init_generators_by_fref+0x7c>)
    136c:	4a1c      	ldrmi	r2, [pc, #112]	; (13e0 <_gclk_init_generators_by_fref+0x84>)
    136e:	625a      	strmi	r2, [r3, #36]	; 0x24
    1370:	0743      	lsls	r3, r0, #29
    1372:	bf42      	ittt	mi
    1374:	4b18      	ldrmi	r3, [pc, #96]	; (13d8 <_gclk_init_generators_by_fref+0x7c>)
    1376:	4a19      	ldrmi	r2, [pc, #100]	; (13dc <_gclk_init_generators_by_fref+0x80>)
    1378:	629a      	strmi	r2, [r3, #40]	; 0x28
    137a:	0701      	lsls	r1, r0, #28
    137c:	bf42      	ittt	mi
    137e:	4b16      	ldrmi	r3, [pc, #88]	; (13d8 <_gclk_init_generators_by_fref+0x7c>)
    1380:	4a16      	ldrmi	r2, [pc, #88]	; (13dc <_gclk_init_generators_by_fref+0x80>)
    1382:	62da      	strmi	r2, [r3, #44]	; 0x2c
    1384:	06c2      	lsls	r2, r0, #27
    1386:	bf42      	ittt	mi
    1388:	4b13      	ldrmi	r3, [pc, #76]	; (13d8 <_gclk_init_generators_by_fref+0x7c>)
    138a:	4a14      	ldrmi	r2, [pc, #80]	; (13dc <_gclk_init_generators_by_fref+0x80>)
    138c:	631a      	strmi	r2, [r3, #48]	; 0x30
    138e:	0683      	lsls	r3, r0, #26
    1390:	bf42      	ittt	mi
    1392:	4b11      	ldrmi	r3, [pc, #68]	; (13d8 <_gclk_init_generators_by_fref+0x7c>)
    1394:	4a11      	ldrmi	r2, [pc, #68]	; (13dc <_gclk_init_generators_by_fref+0x80>)
    1396:	635a      	strmi	r2, [r3, #52]	; 0x34
    1398:	0641      	lsls	r1, r0, #25
    139a:	bf42      	ittt	mi
    139c:	4b0e      	ldrmi	r3, [pc, #56]	; (13d8 <_gclk_init_generators_by_fref+0x7c>)
    139e:	4a0f      	ldrmi	r2, [pc, #60]	; (13dc <_gclk_init_generators_by_fref+0x80>)
    13a0:	639a      	strmi	r2, [r3, #56]	; 0x38
    13a2:	0602      	lsls	r2, r0, #24
    13a4:	bf42      	ittt	mi
    13a6:	4b0c      	ldrmi	r3, [pc, #48]	; (13d8 <_gclk_init_generators_by_fref+0x7c>)
    13a8:	4a0c      	ldrmi	r2, [pc, #48]	; (13dc <_gclk_init_generators_by_fref+0x80>)
    13aa:	63da      	strmi	r2, [r3, #60]	; 0x3c
    13ac:	05c3      	lsls	r3, r0, #23
    13ae:	bf42      	ittt	mi
    13b0:	4b09      	ldrmi	r3, [pc, #36]	; (13d8 <_gclk_init_generators_by_fref+0x7c>)
    13b2:	4a0a      	ldrmi	r2, [pc, #40]	; (13dc <_gclk_init_generators_by_fref+0x80>)
    13b4:	641a      	strmi	r2, [r3, #64]	; 0x40
    13b6:	0581      	lsls	r1, r0, #22
    13b8:	bf42      	ittt	mi
    13ba:	4b07      	ldrmi	r3, [pc, #28]	; (13d8 <_gclk_init_generators_by_fref+0x7c>)
    13bc:	4a07      	ldrmi	r2, [pc, #28]	; (13dc <_gclk_init_generators_by_fref+0x80>)
    13be:	645a      	strmi	r2, [r3, #68]	; 0x44
    13c0:	0542      	lsls	r2, r0, #21
    13c2:	bf42      	ittt	mi
    13c4:	4b04      	ldrmi	r3, [pc, #16]	; (13d8 <_gclk_init_generators_by_fref+0x7c>)
    13c6:	4a07      	ldrmi	r2, [pc, #28]	; (13e4 <_gclk_init_generators_by_fref+0x88>)
    13c8:	649a      	strmi	r2, [r3, #72]	; 0x48
    13ca:	0503      	lsls	r3, r0, #20
    13cc:	bf42      	ittt	mi
    13ce:	4b02      	ldrmi	r3, [pc, #8]	; (13d8 <_gclk_init_generators_by_fref+0x7c>)
    13d0:	4a05      	ldrmi	r2, [pc, #20]	; (13e8 <_gclk_init_generators_by_fref+0x8c>)
    13d2:	64da      	strmi	r2, [r3, #76]	; 0x4c
    13d4:	4770      	bx	lr
    13d6:	bf00      	nop
    13d8:	40001c00 	.word	0x40001c00
    13dc:	00012b06 	.word	0x00012b06
    13e0:	00012306 	.word	0x00012306
    13e4:	00012b05 	.word	0x00012b05
    13e8:	00013b05 	.word	0x00013b05

000013ec <_mclk_init>:
    13ec:	4b01      	ldr	r3, [pc, #4]	; (13f4 <_mclk_init+0x8>)
    13ee:	2201      	movs	r2, #1
    13f0:	715a      	strb	r2, [r3, #5]
    13f2:	4770      	bx	lr
    13f4:	40000800 	.word	0x40000800

000013f8 <_flash_init>:
    13f8:	6101      	str	r1, [r0, #16]
    13fa:	880b      	ldrh	r3, [r1, #0]
    13fc:	f023 03c0 	bic.w	r3, r3, #192	; 0xc0
    1400:	049b      	lsls	r3, r3, #18
    1402:	0c9b      	lsrs	r3, r3, #18
    1404:	800b      	strh	r3, [r1, #0]
    1406:	4b0d      	ldr	r3, [pc, #52]	; (143c <_flash_init+0x44>)
    1408:	6018      	str	r0, [r3, #0]
    140a:	4b0d      	ldr	r3, [pc, #52]	; (1440 <_flash_init+0x48>)
    140c:	f04f 5100 	mov.w	r1, #536870912	; 0x20000000
    1410:	f8c3 1080 	str.w	r1, [r3, #128]	; 0x80
    1414:	f3bf 8f4f 	dsb	sy
    1418:	f3bf 8f6f 	isb	sy
    141c:	f04f 4280 	mov.w	r2, #1073741824	; 0x40000000
    1420:	f8c3 2080 	str.w	r2, [r3, #128]	; 0x80
    1424:	f3bf 8f4f 	dsb	sy
    1428:	f3bf 8f6f 	isb	sy
    142c:	2000      	movs	r0, #0
    142e:	f8c3 1180 	str.w	r1, [r3, #384]	; 0x180
    1432:	f8c3 2180 	str.w	r2, [r3, #384]	; 0x180
    1436:	6019      	str	r1, [r3, #0]
    1438:	601a      	str	r2, [r3, #0]
    143a:	4770      	bx	lr
    143c:	200006a0 	.word	0x200006a0
    1440:	e000e100 	.word	0xe000e100

00001444 <NVMCTRL_1_Handler>:
    1444:	4b09      	ldr	r3, [pc, #36]	; (146c <NVMCTRL_1_Handler+0x28>)
    1446:	6818      	ldr	r0, [r3, #0]
    1448:	6903      	ldr	r3, [r0, #16]
    144a:	8a1a      	ldrh	r2, [r3, #16]
    144c:	07d2      	lsls	r2, r2, #31
    144e:	d504      	bpl.n	145a <NVMCTRL_1_Handler+0x16>
    1450:	2201      	movs	r2, #1
    1452:	821a      	strh	r2, [r3, #16]
    1454:	6803      	ldr	r3, [r0, #0]
    1456:	b143      	cbz	r3, 146a <NVMCTRL_1_Handler+0x26>
    1458:	4718      	bx	r3
    145a:	8a1a      	ldrh	r2, [r3, #16]
    145c:	b292      	uxth	r2, r2
    145e:	b122      	cbz	r2, 146a <NVMCTRL_1_Handler+0x26>
    1460:	f240 225e 	movw	r2, #606	; 0x25e
    1464:	821a      	strh	r2, [r3, #16]
    1466:	6843      	ldr	r3, [r0, #4]
    1468:	e7f5      	b.n	1456 <NVMCTRL_1_Handler+0x12>
    146a:	4770      	bx	lr
    146c:	200006a0 	.word	0x200006a0

00001470 <NVMCTRL_0_Handler>:
    1470:	4b00      	ldr	r3, [pc, #0]	; (1474 <NVMCTRL_0_Handler+0x4>)
    1472:	4718      	bx	r3
    1474:	00001445 	.word	0x00001445

00001478 <_osc32kctrl_init_sources>:
    1478:	4b06      	ldr	r3, [pc, #24]	; (1494 <_osc32kctrl_init_sources+0x1c>)
    147a:	f242 024e 	movw	r2, #8270	; 0x204e
    147e:	829a      	strh	r2, [r3, #20]
    1480:	2201      	movs	r2, #1
    1482:	759a      	strb	r2, [r3, #22]
    1484:	75da      	strb	r2, [r3, #23]
    1486:	68da      	ldr	r2, [r3, #12]
    1488:	07d2      	lsls	r2, r2, #31
    148a:	d5fc      	bpl.n	1486 <_osc32kctrl_init_sources+0xe>
    148c:	2205      	movs	r2, #5
    148e:	741a      	strb	r2, [r3, #16]
    1490:	4770      	bx	lr
    1492:	bf00      	nop
    1494:	40001400 	.word	0x40001400

00001498 <_oscctrl_init_referenced_generators>:
    1498:	4a24      	ldr	r2, [pc, #144]	; (152c <_oscctrl_init_referenced_generators+0x94>)
    149a:	6a13      	ldr	r3, [r2, #32]
    149c:	f023 030f 	bic.w	r3, r3, #15
    14a0:	f043 0304 	orr.w	r3, r3, #4
    14a4:	6213      	str	r3, [r2, #32]
    14a6:	4b22      	ldr	r3, [pc, #136]	; (1530 <_oscctrl_init_referenced_generators+0x98>)
    14a8:	2200      	movs	r2, #0
    14aa:	771a      	strb	r2, [r3, #28]
    14ac:	4a21      	ldr	r2, [pc, #132]	; (1534 <_oscctrl_init_referenced_generators+0x9c>)
    14ae:	629a      	str	r2, [r3, #40]	; 0x28
    14b0:	f893 202c 	ldrb.w	r2, [r3, #44]	; 0x2c
    14b4:	f012 0210 	ands.w	r2, r2, #16
    14b8:	d1fa      	bne.n	14b0 <_oscctrl_init_referenced_generators+0x18>
    14ba:	f883 2020 	strb.w	r2, [r3, #32]
    14be:	4a1c      	ldr	r2, [pc, #112]	; (1530 <_oscctrl_init_referenced_generators+0x98>)
    14c0:	4613      	mov	r3, r2
    14c2:	f892 102c 	ldrb.w	r1, [r2, #44]	; 0x2c
    14c6:	0749      	lsls	r1, r1, #29
    14c8:	d4fb      	bmi.n	14c2 <_oscctrl_init_referenced_generators+0x2a>
    14ca:	2142      	movs	r1, #66	; 0x42
    14cc:	7711      	strb	r1, [r2, #28]
    14ce:	f893 202c 	ldrb.w	r2, [r3, #44]	; 0x2c
    14d2:	0792      	lsls	r2, r2, #30
    14d4:	d4fb      	bmi.n	14ce <_oscctrl_init_referenced_generators+0x36>
    14d6:	6a5a      	ldr	r2, [r3, #36]	; 0x24
    14d8:	625a      	str	r2, [r3, #36]	; 0x24
    14da:	4b15      	ldr	r3, [pc, #84]	; (1530 <_oscctrl_init_referenced_generators+0x98>)
    14dc:	461a      	mov	r2, r3
    14de:	f893 102c 	ldrb.w	r1, [r3, #44]	; 0x2c
    14e2:	0708      	lsls	r0, r1, #28
    14e4:	d4fb      	bmi.n	14de <_oscctrl_init_referenced_generators+0x46>
    14e6:	2182      	movs	r1, #130	; 0x82
    14e8:	f883 1020 	strb.w	r1, [r3, #32]
    14ec:	f892 302c 	ldrb.w	r3, [r2, #44]	; 0x2c
    14f0:	0759      	lsls	r1, r3, #29
    14f2:	d4fb      	bmi.n	14ec <_oscctrl_init_referenced_generators+0x54>
    14f4:	f892 3020 	ldrb.w	r3, [r2, #32]
    14f8:	4a0d      	ldr	r2, [pc, #52]	; (1530 <_oscctrl_init_referenced_generators+0x98>)
    14fa:	f013 0f01 	tst.w	r3, #1
    14fe:	d010      	beq.n	1522 <_oscctrl_init_referenced_generators+0x8a>
    1500:	6913      	ldr	r3, [r2, #16]
    1502:	f403 6310 	and.w	r3, r3, #2304	; 0x900
    1506:	f5b3 6f10 	cmp.w	r3, #2304	; 0x900
    150a:	d1f9      	bne.n	1500 <_oscctrl_init_referenced_generators+0x68>
    150c:	4a07      	ldr	r2, [pc, #28]	; (152c <_oscctrl_init_referenced_generators+0x94>)
    150e:	6853      	ldr	r3, [r2, #4]
    1510:	2b00      	cmp	r3, #0
    1512:	d1fc      	bne.n	150e <_oscctrl_init_referenced_generators+0x76>
    1514:	6a13      	ldr	r3, [r2, #32]
    1516:	f023 030f 	bic.w	r3, r3, #15
    151a:	f043 0306 	orr.w	r3, r3, #6
    151e:	6213      	str	r3, [r2, #32]
    1520:	4770      	bx	lr
    1522:	6913      	ldr	r3, [r2, #16]
    1524:	05db      	lsls	r3, r3, #23
    1526:	d5fc      	bpl.n	1522 <_oscctrl_init_referenced_generators+0x8a>
    1528:	e7f0      	b.n	150c <_oscctrl_init_referenced_generators+0x74>
    152a:	bf00      	nop
    152c:	40001c00 	.word	0x40001c00
    1530:	40001000 	.word	0x40001000
    1534:	04010000 	.word	0x04010000

00001538 <RAMECC_Handler>:
    1538:	b507      	push	{r0, r1, r2, lr}
    153a:	4a0c      	ldr	r2, [pc, #48]	; (156c <RAMECC_Handler+0x34>)
    153c:	7893      	ldrb	r3, [r2, #2]
    153e:	b2db      	uxtb	r3, r3
    1540:	9301      	str	r3, [sp, #4]
    1542:	9b01      	ldr	r3, [sp, #4]
    1544:	0799      	lsls	r1, r3, #30
    1546:	d507      	bpl.n	1558 <RAMECC_Handler+0x20>
    1548:	4b09      	ldr	r3, [pc, #36]	; (1570 <RAMECC_Handler+0x38>)
    154a:	681b      	ldr	r3, [r3, #0]
    154c:	b123      	cbz	r3, 1558 <RAMECC_Handler+0x20>
    154e:	6850      	ldr	r0, [r2, #4]
    1550:	4798      	blx	r3
    1552:	b003      	add	sp, #12
    1554:	f85d fb04 	ldr.w	pc, [sp], #4
    1558:	9b01      	ldr	r3, [sp, #4]
    155a:	07db      	lsls	r3, r3, #31
    155c:	d5f9      	bpl.n	1552 <RAMECC_Handler+0x1a>
    155e:	4b04      	ldr	r3, [pc, #16]	; (1570 <RAMECC_Handler+0x38>)
    1560:	685b      	ldr	r3, [r3, #4]
    1562:	2b00      	cmp	r3, #0
    1564:	d0f5      	beq.n	1552 <RAMECC_Handler+0x1a>
    1566:	4a01      	ldr	r2, [pc, #4]	; (156c <RAMECC_Handler+0x34>)
    1568:	e7f1      	b.n	154e <RAMECC_Handler+0x16>
    156a:	bf00      	nop
    156c:	41020000 	.word	0x41020000
    1570:	200009b0 	.word	0x200009b0

00001574 <__NVIC_EnableIRQ>:
    1574:	2800      	cmp	r0, #0
    1576:	db08      	blt.n	158a <__NVIC_EnableIRQ+0x16>
    1578:	0942      	lsrs	r2, r0, #5
    157a:	2301      	movs	r3, #1
    157c:	f000 001f 	and.w	r0, r0, #31
    1580:	fa03 f000 	lsl.w	r0, r3, r0
    1584:	4b01      	ldr	r3, [pc, #4]	; (158c <__NVIC_EnableIRQ+0x18>)
    1586:	f843 0022 	str.w	r0, [r3, r2, lsl #2]
    158a:	4770      	bx	lr
    158c:	e000e100 	.word	0xe000e100

00001590 <__NVIC_DisableIRQ>:
    1590:	2800      	cmp	r0, #0
    1592:	db0d      	blt.n	15b0 <__NVIC_DisableIRQ+0x20>
    1594:	0943      	lsrs	r3, r0, #5
    1596:	2201      	movs	r2, #1
    1598:	f000 001f 	and.w	r0, r0, #31
    159c:	fa02 f000 	lsl.w	r0, r2, r0
    15a0:	3320      	adds	r3, #32
    15a2:	4a04      	ldr	r2, [pc, #16]	; (15b4 <__NVIC_DisableIRQ+0x24>)
    15a4:	f842 0023 	str.w	r0, [r2, r3, lsl #2]
    15a8:	f3bf 8f4f 	dsb	sy
    15ac:	f3bf 8f6f 	isb	sy
    15b0:	4770      	bx	lr
    15b2:	bf00      	nop
    15b4:	e000e100 	.word	0xe000e100

000015b8 <__NVIC_ClearPendingIRQ>:
    15b8:	2800      	cmp	r0, #0
    15ba:	db09      	blt.n	15d0 <__NVIC_ClearPendingIRQ+0x18>
    15bc:	0943      	lsrs	r3, r0, #5
    15be:	2201      	movs	r2, #1
    15c0:	f000 001f 	and.w	r0, r0, #31
    15c4:	fa02 f000 	lsl.w	r0, r2, r0
    15c8:	3360      	adds	r3, #96	; 0x60
    15ca:	4a02      	ldr	r2, [pc, #8]	; (15d4 <__NVIC_ClearPendingIRQ+0x1c>)
    15cc:	f842 0023 	str.w	r0, [r2, r3, lsl #2]
    15d0:	4770      	bx	lr
    15d2:	bf00      	nop
    15d4:	e000e100 	.word	0xe000e100

000015d8 <hri_sercomusart_wait_for_sync>:
    15d8:	69c3      	ldr	r3, [r0, #28]
    15da:	420b      	tst	r3, r1
    15dc:	d1fc      	bne.n	15d8 <hri_sercomusart_wait_for_sync>
    15de:	4770      	bx	lr

000015e0 <hri_sercomusart_get_CTRLA_ENABLE_bit>:
    15e0:	b508      	push	{r3, lr}
    15e2:	2103      	movs	r1, #3
    15e4:	4b02      	ldr	r3, [pc, #8]	; (15f0 <hri_sercomusart_get_CTRLA_ENABLE_bit+0x10>)
    15e6:	4798      	blx	r3
    15e8:	6800      	ldr	r0, [r0, #0]
    15ea:	f3c0 0040 	ubfx	r0, r0, #1, #1
    15ee:	bd08      	pop	{r3, pc}
    15f0:	000015d9 	.word	0x000015d9

000015f4 <_sercom_get_hardware_index>:
    15f4:	b570      	push	{r4, r5, r6, lr}
    15f6:	4d0b      	ldr	r5, [pc, #44]	; (1624 <_sercom_get_hardware_index+0x30>)
    15f8:	4606      	mov	r6, r0
    15fa:	cd0f      	ldmia	r5!, {r0, r1, r2, r3}
    15fc:	b086      	sub	sp, #24
    15fe:	466c      	mov	r4, sp
    1600:	c40f      	stmia	r4!, {r0, r1, r2, r3}
    1602:	e895 0003 	ldmia.w	r5, {r0, r1}
    1606:	e884 0003 	stmia.w	r4, {r0, r1}
    160a:	2000      	movs	r0, #0
    160c:	f85d 3020 	ldr.w	r3, [sp, r0, lsl #2]
    1610:	42b3      	cmp	r3, r6
    1612:	d102      	bne.n	161a <_sercom_get_hardware_index+0x26>
    1614:	b2c0      	uxtb	r0, r0
    1616:	b006      	add	sp, #24
    1618:	bd70      	pop	{r4, r5, r6, pc}
    161a:	3001      	adds	r0, #1
    161c:	2806      	cmp	r0, #6
    161e:	d1f5      	bne.n	160c <_sercom_get_hardware_index+0x18>
    1620:	2000      	movs	r0, #0
    1622:	e7f8      	b.n	1616 <_sercom_get_hardware_index+0x22>
    1624:	000026c4 	.word	0x000026c4

00001628 <_usart_init>:
    1628:	b538      	push	{r3, r4, r5, lr}
    162a:	4b25      	ldr	r3, [pc, #148]	; (16c0 <_usart_init+0x98>)
    162c:	4604      	mov	r4, r0
    162e:	4798      	blx	r3
    1630:	2803      	cmp	r0, #3
    1632:	d03e      	beq.n	16b2 <_usart_init+0x8a>
    1634:	2804      	cmp	r0, #4
    1636:	d03e      	beq.n	16b6 <_usart_init+0x8e>
    1638:	2805      	cmp	r0, #5
    163a:	bf14      	ite	ne
    163c:	2200      	movne	r2, #0
    163e:	2202      	moveq	r2, #2
    1640:	4620      	mov	r0, r4
    1642:	2101      	movs	r1, #1
    1644:	4d1f      	ldr	r5, [pc, #124]	; (16c4 <_usart_init+0x9c>)
    1646:	47a8      	blx	r5
    1648:	4620      	mov	r0, r4
    164a:	4b1f      	ldr	r3, [pc, #124]	; (16c8 <_usart_init+0xa0>)
    164c:	4798      	blx	r3
    164e:	2800      	cmp	r0, #0
    1650:	d133      	bne.n	16ba <_usart_init+0x92>
    1652:	4620      	mov	r0, r4
    1654:	2101      	movs	r1, #1
    1656:	47a8      	blx	r5
    1658:	6823      	ldr	r3, [r4, #0]
    165a:	f043 0301 	orr.w	r3, r3, #1
    165e:	6023      	str	r3, [r4, #0]
    1660:	4620      	mov	r0, r4
    1662:	2101      	movs	r1, #1
    1664:	47a8      	blx	r5
    1666:	4919      	ldr	r1, [pc, #100]	; (16cc <_usart_init+0xa4>)
    1668:	2318      	movs	r3, #24
    166a:	fb03 1302 	mla	r3, r3, r2, r1
    166e:	69d8      	ldr	r0, [r3, #28]
    1670:	6a1d      	ldr	r5, [r3, #32]
    1672:	6020      	str	r0, [r4, #0]
    1674:	6065      	str	r5, [r4, #4]
    1676:	6a5d      	ldr	r5, [r3, #36]	; 0x24
    1678:	60a5      	str	r5, [r4, #8]
    167a:	f410 4fc0 	tst.w	r0, #24576	; 0x6000
    167e:	bf1b      	ittet	ne
    1680:	89a0      	ldrhne	r0, [r4, #12]
    1682:	8d1d      	ldrhne	r5, [r3, #40]	; 0x28
    1684:	8d1b      	ldrheq	r3, [r3, #40]	; 0x28
    1686:	f365 000c 	bfine	r0, r5, #0, #13
    168a:	bf1f      	itttt	ne
    168c:	81a0      	strhne	r0, [r4, #12]
    168e:	f893 002a 	ldrbne.w	r0, [r3, #42]	; 0x2a
    1692:	89a3      	ldrhne	r3, [r4, #12]
    1694:	f360 334f 	bfine	r3, r0, #13, #3
    1698:	81a3      	strh	r3, [r4, #12]
    169a:	2318      	movs	r3, #24
    169c:	fb03 1202 	mla	r2, r3, r2, r1
    16a0:	2000      	movs	r0, #0
    16a2:	f892 302b 	ldrb.w	r3, [r2, #43]	; 0x2b
    16a6:	73a3      	strb	r3, [r4, #14]
    16a8:	f892 302c 	ldrb.w	r3, [r2, #44]	; 0x2c
    16ac:	f884 3030 	strb.w	r3, [r4, #48]	; 0x30
    16b0:	bd38      	pop	{r3, r4, r5, pc}
    16b2:	2200      	movs	r2, #0
    16b4:	e7c4      	b.n	1640 <_usart_init+0x18>
    16b6:	2201      	movs	r2, #1
    16b8:	e7c2      	b.n	1640 <_usart_init+0x18>
    16ba:	f06f 0010 	mvn.w	r0, #16
    16be:	bd38      	pop	{r3, r4, r5, pc}
    16c0:	000015f5 	.word	0x000015f5
    16c4:	000015d9 	.word	0x000015d9
    16c8:	000015e1 	.word	0x000015e1
    16cc:	000026c4 	.word	0x000026c4

000016d0 <_sercom_get_irq_num>:
    16d0:	b508      	push	{r3, lr}
    16d2:	4b03      	ldr	r3, [pc, #12]	; (16e0 <_sercom_get_irq_num+0x10>)
    16d4:	4798      	blx	r3
    16d6:	0080      	lsls	r0, r0, #2
    16d8:	302e      	adds	r0, #46	; 0x2e
    16da:	f000 00fe 	and.w	r0, r0, #254	; 0xfe
    16de:	bd08      	pop	{r3, pc}
    16e0:	000015f5 	.word	0x000015f5

000016e4 <_usart_async_init>:
    16e4:	e92d 43f8 	stmdb	sp!, {r3, r4, r5, r6, r7, r8, r9, lr}
    16e8:	4606      	mov	r6, r0
    16ea:	4b0f      	ldr	r3, [pc, #60]	; (1728 <_usart_async_init+0x44>)
    16ec:	4608      	mov	r0, r1
    16ee:	460c      	mov	r4, r1
    16f0:	4798      	blx	r3
    16f2:	4605      	mov	r5, r0
    16f4:	b9a8      	cbnz	r0, 1722 <_usart_async_init+0x3e>
    16f6:	61b4      	str	r4, [r6, #24]
    16f8:	4620      	mov	r0, r4
    16fa:	4b0c      	ldr	r3, [pc, #48]	; (172c <_usart_async_init+0x48>)
    16fc:	f8df 8038 	ldr.w	r8, [pc, #56]	; 1738 <_usart_async_init+0x54>
    1700:	4f0b      	ldr	r7, [pc, #44]	; (1730 <_usart_async_init+0x4c>)
    1702:	4e0c      	ldr	r6, [pc, #48]	; (1734 <_usart_async_init+0x50>)
    1704:	4798      	blx	r3
    1706:	462c      	mov	r4, r5
    1708:	4681      	mov	r9, r0
    170a:	eb09 0104 	add.w	r1, r9, r4
    170e:	b2c9      	uxtb	r1, r1
    1710:	4608      	mov	r0, r1
    1712:	47c0      	blx	r8
    1714:	4608      	mov	r0, r1
    1716:	47b8      	blx	r7
    1718:	3401      	adds	r4, #1
    171a:	4608      	mov	r0, r1
    171c:	47b0      	blx	r6
    171e:	2c04      	cmp	r4, #4
    1720:	d1f3      	bne.n	170a <_usart_async_init+0x26>
    1722:	4628      	mov	r0, r5
    1724:	e8bd 83f8 	ldmia.w	sp!, {r3, r4, r5, r6, r7, r8, r9, pc}
    1728:	00001629 	.word	0x00001629
    172c:	000016d1 	.word	0x000016d1
    1730:	000015b9 	.word	0x000015b9
    1734:	00001575 	.word	0x00001575
    1738:	00001591 	.word	0x00001591

0000173c <_usart_async_enable>:
    173c:	6982      	ldr	r2, [r0, #24]
    173e:	b508      	push	{r3, lr}
    1740:	2103      	movs	r1, #3
    1742:	4b04      	ldr	r3, [pc, #16]	; (1754 <_usart_async_enable+0x18>)
    1744:	4610      	mov	r0, r2
    1746:	4798      	blx	r3
    1748:	6813      	ldr	r3, [r2, #0]
    174a:	f043 0302 	orr.w	r3, r3, #2
    174e:	6013      	str	r3, [r2, #0]
    1750:	bd08      	pop	{r3, pc}
    1752:	bf00      	nop
    1754:	000015d9 	.word	0x000015d9

00001758 <_usart_async_write_byte>:
    1758:	6983      	ldr	r3, [r0, #24]
    175a:	6299      	str	r1, [r3, #40]	; 0x28
    175c:	4770      	bx	lr

0000175e <_usart_async_read_byte>:
    175e:	6983      	ldr	r3, [r0, #24]
    1760:	6a98      	ldr	r0, [r3, #40]	; 0x28
    1762:	b2c0      	uxtb	r0, r0
    1764:	4770      	bx	lr

00001766 <_usart_async_is_byte_sent>:
    1766:	6983      	ldr	r3, [r0, #24]
    1768:	7e18      	ldrb	r0, [r3, #24]
    176a:	f000 0001 	and.w	r0, r0, #1
    176e:	4770      	bx	lr

00001770 <_usart_async_is_byte_received>:
    1770:	6983      	ldr	r3, [r0, #24]
    1772:	7e18      	ldrb	r0, [r3, #24]
    1774:	f3c0 0080 	ubfx	r0, r0, #2, #1
    1778:	4770      	bx	lr

0000177a <_usart_async_enable_tx_done_irq>:
    177a:	6983      	ldr	r3, [r0, #24]
    177c:	2202      	movs	r2, #2
    177e:	759a      	strb	r2, [r3, #22]
    1780:	4770      	bx	lr

00001782 <_usart_async_set_irq_state>:
    1782:	f011 0ffd 	tst.w	r1, #253	; 0xfd
    1786:	d109      	bne.n	179c <_usart_async_set_irq_state+0x1a>
    1788:	6983      	ldr	r3, [r0, #24]
    178a:	2102      	movs	r1, #2
    178c:	2001      	movs	r0, #1
    178e:	b912      	cbnz	r2, 1796 <_usart_async_set_irq_state+0x14>
    1790:	7518      	strb	r0, [r3, #20]
    1792:	7519      	strb	r1, [r3, #20]
    1794:	4770      	bx	lr
    1796:	7598      	strb	r0, [r3, #22]
    1798:	7599      	strb	r1, [r3, #22]
    179a:	4770      	bx	lr
    179c:	2901      	cmp	r1, #1
    179e:	d104      	bne.n	17aa <_usart_async_set_irq_state+0x28>
    17a0:	6983      	ldr	r3, [r0, #24]
    17a2:	2104      	movs	r1, #4
    17a4:	2a00      	cmp	r2, #0
    17a6:	d1f7      	bne.n	1798 <_usart_async_set_irq_state+0x16>
    17a8:	e7f3      	b.n	1792 <_usart_async_set_irq_state+0x10>
    17aa:	2903      	cmp	r1, #3
    17ac:	d1f5      	bne.n	179a <_usart_async_set_irq_state+0x18>
    17ae:	6983      	ldr	r3, [r0, #24]
    17b0:	2180      	movs	r1, #128	; 0x80
    17b2:	e7f7      	b.n	17a4 <_usart_async_set_irq_state+0x22>

000017b4 <_delay_init>:
    17b4:	4b03      	ldr	r3, [pc, #12]	; (17c4 <_delay_init+0x10>)
    17b6:	f06f 427f 	mvn.w	r2, #4278190080	; 0xff000000
    17ba:	605a      	str	r2, [r3, #4]
    17bc:	2205      	movs	r2, #5
    17be:	601a      	str	r2, [r3, #0]
    17c0:	4770      	bx	lr
    17c2:	bf00      	nop
    17c4:	e000e010 	.word	0xe000e010

000017c8 <_delay_cycles>:
    17c8:	0e0b      	lsrs	r3, r1, #24
    17ca:	4a0c      	ldr	r2, [pc, #48]	; (17fc <_delay_cycles+0x34>)
    17cc:	b530      	push	{r4, r5, lr}
    17ce:	b2d8      	uxtb	r0, r3
    17d0:	f06f 447f 	mvn.w	r4, #4278190080	; 0xff000000
    17d4:	3801      	subs	r0, #1
    17d6:	b2c0      	uxtb	r0, r0
    17d8:	28ff      	cmp	r0, #255	; 0xff
    17da:	d108      	bne.n	17ee <_delay_cycles+0x26>
    17dc:	eba3 6303 	sub.w	r3, r3, r3, lsl #24
    17e0:	4419      	add	r1, r3
    17e2:	6051      	str	r1, [r2, #4]
    17e4:	6091      	str	r1, [r2, #8]
    17e6:	6813      	ldr	r3, [r2, #0]
    17e8:	03db      	lsls	r3, r3, #15
    17ea:	d5fc      	bpl.n	17e6 <_delay_cycles+0x1e>
    17ec:	bd30      	pop	{r4, r5, pc}
    17ee:	6054      	str	r4, [r2, #4]
    17f0:	6094      	str	r4, [r2, #8]
    17f2:	6815      	ldr	r5, [r2, #0]
    17f4:	03ed      	lsls	r5, r5, #15
    17f6:	d5fc      	bpl.n	17f2 <_delay_cycles+0x2a>
    17f8:	e7ec      	b.n	17d4 <_delay_cycles+0xc>
    17fa:	bf00      	nop
    17fc:	e000e010 	.word	0xe000e010

00001800 <__NVIC_DisableIRQ>:
    1800:	2800      	cmp	r0, #0
    1802:	db0d      	blt.n	1820 <__NVIC_DisableIRQ+0x20>
    1804:	0943      	lsrs	r3, r0, #5
    1806:	2201      	movs	r2, #1
    1808:	f000 001f 	and.w	r0, r0, #31
    180c:	fa02 f000 	lsl.w	r0, r2, r0
    1810:	3320      	adds	r3, #32
    1812:	4a04      	ldr	r2, [pc, #16]	; (1824 <__NVIC_DisableIRQ+0x24>)
    1814:	f842 0023 	str.w	r0, [r2, r3, lsl #2]
    1818:	f3bf 8f4f 	dsb	sy
    181c:	f3bf 8f6f 	isb	sy
    1820:	4770      	bx	lr
    1822:	bf00      	nop
    1824:	e000e100 	.word	0xe000e100

00001828 <_tcc_timer_set_period>:
    1828:	68c3      	ldr	r3, [r0, #12]
    182a:	6419      	str	r1, [r3, #64]	; 0x40
    182c:	4770      	bx	lr

0000182e <_tcc_timer_get_period>:
    182e:	68c3      	ldr	r3, [r0, #12]
    1830:	6c18      	ldr	r0, [r3, #64]	; 0x40
    1832:	4770      	bx	lr

00001834 <tcc_interrupt_handler>:
    1834:	68c2      	ldr	r2, [r0, #12]
    1836:	6ad1      	ldr	r1, [r2, #44]	; 0x2c
    1838:	07c9      	lsls	r1, r1, #31
    183a:	d503      	bpl.n	1844 <tcc_interrupt_handler+0x10>
    183c:	2101      	movs	r1, #1
    183e:	62d1      	str	r1, [r2, #44]	; 0x2c
    1840:	6803      	ldr	r3, [r0, #0]
    1842:	4718      	bx	r3
    1844:	4770      	bx	lr
	...

00001848 <_get_hardware_offset>:
    1848:	b570      	push	{r4, r5, r6, lr}
    184a:	4d0b      	ldr	r5, [pc, #44]	; (1878 <_get_hardware_offset+0x30>)
    184c:	4606      	mov	r6, r0
    184e:	cd0f      	ldmia	r5!, {r0, r1, r2, r3}
    1850:	b086      	sub	sp, #24
    1852:	ac01      	add	r4, sp, #4
    1854:	c40f      	stmia	r4!, {r0, r1, r2, r3}
    1856:	682b      	ldr	r3, [r5, #0]
    1858:	6023      	str	r3, [r4, #0]
    185a:	2000      	movs	r0, #0
    185c:	ab01      	add	r3, sp, #4
    185e:	f853 2020 	ldr.w	r2, [r3, r0, lsl #2]
    1862:	42b2      	cmp	r2, r6
    1864:	d102      	bne.n	186c <_get_hardware_offset+0x24>
    1866:	b2c0      	uxtb	r0, r0
    1868:	b006      	add	sp, #24
    186a:	bd70      	pop	{r4, r5, r6, pc}
    186c:	3001      	adds	r0, #1
    186e:	2805      	cmp	r0, #5
    1870:	d1f5      	bne.n	185e <_get_hardware_offset+0x16>
    1872:	2000      	movs	r0, #0
    1874:	e7f8      	b.n	1868 <_get_hardware_offset+0x20>
    1876:	bf00      	nop
    1878:	0000273c 	.word	0x0000273c

0000187c <_tcc_timer_start>:
    187c:	68c3      	ldr	r3, [r0, #12]
    187e:	689a      	ldr	r2, [r3, #8]
    1880:	0792      	lsls	r2, r2, #30
    1882:	d1fc      	bne.n	187e <_tcc_timer_start+0x2>
    1884:	681a      	ldr	r2, [r3, #0]
    1886:	f042 0202 	orr.w	r2, r2, #2
    188a:	601a      	str	r2, [r3, #0]
    188c:	4770      	bx	lr
	...

00001890 <_tcc_timer_init>:
    1890:	b538      	push	{r3, r4, r5, lr}
    1892:	4605      	mov	r5, r0
    1894:	4b36      	ldr	r3, [pc, #216]	; (1970 <_tcc_timer_init+0xe0>)
    1896:	4608      	mov	r0, r1
    1898:	460c      	mov	r4, r1
    189a:	4798      	blx	r3
    189c:	b138      	cbz	r0, 18ae <_tcc_timer_init+0x1e>
    189e:	2801      	cmp	r0, #1
    18a0:	d005      	beq.n	18ae <_tcc_timer_init+0x1e>
    18a2:	2802      	cmp	r0, #2
    18a4:	d003      	beq.n	18ae <_tcc_timer_init+0x1e>
    18a6:	2803      	cmp	r0, #3
    18a8:	d001      	beq.n	18ae <_tcc_timer_init+0x1e>
    18aa:	2804      	cmp	r0, #4
    18ac:	d141      	bne.n	1932 <_tcc_timer_init+0xa2>
    18ae:	b243      	sxtb	r3, r0
    18b0:	60ec      	str	r4, [r5, #12]
    18b2:	68a2      	ldr	r2, [r4, #8]
    18b4:	07d2      	lsls	r2, r2, #31
    18b6:	d4fc      	bmi.n	18b2 <_tcc_timer_init+0x22>
    18b8:	68a2      	ldr	r2, [r4, #8]
    18ba:	0791      	lsls	r1, r2, #30
    18bc:	d1fc      	bne.n	18b8 <_tcc_timer_init+0x28>
    18be:	6822      	ldr	r2, [r4, #0]
    18c0:	0792      	lsls	r2, r2, #30
    18c2:	d451      	bmi.n	1968 <_tcc_timer_init+0xd8>
    18c4:	68a2      	ldr	r2, [r4, #8]
    18c6:	07d1      	lsls	r1, r2, #31
    18c8:	d4fc      	bmi.n	18c4 <_tcc_timer_init+0x34>
    18ca:	6822      	ldr	r2, [r4, #0]
    18cc:	f042 0201 	orr.w	r2, r2, #1
    18d0:	6022      	str	r2, [r4, #0]
    18d2:	68a2      	ldr	r2, [r4, #8]
    18d4:	07d2      	lsls	r2, r2, #31
    18d6:	d4fc      	bmi.n	18d2 <_tcc_timer_init+0x42>
    18d8:	4a26      	ldr	r2, [pc, #152]	; (1974 <_tcc_timer_init+0xe4>)
    18da:	2124      	movs	r1, #36	; 0x24
    18dc:	fb01 2303 	mla	r3, r1, r3, r2
    18e0:	6999      	ldr	r1, [r3, #24]
    18e2:	6021      	str	r1, [r4, #0]
    18e4:	7f19      	ldrb	r1, [r3, #28]
    18e6:	7161      	strb	r1, [r4, #5]
    18e8:	7f59      	ldrb	r1, [r3, #29]
    18ea:	77a1      	strb	r1, [r4, #30]
    18ec:	6a19      	ldr	r1, [r3, #32]
    18ee:	6a5b      	ldr	r3, [r3, #36]	; 0x24
    18f0:	6221      	str	r1, [r4, #32]
    18f2:	6423      	str	r3, [r4, #64]	; 0x40
    18f4:	2301      	movs	r3, #1
    18f6:	62a3      	str	r3, [r4, #40]	; 0x28
    18f8:	4b1f      	ldr	r3, [pc, #124]	; (1978 <_tcc_timer_init+0xe8>)
    18fa:	429c      	cmp	r4, r3
    18fc:	d11c      	bne.n	1938 <_tcc_timer_init+0xa8>
    18fe:	4b1f      	ldr	r3, [pc, #124]	; (197c <_tcc_timer_init+0xec>)
    1900:	601d      	str	r5, [r3, #0]
    1902:	2804      	cmp	r0, #4
    1904:	bf96      	itet	ls
    1906:	1880      	addls	r0, r0, r2
    1908:	2189      	movhi	r1, #137	; 0x89
    190a:	f890 10c8 	ldrbls.w	r1, [r0, #200]	; 0xc8
    190e:	4b1c      	ldr	r3, [pc, #112]	; (1980 <_tcc_timer_init+0xf0>)
    1910:	4608      	mov	r0, r1
    1912:	4798      	blx	r3
    1914:	f001 021f 	and.w	r2, r1, #31
    1918:	0949      	lsrs	r1, r1, #5
    191a:	0089      	lsls	r1, r1, #2
    191c:	f101 4160 	add.w	r1, r1, #3758096384	; 0xe0000000
    1920:	f501 4161 	add.w	r1, r1, #57600	; 0xe100
    1924:	2301      	movs	r3, #1
    1926:	4093      	lsls	r3, r2
    1928:	f8c1 3180 	str.w	r3, [r1, #384]	; 0x180
    192c:	2000      	movs	r0, #0
    192e:	600b      	str	r3, [r1, #0]
    1930:	bd38      	pop	{r3, r4, r5, pc}
    1932:	f04f 33ff 	mov.w	r3, #4294967295
    1936:	e7bb      	b.n	18b0 <_tcc_timer_init+0x20>
    1938:	4b12      	ldr	r3, [pc, #72]	; (1984 <_tcc_timer_init+0xf4>)
    193a:	429c      	cmp	r4, r3
    193c:	d102      	bne.n	1944 <_tcc_timer_init+0xb4>
    193e:	4b0f      	ldr	r3, [pc, #60]	; (197c <_tcc_timer_init+0xec>)
    1940:	605d      	str	r5, [r3, #4]
    1942:	e7de      	b.n	1902 <_tcc_timer_init+0x72>
    1944:	4b10      	ldr	r3, [pc, #64]	; (1988 <_tcc_timer_init+0xf8>)
    1946:	429c      	cmp	r4, r3
    1948:	d102      	bne.n	1950 <_tcc_timer_init+0xc0>
    194a:	4b0c      	ldr	r3, [pc, #48]	; (197c <_tcc_timer_init+0xec>)
    194c:	609d      	str	r5, [r3, #8]
    194e:	e7d8      	b.n	1902 <_tcc_timer_init+0x72>
    1950:	4b0e      	ldr	r3, [pc, #56]	; (198c <_tcc_timer_init+0xfc>)
    1952:	429c      	cmp	r4, r3
    1954:	d102      	bne.n	195c <_tcc_timer_init+0xcc>
    1956:	4b09      	ldr	r3, [pc, #36]	; (197c <_tcc_timer_init+0xec>)
    1958:	60dd      	str	r5, [r3, #12]
    195a:	e7d2      	b.n	1902 <_tcc_timer_init+0x72>
    195c:	4b0c      	ldr	r3, [pc, #48]	; (1990 <_tcc_timer_init+0x100>)
    195e:	429c      	cmp	r4, r3
    1960:	bf04      	itt	eq
    1962:	4b06      	ldreq	r3, [pc, #24]	; (197c <_tcc_timer_init+0xec>)
    1964:	611d      	streq	r5, [r3, #16]
    1966:	e7cc      	b.n	1902 <_tcc_timer_init+0x72>
    1968:	f06f 0010 	mvn.w	r0, #16
    196c:	bd38      	pop	{r3, r4, r5, pc}
    196e:	bf00      	nop
    1970:	00001849 	.word	0x00001849
    1974:	0000273c 	.word	0x0000273c
    1978:	41016000 	.word	0x41016000
    197c:	200006a4 	.word	0x200006a4
    1980:	00001801 	.word	0x00001801
    1984:	41018000 	.word	0x41018000
    1988:	42000c00 	.word	0x42000c00
    198c:	42001000 	.word	0x42001000
    1990:	43001000 	.word	0x43001000

00001994 <_tcc_timer_stop>:
    1994:	68c3      	ldr	r3, [r0, #12]
    1996:	689a      	ldr	r2, [r3, #8]
    1998:	0792      	lsls	r2, r2, #30
    199a:	d1fc      	bne.n	1996 <_tcc_timer_stop+0x2>
    199c:	681a      	ldr	r2, [r3, #0]
    199e:	f022 0202 	bic.w	r2, r2, #2
    19a2:	601a      	str	r2, [r3, #0]
    19a4:	4770      	bx	lr

000019a6 <_tcc_timer_is_started>:
    19a6:	68c3      	ldr	r3, [r0, #12]
    19a8:	689a      	ldr	r2, [r3, #8]
    19aa:	0792      	lsls	r2, r2, #30
    19ac:	d1fc      	bne.n	19a8 <_tcc_timer_is_started+0x2>
    19ae:	6818      	ldr	r0, [r3, #0]
    19b0:	f3c0 0040 	ubfx	r0, r0, #1, #1
    19b4:	4770      	bx	lr
	...

000019b8 <_tcc_timer_set_irq>:
    19b8:	4b07      	ldr	r3, [pc, #28]	; (19d8 <_tcc_timer_set_irq+0x20>)
    19ba:	68c0      	ldr	r0, [r0, #12]
    19bc:	b510      	push	{r4, lr}
    19be:	4798      	blx	r3
    19c0:	2804      	cmp	r0, #4
    19c2:	bf9b      	ittet	ls
    19c4:	4b05      	ldrls	r3, [pc, #20]	; (19dc <_tcc_timer_set_irq+0x24>)
    19c6:	18c0      	addls	r0, r0, r3
    19c8:	2089      	movhi	r0, #137	; 0x89
    19ca:	f890 00c8 	ldrbls.w	r0, [r0, #200]	; 0xc8
    19ce:	4b04      	ldr	r3, [pc, #16]	; (19e0 <_tcc_timer_set_irq+0x28>)
    19d0:	e8bd 4010 	ldmia.w	sp!, {r4, lr}
    19d4:	4718      	bx	r3
    19d6:	bf00      	nop
    19d8:	00001849 	.word	0x00001849
    19dc:	0000273c 	.word	0x0000273c
    19e0:	0000108d 	.word	0x0000108d

000019e4 <_tcc_timer_deinit>:
    19e4:	b510      	push	{r4, lr}
    19e6:	68c4      	ldr	r4, [r0, #12]
    19e8:	4b0d      	ldr	r3, [pc, #52]	; (1a20 <_tcc_timer_deinit+0x3c>)
    19ea:	4620      	mov	r0, r4
    19ec:	4798      	blx	r3
    19ee:	2804      	cmp	r0, #4
    19f0:	bf9b      	ittet	ls
    19f2:	4b0c      	ldrls	r3, [pc, #48]	; (1a24 <_tcc_timer_deinit+0x40>)
    19f4:	18c0      	addls	r0, r0, r3
    19f6:	2089      	movhi	r0, #137	; 0x89
    19f8:	f890 00c8 	ldrbls.w	r0, [r0, #200]	; 0xc8
    19fc:	4b0a      	ldr	r3, [pc, #40]	; (1a28 <_tcc_timer_deinit+0x44>)
    19fe:	4798      	blx	r3
    1a00:	68a3      	ldr	r3, [r4, #8]
    1a02:	079a      	lsls	r2, r3, #30
    1a04:	d1fc      	bne.n	1a00 <_tcc_timer_deinit+0x1c>
    1a06:	6823      	ldr	r3, [r4, #0]
    1a08:	f023 0302 	bic.w	r3, r3, #2
    1a0c:	6023      	str	r3, [r4, #0]
    1a0e:	68a3      	ldr	r3, [r4, #8]
    1a10:	07db      	lsls	r3, r3, #31
    1a12:	d4fc      	bmi.n	1a0e <_tcc_timer_deinit+0x2a>
    1a14:	6823      	ldr	r3, [r4, #0]
    1a16:	f043 0301 	orr.w	r3, r3, #1
    1a1a:	6023      	str	r3, [r4, #0]
    1a1c:	bd10      	pop	{r4, pc}
    1a1e:	bf00      	nop
    1a20:	00001849 	.word	0x00001849
    1a24:	0000273c 	.word	0x0000273c
    1a28:	00001801 	.word	0x00001801

00001a2c <_tcc_get_timer>:
    1a2c:	4800      	ldr	r0, [pc, #0]	; (1a30 <_tcc_get_timer+0x4>)
    1a2e:	4770      	bx	lr
    1a30:	20000038 	.word	0x20000038

00001a34 <TCC0_0_Handler>:
    1a34:	4b01      	ldr	r3, [pc, #4]	; (1a3c <TCC0_0_Handler+0x8>)
    1a36:	6818      	ldr	r0, [r3, #0]
    1a38:	4b01      	ldr	r3, [pc, #4]	; (1a40 <TCC0_0_Handler+0xc>)
    1a3a:	4718      	bx	r3
    1a3c:	200006a4 	.word	0x200006a4
    1a40:	00001835 	.word	0x00001835

00001a44 <TCC1_0_Handler>:
    1a44:	4b01      	ldr	r3, [pc, #4]	; (1a4c <TCC1_0_Handler+0x8>)
    1a46:	6858      	ldr	r0, [r3, #4]
    1a48:	4b01      	ldr	r3, [pc, #4]	; (1a50 <TCC1_0_Handler+0xc>)
    1a4a:	4718      	bx	r3
    1a4c:	200006a4 	.word	0x200006a4
    1a50:	00001835 	.word	0x00001835

00001a54 <TCC2_0_Handler>:
    1a54:	4b01      	ldr	r3, [pc, #4]	; (1a5c <TCC2_0_Handler+0x8>)
    1a56:	6898      	ldr	r0, [r3, #8]
    1a58:	4b01      	ldr	r3, [pc, #4]	; (1a60 <TCC2_0_Handler+0xc>)
    1a5a:	4718      	bx	r3
    1a5c:	200006a4 	.word	0x200006a4
    1a60:	00001835 	.word	0x00001835

00001a64 <TCC3_0_Handler>:
    1a64:	4b01      	ldr	r3, [pc, #4]	; (1a6c <TCC3_0_Handler+0x8>)
    1a66:	68d8      	ldr	r0, [r3, #12]
    1a68:	4b01      	ldr	r3, [pc, #4]	; (1a70 <TCC3_0_Handler+0xc>)
    1a6a:	4718      	bx	r3
    1a6c:	200006a4 	.word	0x200006a4
    1a70:	00001835 	.word	0x00001835

00001a74 <TCC4_0_Handler>:
    1a74:	4b01      	ldr	r3, [pc, #4]	; (1a7c <TCC4_0_Handler+0x8>)
    1a76:	6918      	ldr	r0, [r3, #16]
    1a78:	4b01      	ldr	r3, [pc, #4]	; (1a80 <TCC4_0_Handler+0xc>)
    1a7a:	4718      	bx	r3
    1a7c:	200006a4 	.word	0x200006a4
    1a80:	00001835 	.word	0x00001835

00001a84 <__NVIC_DisableIRQ>:
    1a84:	2800      	cmp	r0, #0
    1a86:	db0d      	blt.n	1aa4 <__NVIC_DisableIRQ+0x20>
    1a88:	0943      	lsrs	r3, r0, #5
    1a8a:	2201      	movs	r2, #1
    1a8c:	f000 001f 	and.w	r0, r0, #31
    1a90:	fa02 f000 	lsl.w	r0, r2, r0
    1a94:	3320      	adds	r3, #32
    1a96:	4a04      	ldr	r2, [pc, #16]	; (1aa8 <__NVIC_DisableIRQ+0x24>)
    1a98:	f842 0023 	str.w	r0, [r2, r3, lsl #2]
    1a9c:	f3bf 8f4f 	dsb	sy
    1aa0:	f3bf 8f6f 	isb	sy
    1aa4:	4770      	bx	lr
    1aa6:	bf00      	nop
    1aa8:	e000e100 	.word	0xe000e100

00001aac <hri_tc_wait_for_sync>:
    1aac:	6903      	ldr	r3, [r0, #16]
    1aae:	420b      	tst	r3, r1
    1ab0:	d1fc      	bne.n	1aac <hri_tc_wait_for_sync>
    1ab2:	4770      	bx	lr

00001ab4 <hri_tc_set_CTRLA_SWRST_bit>:
    1ab4:	b508      	push	{r3, lr}
    1ab6:	2101      	movs	r1, #1
    1ab8:	4b03      	ldr	r3, [pc, #12]	; (1ac8 <hri_tc_set_CTRLA_SWRST_bit+0x14>)
    1aba:	4798      	blx	r3
    1abc:	6803      	ldr	r3, [r0, #0]
    1abe:	f043 0301 	orr.w	r3, r3, #1
    1ac2:	6003      	str	r3, [r0, #0]
    1ac4:	bd08      	pop	{r3, pc}
    1ac6:	bf00      	nop
    1ac8:	00001aad 	.word	0x00001aad

00001acc <hri_tc_get_CTRLA_ENABLE_bit>:
    1acc:	b508      	push	{r3, lr}
    1ace:	2103      	movs	r1, #3
    1ad0:	4b02      	ldr	r3, [pc, #8]	; (1adc <hri_tc_get_CTRLA_ENABLE_bit+0x10>)
    1ad2:	4798      	blx	r3
    1ad4:	6800      	ldr	r0, [r0, #0]
    1ad6:	f3c0 0040 	ubfx	r0, r0, #1, #1
    1ada:	bd08      	pop	{r3, pc}
    1adc:	00001aad 	.word	0x00001aad

00001ae0 <hri_tc_clear_CTRLA_ENABLE_bit>:
    1ae0:	b508      	push	{r3, lr}
    1ae2:	2103      	movs	r1, #3
    1ae4:	4b03      	ldr	r3, [pc, #12]	; (1af4 <hri_tc_clear_CTRLA_ENABLE_bit+0x14>)
    1ae6:	4798      	blx	r3
    1ae8:	6803      	ldr	r3, [r0, #0]
    1aea:	f023 0302 	bic.w	r3, r3, #2
    1aee:	6003      	str	r3, [r0, #0]
    1af0:	bd08      	pop	{r3, pc}
    1af2:	bf00      	nop
    1af4:	00001aad 	.word	0x00001aad

00001af8 <_tc_timer_start>:
    1af8:	68c2      	ldr	r2, [r0, #12]
    1afa:	b508      	push	{r3, lr}
    1afc:	2103      	movs	r1, #3
    1afe:	4b04      	ldr	r3, [pc, #16]	; (1b10 <_tc_timer_start+0x18>)
    1b00:	4610      	mov	r0, r2
    1b02:	4798      	blx	r3
    1b04:	6813      	ldr	r3, [r2, #0]
    1b06:	f043 0302 	orr.w	r3, r3, #2
    1b0a:	6013      	str	r3, [r2, #0]
    1b0c:	bd08      	pop	{r3, pc}
    1b0e:	bf00      	nop
    1b10:	00001aad 	.word	0x00001aad

00001b14 <_tc_timer_stop>:
    1b14:	68c0      	ldr	r0, [r0, #12]
    1b16:	4b01      	ldr	r3, [pc, #4]	; (1b1c <_tc_timer_stop+0x8>)
    1b18:	4718      	bx	r3
    1b1a:	bf00      	nop
    1b1c:	00001ae1 	.word	0x00001ae1

00001b20 <_tc_timer_set_period>:
    1b20:	68c3      	ldr	r3, [r0, #12]
    1b22:	681a      	ldr	r2, [r3, #0]
    1b24:	f3c2 0281 	ubfx	r2, r2, #2, #2
    1b28:	2a02      	cmp	r2, #2
    1b2a:	d101      	bne.n	1b30 <_tc_timer_set_period+0x10>
    1b2c:	61d9      	str	r1, [r3, #28]
    1b2e:	4770      	bx	lr
    1b30:	681a      	ldr	r2, [r3, #0]
    1b32:	f012 0f0c 	tst.w	r2, #12
    1b36:	d102      	bne.n	1b3e <_tc_timer_set_period+0x1e>
    1b38:	b289      	uxth	r1, r1
    1b3a:	8399      	strh	r1, [r3, #28]
    1b3c:	4770      	bx	lr
    1b3e:	681a      	ldr	r2, [r3, #0]
    1b40:	f3c2 0281 	ubfx	r2, r2, #2, #2
    1b44:	2a01      	cmp	r2, #1
    1b46:	bf04      	itt	eq
    1b48:	b2c9      	uxtbeq	r1, r1
    1b4a:	76d9      	strbeq	r1, [r3, #27]
    1b4c:	4770      	bx	lr

00001b4e <_tc_timer_get_period>:
    1b4e:	68c3      	ldr	r3, [r0, #12]
    1b50:	681a      	ldr	r2, [r3, #0]
    1b52:	f3c2 0281 	ubfx	r2, r2, #2, #2
    1b56:	2a02      	cmp	r2, #2
    1b58:	d101      	bne.n	1b5e <_tc_timer_get_period+0x10>
    1b5a:	69d8      	ldr	r0, [r3, #28]
    1b5c:	4770      	bx	lr
    1b5e:	681a      	ldr	r2, [r3, #0]
    1b60:	f012 0f0c 	tst.w	r2, #12
    1b64:	d102      	bne.n	1b6c <_tc_timer_get_period+0x1e>
    1b66:	8b98      	ldrh	r0, [r3, #28]
    1b68:	b280      	uxth	r0, r0
    1b6a:	4770      	bx	lr
    1b6c:	681a      	ldr	r2, [r3, #0]
    1b6e:	f3c2 0281 	ubfx	r2, r2, #2, #2
    1b72:	2a01      	cmp	r2, #1
    1b74:	bf06      	itte	eq
    1b76:	7ed8      	ldrbeq	r0, [r3, #27]
    1b78:	b2c0      	uxtbeq	r0, r0
    1b7a:	2000      	movne	r0, #0
    1b7c:	4770      	bx	lr
	...

00001b80 <_tc_timer_is_started>:
    1b80:	68c0      	ldr	r0, [r0, #12]
    1b82:	4b01      	ldr	r3, [pc, #4]	; (1b88 <_tc_timer_is_started+0x8>)
    1b84:	4718      	bx	r3
    1b86:	bf00      	nop
    1b88:	00001acd 	.word	0x00001acd

00001b8c <tc_interrupt_handler>:
    1b8c:	68c2      	ldr	r2, [r0, #12]
    1b8e:	7a91      	ldrb	r1, [r2, #10]
    1b90:	07c9      	lsls	r1, r1, #31
    1b92:	d503      	bpl.n	1b9c <tc_interrupt_handler+0x10>
    1b94:	2101      	movs	r1, #1
    1b96:	7291      	strb	r1, [r2, #10]
    1b98:	6803      	ldr	r3, [r0, #0]
    1b9a:	4718      	bx	r3
    1b9c:	4770      	bx	lr

00001b9e <tc_pwm_interrupt_handler>:
    1b9e:	b570      	push	{r4, r5, r6, lr}
    1ba0:	6905      	ldr	r5, [r0, #16]
    1ba2:	7aab      	ldrb	r3, [r5, #10]
    1ba4:	07da      	lsls	r2, r3, #31
    1ba6:	4604      	mov	r4, r0
    1ba8:	d504      	bpl.n	1bb4 <tc_pwm_interrupt_handler+0x16>
    1baa:	2301      	movs	r3, #1
    1bac:	72ab      	strb	r3, [r5, #10]
    1bae:	6803      	ldr	r3, [r0, #0]
    1bb0:	b103      	cbz	r3, 1bb4 <tc_pwm_interrupt_handler+0x16>
    1bb2:	4798      	blx	r3
    1bb4:	7a6b      	ldrb	r3, [r5, #9]
    1bb6:	079b      	lsls	r3, r3, #30
    1bb8:	d507      	bpl.n	1bca <tc_pwm_interrupt_handler+0x2c>
    1bba:	2302      	movs	r3, #2
    1bbc:	72ab      	strb	r3, [r5, #10]
    1bbe:	6863      	ldr	r3, [r4, #4]
    1bc0:	b11b      	cbz	r3, 1bca <tc_pwm_interrupt_handler+0x2c>
    1bc2:	4620      	mov	r0, r4
    1bc4:	e8bd 4070 	ldmia.w	sp!, {r4, r5, r6, lr}
    1bc8:	4718      	bx	r3
    1bca:	bd70      	pop	{r4, r5, r6, pc}

00001bcc <_tc_init_irq_param>:
    1bcc:	4b11      	ldr	r3, [pc, #68]	; (1c14 <_tc_init_irq_param+0x48>)
    1bce:	4298      	cmp	r0, r3
    1bd0:	d107      	bne.n	1be2 <_tc_init_irq_param+0x16>
    1bd2:	4b11      	ldr	r3, [pc, #68]	; (1c18 <_tc_init_irq_param+0x4c>)
    1bd4:	6019      	str	r1, [r3, #0]
    1bd6:	4b11      	ldr	r3, [pc, #68]	; (1c1c <_tc_init_irq_param+0x50>)
    1bd8:	4298      	cmp	r0, r3
    1bda:	bf04      	itt	eq
    1bdc:	4b0e      	ldreq	r3, [pc, #56]	; (1c18 <_tc_init_irq_param+0x4c>)
    1bde:	6159      	streq	r1, [r3, #20]
    1be0:	4770      	bx	lr
    1be2:	4b0f      	ldr	r3, [pc, #60]	; (1c20 <_tc_init_irq_param+0x54>)
    1be4:	4298      	cmp	r0, r3
    1be6:	d102      	bne.n	1bee <_tc_init_irq_param+0x22>
    1be8:	4b0b      	ldr	r3, [pc, #44]	; (1c18 <_tc_init_irq_param+0x4c>)
    1bea:	6059      	str	r1, [r3, #4]
    1bec:	e7f3      	b.n	1bd6 <_tc_init_irq_param+0xa>
    1bee:	4b0d      	ldr	r3, [pc, #52]	; (1c24 <_tc_init_irq_param+0x58>)
    1bf0:	4298      	cmp	r0, r3
    1bf2:	d102      	bne.n	1bfa <_tc_init_irq_param+0x2e>
    1bf4:	4b08      	ldr	r3, [pc, #32]	; (1c18 <_tc_init_irq_param+0x4c>)
    1bf6:	6099      	str	r1, [r3, #8]
    1bf8:	4770      	bx	lr
    1bfa:	4b0b      	ldr	r3, [pc, #44]	; (1c28 <_tc_init_irq_param+0x5c>)
    1bfc:	4298      	cmp	r0, r3
    1bfe:	d102      	bne.n	1c06 <_tc_init_irq_param+0x3a>
    1c00:	4b05      	ldr	r3, [pc, #20]	; (1c18 <_tc_init_irq_param+0x4c>)
    1c02:	60d9      	str	r1, [r3, #12]
    1c04:	4770      	bx	lr
    1c06:	4b09      	ldr	r3, [pc, #36]	; (1c2c <_tc_init_irq_param+0x60>)
    1c08:	4298      	cmp	r0, r3
    1c0a:	d1e4      	bne.n	1bd6 <_tc_init_irq_param+0xa>
    1c0c:	4b02      	ldr	r3, [pc, #8]	; (1c18 <_tc_init_irq_param+0x4c>)
    1c0e:	6119      	str	r1, [r3, #16]
    1c10:	4770      	bx	lr
    1c12:	bf00      	nop
    1c14:	40003800 	.word	0x40003800
    1c18:	200006b8 	.word	0x200006b8
    1c1c:	42001800 	.word	0x42001800
    1c20:	40003c00 	.word	0x40003c00
    1c24:	4101a000 	.word	0x4101a000
    1c28:	4101c000 	.word	0x4101c000
    1c2c:	42001400 	.word	0x42001400

00001c30 <get_tc_index>:
    1c30:	b570      	push	{r4, r5, r6, lr}
    1c32:	4d13      	ldr	r5, [pc, #76]	; (1c80 <get_tc_index+0x50>)
    1c34:	4606      	mov	r6, r0
    1c36:	cd0f      	ldmia	r5!, {r0, r1, r2, r3}
    1c38:	b086      	sub	sp, #24
    1c3a:	466c      	mov	r4, sp
    1c3c:	c40f      	stmia	r4!, {r0, r1, r2, r3}
    1c3e:	e895 0003 	ldmia.w	r5, {r0, r1}
    1c42:	e884 0003 	stmia.w	r4, {r0, r1}
    1c46:	2300      	movs	r3, #0
    1c48:	f85d 2023 	ldr.w	r2, [sp, r3, lsl #2]
    1c4c:	42b2      	cmp	r2, r6
    1c4e:	d10b      	bne.n	1c68 <get_tc_index+0x38>
    1c50:	b2db      	uxtb	r3, r3
    1c52:	4a0c      	ldr	r2, [pc, #48]	; (1c84 <get_tc_index+0x54>)
    1c54:	2000      	movs	r0, #0
    1c56:	2114      	movs	r1, #20
    1c58:	fb01 f400 	mul.w	r4, r1, r0
    1c5c:	5ca4      	ldrb	r4, [r4, r2]
    1c5e:	429c      	cmp	r4, r3
    1c60:	d107      	bne.n	1c72 <get_tc_index+0x42>
    1c62:	b240      	sxtb	r0, r0
    1c64:	b006      	add	sp, #24
    1c66:	bd70      	pop	{r4, r5, r6, pc}
    1c68:	3301      	adds	r3, #1
    1c6a:	2b06      	cmp	r3, #6
    1c6c:	d1ec      	bne.n	1c48 <get_tc_index+0x18>
    1c6e:	2300      	movs	r3, #0
    1c70:	e7ef      	b.n	1c52 <get_tc_index+0x22>
    1c72:	3001      	adds	r0, #1
    1c74:	2806      	cmp	r0, #6
    1c76:	d1ef      	bne.n	1c58 <get_tc_index+0x28>
    1c78:	f04f 30ff 	mov.w	r0, #4294967295
    1c7c:	e7f2      	b.n	1c64 <get_tc_index+0x34>
    1c7e:	bf00      	nop
    1c80:	0000280c 	.word	0x0000280c
    1c84:	20000058 	.word	0x20000058

00001c88 <_tc_timer_init>:
    1c88:	e92d 41f0 	stmdb	sp!, {r4, r5, r6, r7, r8, lr}
    1c8c:	4b2e      	ldr	r3, [pc, #184]	; (1d48 <_tc_timer_init+0xc0>)
    1c8e:	4607      	mov	r7, r0
    1c90:	4608      	mov	r0, r1
    1c92:	460c      	mov	r4, r1
    1c94:	4798      	blx	r3
    1c96:	60fc      	str	r4, [r7, #12]
    1c98:	4606      	mov	r6, r0
    1c9a:	2101      	movs	r1, #1
    1c9c:	4620      	mov	r0, r4
    1c9e:	4a2b      	ldr	r2, [pc, #172]	; (1d4c <_tc_timer_init+0xc4>)
    1ca0:	4790      	blx	r2
    1ca2:	4620      	mov	r0, r4
    1ca4:	4b2a      	ldr	r3, [pc, #168]	; (1d50 <_tc_timer_init+0xc8>)
    1ca6:	4798      	blx	r3
    1ca8:	2800      	cmp	r0, #0
    1caa:	d148      	bne.n	1d3e <_tc_timer_init+0xb6>
    1cac:	4b29      	ldr	r3, [pc, #164]	; (1d54 <_tc_timer_init+0xcc>)
    1cae:	4620      	mov	r0, r4
    1cb0:	4798      	blx	r3
    1cb2:	2101      	movs	r1, #1
    1cb4:	4620      	mov	r0, r4
    1cb6:	4790      	blx	r2
    1cb8:	4927      	ldr	r1, [pc, #156]	; (1d58 <_tc_timer_init+0xd0>)
    1cba:	2314      	movs	r3, #20
    1cbc:	fb03 1306 	mla	r3, r3, r6, r1
    1cc0:	4688      	mov	r8, r1
    1cc2:	685a      	ldr	r2, [r3, #4]
    1cc4:	6022      	str	r2, [r4, #0]
    1cc6:	7a98      	ldrb	r0, [r3, #10]
    1cc8:	73e0      	strb	r0, [r4, #15]
    1cca:	8918      	ldrh	r0, [r3, #8]
    1ccc:	80e0      	strh	r0, [r4, #6]
    1cce:	f002 020c 	and.w	r2, r2, #12
    1cd2:	2001      	movs	r0, #1
    1cd4:	2a08      	cmp	r2, #8
    1cd6:	7320      	strb	r0, [r4, #12]
    1cd8:	d122      	bne.n	1d20 <_tc_timer_init+0x98>
    1cda:	68da      	ldr	r2, [r3, #12]
    1cdc:	61e2      	str	r2, [r4, #28]
    1cde:	691b      	ldr	r3, [r3, #16]
    1ce0:	6223      	str	r3, [r4, #32]
    1ce2:	2501      	movs	r5, #1
    1ce4:	4639      	mov	r1, r7
    1ce6:	4620      	mov	r0, r4
    1ce8:	4b1c      	ldr	r3, [pc, #112]	; (1d5c <_tc_timer_init+0xd4>)
    1cea:	7265      	strb	r5, [r4, #9]
    1cec:	4798      	blx	r3
    1cee:	2314      	movs	r3, #20
    1cf0:	fb03 8606 	mla	r6, r3, r6, r8
    1cf4:	4b1a      	ldr	r3, [pc, #104]	; (1d60 <_tc_timer_init+0xd8>)
    1cf6:	f9b6 1002 	ldrsh.w	r1, [r6, #2]
    1cfa:	4608      	mov	r0, r1
    1cfc:	4798      	blx	r3
    1cfe:	2900      	cmp	r1, #0
    1d00:	db0b      	blt.n	1d1a <_tc_timer_init+0x92>
    1d02:	f001 031f 	and.w	r3, r1, #31
    1d06:	0949      	lsrs	r1, r1, #5
    1d08:	0089      	lsls	r1, r1, #2
    1d0a:	f101 4160 	add.w	r1, r1, #3758096384	; 0xe0000000
    1d0e:	f501 4161 	add.w	r1, r1, #57600	; 0xe100
    1d12:	409d      	lsls	r5, r3
    1d14:	f8c1 5180 	str.w	r5, [r1, #384]	; 0x180
    1d18:	600d      	str	r5, [r1, #0]
    1d1a:	2000      	movs	r0, #0
    1d1c:	e8bd 81f0 	ldmia.w	sp!, {r4, r5, r6, r7, r8, pc}
    1d20:	b922      	cbnz	r2, 1d2c <_tc_timer_init+0xa4>
    1d22:	899a      	ldrh	r2, [r3, #12]
    1d24:	83a2      	strh	r2, [r4, #28]
    1d26:	8a1b      	ldrh	r3, [r3, #16]
    1d28:	83e3      	strh	r3, [r4, #30]
    1d2a:	e7da      	b.n	1ce2 <_tc_timer_init+0x5a>
    1d2c:	2a04      	cmp	r2, #4
    1d2e:	d1d8      	bne.n	1ce2 <_tc_timer_init+0x5a>
    1d30:	7b1a      	ldrb	r2, [r3, #12]
    1d32:	7722      	strb	r2, [r4, #28]
    1d34:	7c1a      	ldrb	r2, [r3, #16]
    1d36:	7762      	strb	r2, [r4, #29]
    1d38:	7adb      	ldrb	r3, [r3, #11]
    1d3a:	76e3      	strb	r3, [r4, #27]
    1d3c:	e7d1      	b.n	1ce2 <_tc_timer_init+0x5a>
    1d3e:	f06f 0010 	mvn.w	r0, #16
    1d42:	e8bd 81f0 	ldmia.w	sp!, {r4, r5, r6, r7, r8, pc}
    1d46:	bf00      	nop
    1d48:	00001c31 	.word	0x00001c31
    1d4c:	00001aad 	.word	0x00001aad
    1d50:	00001acd 	.word	0x00001acd
    1d54:	00001ab5 	.word	0x00001ab5
    1d58:	20000058 	.word	0x20000058
    1d5c:	00001bcd 	.word	0x00001bcd
    1d60:	00001a85 	.word	0x00001a85

00001d64 <_tc_timer_deinit>:
    1d64:	b510      	push	{r4, lr}
    1d66:	68c4      	ldr	r4, [r0, #12]
    1d68:	4b09      	ldr	r3, [pc, #36]	; (1d90 <_tc_timer_deinit+0x2c>)
    1d6a:	4620      	mov	r0, r4
    1d6c:	4798      	blx	r3
    1d6e:	4a09      	ldr	r2, [pc, #36]	; (1d94 <_tc_timer_deinit+0x30>)
    1d70:	2314      	movs	r3, #20
    1d72:	fb03 2000 	mla	r0, r3, r0, r2
    1d76:	4b08      	ldr	r3, [pc, #32]	; (1d98 <_tc_timer_deinit+0x34>)
    1d78:	f9b0 0002 	ldrsh.w	r0, [r0, #2]
    1d7c:	4798      	blx	r3
    1d7e:	4620      	mov	r0, r4
    1d80:	4b06      	ldr	r3, [pc, #24]	; (1d9c <_tc_timer_deinit+0x38>)
    1d82:	4798      	blx	r3
    1d84:	4620      	mov	r0, r4
    1d86:	4b06      	ldr	r3, [pc, #24]	; (1da0 <_tc_timer_deinit+0x3c>)
    1d88:	e8bd 4010 	ldmia.w	sp!, {r4, lr}
    1d8c:	4718      	bx	r3
    1d8e:	bf00      	nop
    1d90:	00001c31 	.word	0x00001c31
    1d94:	20000058 	.word	0x20000058
    1d98:	00001a85 	.word	0x00001a85
    1d9c:	00001ae1 	.word	0x00001ae1
    1da0:	00001ab5 	.word	0x00001ab5

00001da4 <_tc_timer_set_irq>:
    1da4:	b510      	push	{r4, lr}
    1da6:	4b06      	ldr	r3, [pc, #24]	; (1dc0 <_tc_timer_set_irq+0x1c>)
    1da8:	68c0      	ldr	r0, [r0, #12]
    1daa:	4798      	blx	r3
    1dac:	4a05      	ldr	r2, [pc, #20]	; (1dc4 <_tc_timer_set_irq+0x20>)
    1dae:	2314      	movs	r3, #20
    1db0:	fb03 2000 	mla	r0, r3, r0, r2
    1db4:	e8bd 4010 	ldmia.w	sp!, {r4, lr}
    1db8:	7880      	ldrb	r0, [r0, #2]
    1dba:	4b03      	ldr	r3, [pc, #12]	; (1dc8 <_tc_timer_set_irq+0x24>)
    1dbc:	4718      	bx	r3
    1dbe:	bf00      	nop
    1dc0:	00001c31 	.word	0x00001c31
    1dc4:	20000058 	.word	0x20000058
    1dc8:	0000108d 	.word	0x0000108d

00001dcc <_pwm_init>:
    1dcc:	b5f8      	push	{r3, r4, r5, r6, r7, lr}
    1dce:	4b29      	ldr	r3, [pc, #164]	; (1e74 <_pwm_init+0xa8>)
    1dd0:	4606      	mov	r6, r0
    1dd2:	4608      	mov	r0, r1
    1dd4:	460c      	mov	r4, r1
    1dd6:	4798      	blx	r3
    1dd8:	6134      	str	r4, [r6, #16]
    1dda:	4605      	mov	r5, r0
    1ddc:	2101      	movs	r1, #1
    1dde:	4620      	mov	r0, r4
    1de0:	4a25      	ldr	r2, [pc, #148]	; (1e78 <_pwm_init+0xac>)
    1de2:	4790      	blx	r2
    1de4:	4620      	mov	r0, r4
    1de6:	4b25      	ldr	r3, [pc, #148]	; (1e7c <_pwm_init+0xb0>)
    1de8:	4798      	blx	r3
    1dea:	2800      	cmp	r0, #0
    1dec:	d13c      	bne.n	1e68 <_pwm_init+0x9c>
    1dee:	4b24      	ldr	r3, [pc, #144]	; (1e80 <_pwm_init+0xb4>)
    1df0:	4f24      	ldr	r7, [pc, #144]	; (1e84 <_pwm_init+0xb8>)
    1df2:	4620      	mov	r0, r4
    1df4:	4798      	blx	r3
    1df6:	4620      	mov	r0, r4
    1df8:	2101      	movs	r1, #1
    1dfa:	4790      	blx	r2
    1dfc:	2314      	movs	r3, #20
    1dfe:	fb03 7305 	mla	r3, r3, r5, r7
    1e02:	685a      	ldr	r2, [r3, #4]
    1e04:	6022      	str	r2, [r4, #0]
    1e06:	7a98      	ldrb	r0, [r3, #10]
    1e08:	73e0      	strb	r0, [r4, #15]
    1e0a:	8918      	ldrh	r0, [r3, #8]
    1e0c:	80e0      	strh	r0, [r4, #6]
    1e0e:	f002 020c 	and.w	r2, r2, #12
    1e12:	2003      	movs	r0, #3
    1e14:	2a08      	cmp	r2, #8
    1e16:	7320      	strb	r0, [r4, #12]
    1e18:	d120      	bne.n	1e5c <_pwm_init+0x90>
    1e1a:	68da      	ldr	r2, [r3, #12]
    1e1c:	61e2      	str	r2, [r4, #28]
    1e1e:	691b      	ldr	r3, [r3, #16]
    1e20:	6223      	str	r3, [r4, #32]
    1e22:	4631      	mov	r1, r6
    1e24:	4620      	mov	r0, r4
    1e26:	4b18      	ldr	r3, [pc, #96]	; (1e88 <_pwm_init+0xbc>)
    1e28:	4798      	blx	r3
    1e2a:	2314      	movs	r3, #20
    1e2c:	fb03 7505 	mla	r5, r3, r5, r7
    1e30:	4b16      	ldr	r3, [pc, #88]	; (1e8c <_pwm_init+0xc0>)
    1e32:	f9b5 1002 	ldrsh.w	r1, [r5, #2]
    1e36:	4608      	mov	r0, r1
    1e38:	4798      	blx	r3
    1e3a:	2900      	cmp	r1, #0
    1e3c:	db0c      	blt.n	1e58 <_pwm_init+0x8c>
    1e3e:	f001 021f 	and.w	r2, r1, #31
    1e42:	0949      	lsrs	r1, r1, #5
    1e44:	0089      	lsls	r1, r1, #2
    1e46:	f101 4160 	add.w	r1, r1, #3758096384	; 0xe0000000
    1e4a:	f501 4161 	add.w	r1, r1, #57600	; 0xe100
    1e4e:	2301      	movs	r3, #1
    1e50:	4093      	lsls	r3, r2
    1e52:	f8c1 3180 	str.w	r3, [r1, #384]	; 0x180
    1e56:	600b      	str	r3, [r1, #0]
    1e58:	2000      	movs	r0, #0
    1e5a:	bdf8      	pop	{r3, r4, r5, r6, r7, pc}
    1e5c:	b93a      	cbnz	r2, 1e6e <_pwm_init+0xa2>
    1e5e:	899a      	ldrh	r2, [r3, #12]
    1e60:	83a2      	strh	r2, [r4, #28]
    1e62:	8a1b      	ldrh	r3, [r3, #16]
    1e64:	83e3      	strh	r3, [r4, #30]
    1e66:	e7dc      	b.n	1e22 <_pwm_init+0x56>
    1e68:	f06f 0010 	mvn.w	r0, #16
    1e6c:	bdf8      	pop	{r3, r4, r5, r6, r7, pc}
    1e6e:	f04f 30ff 	mov.w	r0, #4294967295
    1e72:	bdf8      	pop	{r3, r4, r5, r6, r7, pc}
    1e74:	00001c31 	.word	0x00001c31
    1e78:	00001aad 	.word	0x00001aad
    1e7c:	00001acd 	.word	0x00001acd
    1e80:	00001ab5 	.word	0x00001ab5
    1e84:	20000058 	.word	0x20000058
    1e88:	00001bcd 	.word	0x00001bcd
    1e8c:	00001a85 	.word	0x00001a85

00001e90 <_tc_get_timer>:
    1e90:	4800      	ldr	r0, [pc, #0]	; (1e94 <_tc_get_timer+0x4>)
    1e92:	4770      	bx	lr
    1e94:	200000d0 	.word	0x200000d0

00001e98 <_tc_get_pwm>:
    1e98:	2000      	movs	r0, #0
    1e9a:	4770      	bx	lr

00001e9c <TC0_Handler>:
    1e9c:	4b01      	ldr	r3, [pc, #4]	; (1ea4 <TC0_Handler+0x8>)
    1e9e:	6818      	ldr	r0, [r3, #0]
    1ea0:	4b01      	ldr	r3, [pc, #4]	; (1ea8 <TC0_Handler+0xc>)
    1ea2:	4718      	bx	r3
    1ea4:	200006b8 	.word	0x200006b8
    1ea8:	00001b9f 	.word	0x00001b9f

00001eac <TC1_Handler>:
    1eac:	4b01      	ldr	r3, [pc, #4]	; (1eb4 <TC1_Handler+0x8>)
    1eae:	6858      	ldr	r0, [r3, #4]
    1eb0:	4b01      	ldr	r3, [pc, #4]	; (1eb8 <TC1_Handler+0xc>)
    1eb2:	4718      	bx	r3
    1eb4:	200006b8 	.word	0x200006b8
    1eb8:	00001b9f 	.word	0x00001b9f

00001ebc <TC2_Handler>:
    1ebc:	4b01      	ldr	r3, [pc, #4]	; (1ec4 <TC2_Handler+0x8>)
    1ebe:	6898      	ldr	r0, [r3, #8]
    1ec0:	4b01      	ldr	r3, [pc, #4]	; (1ec8 <TC2_Handler+0xc>)
    1ec2:	4718      	bx	r3
    1ec4:	200006b8 	.word	0x200006b8
    1ec8:	00001b9f 	.word	0x00001b9f

00001ecc <TC3_Handler>:
    1ecc:	4b01      	ldr	r3, [pc, #4]	; (1ed4 <TC3_Handler+0x8>)
    1ece:	68d8      	ldr	r0, [r3, #12]
    1ed0:	4b01      	ldr	r3, [pc, #4]	; (1ed8 <TC3_Handler+0xc>)
    1ed2:	4718      	bx	r3
    1ed4:	200006b8 	.word	0x200006b8
    1ed8:	00001b8d 	.word	0x00001b8d

00001edc <TC4_Handler>:
    1edc:	4b01      	ldr	r3, [pc, #4]	; (1ee4 <TC4_Handler+0x8>)
    1ede:	6918      	ldr	r0, [r3, #16]
    1ee0:	4b01      	ldr	r3, [pc, #4]	; (1ee8 <TC4_Handler+0xc>)
    1ee2:	4718      	bx	r3
    1ee4:	200006b8 	.word	0x200006b8
    1ee8:	00001b8d 	.word	0x00001b8d

00001eec <TC5_Handler>:
    1eec:	4b01      	ldr	r3, [pc, #4]	; (1ef4 <TC5_Handler+0x8>)
    1eee:	6958      	ldr	r0, [r3, #20]
    1ef0:	4b01      	ldr	r3, [pc, #4]	; (1ef8 <TC5_Handler+0xc>)
    1ef2:	4718      	bx	r3
    1ef4:	200006b8 	.word	0x200006b8
    1ef8:	00001b8d 	.word	0x00001b8d

00001efc <_wdt_init>:
    1efc:	6803      	ldr	r3, [r0, #0]
    1efe:	689a      	ldr	r2, [r3, #8]
    1f00:	f012 0f0e 	tst.w	r2, #14
    1f04:	d1fb      	bne.n	1efe <_wdt_init+0x2>
    1f06:	781a      	ldrb	r2, [r3, #0]
    1f08:	09d2      	lsrs	r2, r2, #7
    1f0a:	d113      	bne.n	1f34 <_wdt_init+0x38>
    1f0c:	689a      	ldr	r2, [r3, #8]
    1f0e:	f012 0f0e 	tst.w	r2, #14
    1f12:	d1fb      	bne.n	1f0c <_wdt_init+0x10>
    1f14:	781a      	ldrb	r2, [r3, #0]
    1f16:	0792      	lsls	r2, r2, #30
    1f18:	d40c      	bmi.n	1f34 <_wdt_init+0x38>
    1f1a:	6898      	ldr	r0, [r3, #8]
    1f1c:	f010 000e 	ands.w	r0, r0, #14
    1f20:	d1fb      	bne.n	1f1a <_wdt_init+0x1e>
    1f22:	781a      	ldrb	r2, [r3, #0]
    1f24:	f002 02fb 	and.w	r2, r2, #251	; 0xfb
    1f28:	701a      	strb	r2, [r3, #0]
    1f2a:	785a      	ldrb	r2, [r3, #1]
    1f2c:	f002 02f0 	and.w	r2, r2, #240	; 0xf0
    1f30:	705a      	strb	r2, [r3, #1]
    1f32:	4770      	bx	lr
    1f34:	f06f 0010 	mvn.w	r0, #16
    1f38:	4770      	bx	lr
	...

00001f3c <main>:
    1f3c:	b508      	push	{r3, lr}
    1f3e:	4b07      	ldr	r3, [pc, #28]	; (1f5c <main+0x20>)
    1f40:	4e07      	ldr	r6, [pc, #28]	; (1f60 <main+0x24>)
    1f42:	4d08      	ldr	r5, [pc, #32]	; (1f64 <main+0x28>)
    1f44:	4c08      	ldr	r4, [pc, #32]	; (1f68 <main+0x2c>)
    1f46:	4798      	blx	r3
    1f48:	4b08      	ldr	r3, [pc, #32]	; (1f6c <main+0x30>)
    1f4a:	4798      	blx	r3
    1f4c:	2103      	movs	r1, #3
    1f4e:	4630      	mov	r0, r6
    1f50:	47a8      	blx	r5
    1f52:	f44f 607a 	mov.w	r0, #4000	; 0xfa0
    1f56:	47a0      	blx	r4
    1f58:	e7f8      	b.n	1f4c <main+0x10>
    1f5a:	bf00      	nop
    1f5c:	000005f1 	.word	0x000005f1
    1f60:	00002824 	.word	0x00002824
    1f64:	0000040d 	.word	0x0000040d
    1f68:	00000dad 	.word	0x00000dad
    1f6c:	00000455 	.word	0x00000455

00001f70 <vListInsertEnd>:
    1f70:	6843      	ldr	r3, [r0, #4]
    1f72:	604b      	str	r3, [r1, #4]
    1f74:	689a      	ldr	r2, [r3, #8]
    1f76:	608a      	str	r2, [r1, #8]
    1f78:	689a      	ldr	r2, [r3, #8]
    1f7a:	6051      	str	r1, [r2, #4]
    1f7c:	6099      	str	r1, [r3, #8]
    1f7e:	6803      	ldr	r3, [r0, #0]
    1f80:	6108      	str	r0, [r1, #16]
    1f82:	3301      	adds	r3, #1
    1f84:	6003      	str	r3, [r0, #0]
    1f86:	4770      	bx	lr

00001f88 <uxListRemove>:
    1f88:	6841      	ldr	r1, [r0, #4]
    1f8a:	6882      	ldr	r2, [r0, #8]
    1f8c:	6903      	ldr	r3, [r0, #16]
    1f8e:	608a      	str	r2, [r1, #8]
    1f90:	6882      	ldr	r2, [r0, #8]
    1f92:	6051      	str	r1, [r2, #4]
    1f94:	6859      	ldr	r1, [r3, #4]
    1f96:	4288      	cmp	r0, r1
    1f98:	bf08      	it	eq
    1f9a:	605a      	streq	r2, [r3, #4]
    1f9c:	2200      	movs	r2, #0
    1f9e:	6102      	str	r2, [r0, #16]
    1fa0:	681a      	ldr	r2, [r3, #0]
    1fa2:	3a01      	subs	r2, #1
    1fa4:	601a      	str	r2, [r3, #0]
    1fa6:	6818      	ldr	r0, [r3, #0]
    1fa8:	4770      	bx	lr
    1faa:	0000      	movs	r0, r0
    1fac:	0000      	movs	r0, r0
	...

00001fb0 <SVC_Handler>:
    1fb0:	4b07      	ldr	r3, [pc, #28]	; (1fd0 <pxCurrentTCBConst2>)
    1fb2:	6819      	ldr	r1, [r3, #0]
    1fb4:	6808      	ldr	r0, [r1, #0]
    1fb6:	e8b0 4ff0 	ldmia.w	r0!, {r4, r5, r6, r7, r8, r9, sl, fp, lr}
    1fba:	f380 8809 	msr	PSP, r0
    1fbe:	f3bf 8f6f 	isb	sy
    1fc2:	f04f 0000 	mov.w	r0, #0
    1fc6:	f380 8811 	msr	BASEPRI, r0
    1fca:	4770      	bx	lr
    1fcc:	f3af 8000 	nop.w

00001fd0 <pxCurrentTCBConst2>:
    1fd0:	20000740 	.word	0x20000740
	...

00001fe0 <PendSV_Handler>:
    1fe0:	f3ef 8009 	mrs	r0, PSP
    1fe4:	f3bf 8f6f 	isb	sy
    1fe8:	4b15      	ldr	r3, [pc, #84]	; (2040 <pxCurrentTCBConst>)
    1fea:	681a      	ldr	r2, [r3, #0]
    1fec:	f01e 0f10 	tst.w	lr, #16
    1ff0:	bf08      	it	eq
    1ff2:	ed20 8a10 	vstmdbeq	r0!, {s16-s31}
    1ff6:	e920 4ff0 	stmdb	r0!, {r4, r5, r6, r7, r8, r9, sl, fp, lr}
    1ffa:	6010      	str	r0, [r2, #0]
    1ffc:	e92d 0009 	stmdb	sp!, {r0, r3}
    2000:	f04f 0080 	mov.w	r0, #128	; 0x80
    2004:	f380 8811 	msr	BASEPRI, r0
    2008:	f3bf 8f4f 	dsb	sy
    200c:	f3bf 8f6f 	isb	sy
    2010:	f000 f8b6 	bl	2180 <vTaskSwitchContext>
    2014:	f04f 0000 	mov.w	r0, #0
    2018:	f380 8811 	msr	BASEPRI, r0
    201c:	bc09      	pop	{r0, r3}
    201e:	6819      	ldr	r1, [r3, #0]
    2020:	6808      	ldr	r0, [r1, #0]
    2022:	e8b0 4ff0 	ldmia.w	r0!, {r4, r5, r6, r7, r8, r9, sl, fp, lr}
    2026:	f01e 0f10 	tst.w	lr, #16
    202a:	bf08      	it	eq
    202c:	ecb0 8a10 	vldmiaeq	r0!, {s16-s31}
    2030:	f380 8809 	msr	PSP, r0
    2034:	f3bf 8f6f 	isb	sy
    2038:	4770      	bx	lr
    203a:	bf00      	nop
    203c:	f3af 8000 	nop.w

00002040 <pxCurrentTCBConst>:
    2040:	20000740 	.word	0x20000740

00002044 <SysTick_Handler>:
    2044:	b508      	push	{r3, lr}
    2046:	f04f 0380 	mov.w	r3, #128	; 0x80
    204a:	f383 8811 	msr	BASEPRI, r3
    204e:	f3bf 8f6f 	isb	sy
    2052:	f3bf 8f4f 	dsb	sy
    2056:	4b05      	ldr	r3, [pc, #20]	; (206c <SysTick_Handler+0x28>)
    2058:	4798      	blx	r3
    205a:	b118      	cbz	r0, 2064 <SysTick_Handler+0x20>
    205c:	4b04      	ldr	r3, [pc, #16]	; (2070 <SysTick_Handler+0x2c>)
    205e:	f04f 5280 	mov.w	r2, #268435456	; 0x10000000
    2062:	601a      	str	r2, [r3, #0]
    2064:	2300      	movs	r3, #0
    2066:	f383 8811 	msr	BASEPRI, r3
    206a:	bd08      	pop	{r3, pc}
    206c:	00002095 	.word	0x00002095
    2070:	e000ed04 	.word	0xe000ed04

00002074 <prvResetNextTaskUnblockTime>:
    2074:	4b06      	ldr	r3, [pc, #24]	; (2090 <prvResetNextTaskUnblockTime+0x1c>)
    2076:	6e5a      	ldr	r2, [r3, #100]	; 0x64
    2078:	6812      	ldr	r2, [r2, #0]
    207a:	b91a      	cbnz	r2, 2084 <prvResetNextTaskUnblockTime+0x10>
    207c:	f04f 32ff 	mov.w	r2, #4294967295
    2080:	669a      	str	r2, [r3, #104]	; 0x68
    2082:	4770      	bx	lr
    2084:	6e5a      	ldr	r2, [r3, #100]	; 0x64
    2086:	68d2      	ldr	r2, [r2, #12]
    2088:	68d2      	ldr	r2, [r2, #12]
    208a:	6852      	ldr	r2, [r2, #4]
    208c:	e7f8      	b.n	2080 <prvResetNextTaskUnblockTime+0xc>
    208e:	bf00      	nop
    2090:	200006d0 	.word	0x200006d0

00002094 <xTaskIncrementTick>:
    2094:	e92d 4ff8 	stmdb	sp!, {r3, r4, r5, r6, r7, r8, r9, sl, fp, lr}
    2098:	4b35      	ldr	r3, [pc, #212]	; (2170 <xTaskIncrementTick+0xdc>)
    209a:	f8d3 20d8 	ldr.w	r2, [r3, #216]	; 0xd8
    209e:	461c      	mov	r4, r3
    20a0:	2a00      	cmp	r2, #0
    20a2:	d13d      	bne.n	2120 <xTaskIncrementTick+0x8c>
    20a4:	6ede      	ldr	r6, [r3, #108]	; 0x6c
    20a6:	3601      	adds	r6, #1
    20a8:	66de      	str	r6, [r3, #108]	; 0x6c
    20aa:	b9c6      	cbnz	r6, 20de <xTaskIncrementTick+0x4a>
    20ac:	6e5b      	ldr	r3, [r3, #100]	; 0x64
    20ae:	681b      	ldr	r3, [r3, #0]
    20b0:	b143      	cbz	r3, 20c4 <xTaskIncrementTick+0x30>
    20b2:	f04f 0380 	mov.w	r3, #128	; 0x80
    20b6:	f383 8811 	msr	BASEPRI, r3
    20ba:	f3bf 8f6f 	isb	sy
    20be:	f3bf 8f4f 	dsb	sy
    20c2:	e7fe      	b.n	20c2 <xTaskIncrementTick+0x2e>
    20c4:	6e63      	ldr	r3, [r4, #100]	; 0x64
    20c6:	f8d4 2088 	ldr.w	r2, [r4, #136]	; 0x88
    20ca:	6662      	str	r2, [r4, #100]	; 0x64
    20cc:	f8c4 3088 	str.w	r3, [r4, #136]	; 0x88
    20d0:	f8d4 30e0 	ldr.w	r3, [r4, #224]	; 0xe0
    20d4:	3301      	adds	r3, #1
    20d6:	f8c4 30e0 	str.w	r3, [r4, #224]	; 0xe0
    20da:	4b26      	ldr	r3, [pc, #152]	; (2174 <xTaskIncrementTick+0xe0>)
    20dc:	4798      	blx	r3
    20de:	6ea3      	ldr	r3, [r4, #104]	; 0x68
    20e0:	429e      	cmp	r6, r3
    20e2:	f04f 0500 	mov.w	r5, #0
    20e6:	d30b      	bcc.n	2100 <xTaskIncrementTick+0x6c>
    20e8:	f8df 808c 	ldr.w	r8, [pc, #140]	; 2178 <xTaskIncrementTick+0xe4>
    20ec:	f8df b08c 	ldr.w	fp, [pc, #140]	; 217c <xTaskIncrementTick+0xe8>
    20f0:	f04f 0a14 	mov.w	sl, #20
    20f4:	6e63      	ldr	r3, [r4, #100]	; 0x64
    20f6:	681b      	ldr	r3, [r3, #0]
    20f8:	b9cb      	cbnz	r3, 212e <xTaskIncrementTick+0x9a>
    20fa:	f04f 33ff 	mov.w	r3, #4294967295
    20fe:	66a3      	str	r3, [r4, #104]	; 0x68
    2100:	6f23      	ldr	r3, [r4, #112]	; 0x70
    2102:	6ada      	ldr	r2, [r3, #44]	; 0x2c
    2104:	2314      	movs	r3, #20
    2106:	4353      	muls	r3, r2
    2108:	58e3      	ldr	r3, [r4, r3]
    210a:	2b02      	cmp	r3, #2
    210c:	bf28      	it	cs
    210e:	2501      	movcs	r5, #1
    2110:	f8d4 30e8 	ldr.w	r3, [r4, #232]	; 0xe8
    2114:	2b00      	cmp	r3, #0
    2116:	bf18      	it	ne
    2118:	2501      	movne	r5, #1
    211a:	4628      	mov	r0, r5
    211c:	e8bd 8ff8 	ldmia.w	sp!, {r3, r4, r5, r6, r7, r8, r9, sl, fp, pc}
    2120:	f8d3 30e4 	ldr.w	r3, [r3, #228]	; 0xe4
    2124:	3301      	adds	r3, #1
    2126:	f8c4 30e4 	str.w	r3, [r4, #228]	; 0xe4
    212a:	2500      	movs	r5, #0
    212c:	e7f0      	b.n	2110 <xTaskIncrementTick+0x7c>
    212e:	6e63      	ldr	r3, [r4, #100]	; 0x64
    2130:	68db      	ldr	r3, [r3, #12]
    2132:	68df      	ldr	r7, [r3, #12]
    2134:	687b      	ldr	r3, [r7, #4]
    2136:	429e      	cmp	r6, r3
    2138:	d3e1      	bcc.n	20fe <xTaskIncrementTick+0x6a>
    213a:	f107 0904 	add.w	r9, r7, #4
    213e:	4648      	mov	r0, r9
    2140:	47c0      	blx	r8
    2142:	6abb      	ldr	r3, [r7, #40]	; 0x28
    2144:	b113      	cbz	r3, 214c <xTaskIncrementTick+0xb8>
    2146:	f107 0018 	add.w	r0, r7, #24
    214a:	47c0      	blx	r8
    214c:	6af8      	ldr	r0, [r7, #44]	; 0x2c
    214e:	f8d4 30d4 	ldr.w	r3, [r4, #212]	; 0xd4
    2152:	4298      	cmp	r0, r3
    2154:	bf88      	it	hi
    2156:	f8c4 00d4 	strhi.w	r0, [r4, #212]	; 0xd4
    215a:	4649      	mov	r1, r9
    215c:	fb0a 4000 	mla	r0, sl, r0, r4
    2160:	47d8      	blx	fp
    2162:	6f23      	ldr	r3, [r4, #112]	; 0x70
    2164:	6afa      	ldr	r2, [r7, #44]	; 0x2c
    2166:	6adb      	ldr	r3, [r3, #44]	; 0x2c
    2168:	429a      	cmp	r2, r3
    216a:	bf28      	it	cs
    216c:	2501      	movcs	r5, #1
    216e:	e7c1      	b.n	20f4 <xTaskIncrementTick+0x60>
    2170:	200006d0 	.word	0x200006d0
    2174:	00002075 	.word	0x00002075
    2178:	00001f89 	.word	0x00001f89
    217c:	00001f71 	.word	0x00001f71

00002180 <vTaskSwitchContext>:
    2180:	4a18      	ldr	r2, [pc, #96]	; (21e4 <vTaskSwitchContext+0x64>)
    2182:	f8d2 10d8 	ldr.w	r1, [r2, #216]	; 0xd8
    2186:	b530      	push	{r4, r5, lr}
    2188:	4613      	mov	r3, r2
    218a:	b119      	cbz	r1, 2194 <vTaskSwitchContext+0x14>
    218c:	2301      	movs	r3, #1
    218e:	f8c2 30e8 	str.w	r3, [r2, #232]	; 0xe8
    2192:	bd30      	pop	{r4, r5, pc}
    2194:	f8c2 10e8 	str.w	r1, [r2, #232]	; 0xe8
    2198:	f8d2 10d4 	ldr.w	r1, [r2, #212]	; 0xd4
    219c:	2514      	movs	r5, #20
    219e:	fb05 f201 	mul.w	r2, r5, r1
    21a2:	1898      	adds	r0, r3, r2
    21a4:	589c      	ldr	r4, [r3, r2]
    21a6:	b18c      	cbz	r4, 21cc <vTaskSwitchContext+0x4c>
    21a8:	6844      	ldr	r4, [r0, #4]
    21aa:	3208      	adds	r2, #8
    21ac:	6864      	ldr	r4, [r4, #4]
    21ae:	6044      	str	r4, [r0, #4]
    21b0:	441a      	add	r2, r3
    21b2:	4294      	cmp	r4, r2
    21b4:	bf04      	itt	eq
    21b6:	6862      	ldreq	r2, [r4, #4]
    21b8:	6042      	streq	r2, [r0, #4]
    21ba:	2214      	movs	r2, #20
    21bc:	fb02 3201 	mla	r2, r2, r1, r3
    21c0:	6852      	ldr	r2, [r2, #4]
    21c2:	68d2      	ldr	r2, [r2, #12]
    21c4:	671a      	str	r2, [r3, #112]	; 0x70
    21c6:	f8c3 10d4 	str.w	r1, [r3, #212]	; 0xd4
    21ca:	bd30      	pop	{r4, r5, pc}
    21cc:	b941      	cbnz	r1, 21e0 <vTaskSwitchContext+0x60>
    21ce:	f04f 0380 	mov.w	r3, #128	; 0x80
    21d2:	f383 8811 	msr	BASEPRI, r3
    21d6:	f3bf 8f6f 	isb	sy
    21da:	f3bf 8f4f 	dsb	sy
    21de:	e7fe      	b.n	21de <vTaskSwitchContext+0x5e>
    21e0:	3901      	subs	r1, #1
    21e2:	e7dc      	b.n	219e <vTaskSwitchContext+0x1e>
    21e4:	200006d0 	.word	0x200006d0

000021e8 <__libc_init_array>:
    21e8:	b570      	push	{r4, r5, r6, lr}
    21ea:	4e0d      	ldr	r6, [pc, #52]	; (2220 <__libc_init_array+0x38>)
    21ec:	4c0d      	ldr	r4, [pc, #52]	; (2224 <__libc_init_array+0x3c>)
    21ee:	1ba4      	subs	r4, r4, r6
    21f0:	10a4      	asrs	r4, r4, #2
    21f2:	2500      	movs	r5, #0
    21f4:	42a5      	cmp	r5, r4
    21f6:	d109      	bne.n	220c <__libc_init_array+0x24>
    21f8:	4e0b      	ldr	r6, [pc, #44]	; (2228 <__libc_init_array+0x40>)
    21fa:	4c0c      	ldr	r4, [pc, #48]	; (222c <__libc_init_array+0x44>)
    21fc:	f000 fb14 	bl	2828 <_init>
    2200:	1ba4      	subs	r4, r4, r6
    2202:	10a4      	asrs	r4, r4, #2
    2204:	2500      	movs	r5, #0
    2206:	42a5      	cmp	r5, r4
    2208:	d105      	bne.n	2216 <__libc_init_array+0x2e>
    220a:	bd70      	pop	{r4, r5, r6, pc}
    220c:	f856 3025 	ldr.w	r3, [r6, r5, lsl #2]
    2210:	4798      	blx	r3
    2212:	3501      	adds	r5, #1
    2214:	e7ee      	b.n	21f4 <__libc_init_array+0xc>
    2216:	f856 3025 	ldr.w	r3, [r6, r5, lsl #2]
    221a:	4798      	blx	r3
    221c:	3501      	adds	r5, #1
    221e:	e7f2      	b.n	2206 <__libc_init_array+0x1e>
    2220:	00002834 	.word	0x00002834
    2224:	00002834 	.word	0x00002834
    2228:	00002834 	.word	0x00002834
    222c:	00002838 	.word	0x00002838

00002230 <strcpy>:
    2230:	4603      	mov	r3, r0
    2232:	f811 2b01 	ldrb.w	r2, [r1], #1
    2236:	f803 2b01 	strb.w	r2, [r3], #1
    223a:	2a00      	cmp	r2, #0
    223c:	d1f9      	bne.n	2232 <strcpy+0x2>
    223e:	4770      	bx	lr
    2240:	45444f4d 	.word	0x45444f4d
    2244:	4144204d 	.word	0x4144204d
    2248:	55204154 	.word	0x55204154
    224c:	20545241 	.word	0x20545241
    2250:	52455328 	.word	0x52455328
    2254:	334d4f43 	.word	0x334d4f43
    2258:	6e692029 	.word	0x6e692029
    225c:	61697469 	.word	0x61697469
    2260:	657a696c 	.word	0x657a696c
    2264:	000a0d64 	.word	0x000a0d64
    2268:	43524553 	.word	0x43524553
    226c:	20334d4f 	.word	0x20334d4f
    2270:	20746f6e 	.word	0x20746f6e
    2274:	74696e69 	.word	0x74696e69
    2278:	696c6169 	.word	0x696c6169
    227c:	0d64657a 	.word	0x0d64657a
    2280:	6f4d000a 	.word	0x6f4d000a
    2284:	206d6564 	.word	0x206d6564
    2288:	61746144 	.word	0x61746144
    228c:	20785420 	.word	0x20785420
    2290:	61746144 	.word	0x61746144
    2294:	67655220 	.word	0x67655220
    2298:	706d4520 	.word	0x706d4520
    229c:	43207974 	.word	0x43207974
    22a0:	426c6c61 	.word	0x426c6c61
    22a4:	0d6b6361 	.word	0x0d6b6361
    22a8:	6f4d000a 	.word	0x6f4d000a
    22ac:	206d6564 	.word	0x206d6564
    22b0:	61746144 	.word	0x61746144
    22b4:	20785420 	.word	0x20785420
    22b8:	65747962 	.word	0x65747962
    22bc:	6d6f4320 	.word	0x6d6f4320
    22c0:	74656c70 	.word	0x74656c70
    22c4:	61432065 	.word	0x61432065
    22c8:	61626c6c 	.word	0x61626c6c
    22cc:	0a0d6b63 	.word	0x0a0d6b63
    22d0:	646f4d00 	.word	0x646f4d00
    22d4:	44206d65 	.word	0x44206d65
    22d8:	20617461 	.word	0x20617461
    22dc:	43207852 	.word	0x43207852
    22e0:	6c706d6f 	.word	0x6c706d6f
    22e4:	20657465 	.word	0x20657465
    22e8:	6c6c6143 	.word	0x6c6c6143
    22ec:	6b636162 	.word	0x6b636162
    22f0:	53000a0d 	.word	0x53000a0d
    22f4:	65636375 	.word	0x65636375
    22f8:	75667373 	.word	0x75667373
    22fc:	20796c6c 	.word	0x20796c6c
    2300:	65636552 	.word	0x65636552
    2304:	64657669 	.word	0x64657669
    2308:	63206120 	.word	0x63206120
    230c:	20726168 	.word	0x20726168
    2310:	6d6f7266 	.word	0x6d6f7266
    2314:	646f4d20 	.word	0x646f4d20
    2318:	0a0d6d65 	.word	0x0a0d6d65
    231c:	646f4d00 	.word	0x646f4d00
    2320:	54206d65 	.word	0x54206d65
    2324:	6f442078 	.word	0x6f442078
    2328:	4320656e 	.word	0x4320656e
    232c:	426c6c61 	.word	0x426c6c61
    2330:	0d6b6361 	.word	0x0d6b6361
    2334:	6f4d000a 	.word	0x6f4d000a
    2338:	206d6564 	.word	0x206d6564
    233c:	43207852 	.word	0x43207852
    2340:	626c6c61 	.word	0x626c6c61
    2344:	0d6b6361 	.word	0x0d6b6361
    2348:	6f4d000a 	.word	0x6f4d000a
    234c:	206d6564 	.word	0x206d6564
    2350:	6f727245 	.word	0x6f727245
    2354:	61432072 	.word	0x61432072
    2358:	61626c6c 	.word	0x61626c6c
    235c:	0a0d6b63 	.word	0x0a0d6b63
    2360:	52455300 	.word	0x52455300
    2364:	334d4f43 	.word	0x334d4f43
    2368:	696e4920 	.word	0x696e4920
    236c:	61462074 	.word	0x61462074
    2370:	64656c69 	.word	0x64656c69
    2374:	7245202e 	.word	0x7245202e
    2378:	20726f72 	.word	0x20726f72
    237c:	0d2e6425 	.word	0x0d2e6425
    2380:	4553000a 	.word	0x4553000a
    2384:	4d4f4352 	.word	0x4d4f4352
    2388:	6e492033 	.word	0x6e492033
    238c:	53207469 	.word	0x53207469
    2390:	65636375 	.word	0x65636375
    2394:	0d2e7373 	.word	0x0d2e7373
    2398:	5441000a 	.word	0x5441000a
    239c:	54000a0d 	.word	0x54000a0d
    23a0:	6f742078 	.word	0x6f742078
    23a4:	646f6d20 	.word	0x646f6d20
    23a8:	46206d65 	.word	0x46206d65
    23ac:	656c6961 	.word	0x656c6961
    23b0:	72452064 	.word	0x72452064
    23b4:	20726f72 	.word	0x20726f72
    23b8:	0a0d6425 	.word	0x0a0d6425
    23bc:	20785400 	.word	0x20785400
    23c0:	6d206f74 	.word	0x6d206f74
    23c4:	6d65646f 	.word	0x6d65646f
    23c8:	63755320 	.word	0x63755320
    23cc:	73736563 	.word	0x73736563
    23d0:	61655200 	.word	0x61655200
    23d4:	64252064 	.word	0x64252064
    23d8:	61686320 	.word	0x61686320
    23dc:	202e7372 	.word	0x202e7372
    23e0:	61746144 	.word	0x61746144
    23e4:	20736920 	.word	0x20736920
    23e8:	0a0d7325 	.word	0x0a0d7325
    23ec:	61655200 	.word	0x61655200
    23f0:	61462064 	.word	0x61462064
    23f4:	64656c69 	.word	0x64656c69
    23f8:	000a0d2e 	.word	0x000a0d2e
    23fc:	65776f50 	.word	0x65776f50
    2400:	6e4f2072 	.word	0x6e4f2072
    2404:	69615720 	.word	0x69615720
    2408:	69542074 	.word	0x69542074
    240c:	2072656d 	.word	0x2072656d
    2410:	69707845 	.word	0x69707845
    2414:	0d646572 	.word	0x0d646572
    2418:	6f4d000a 	.word	0x6f4d000a
    241c:	206d6564 	.word	0x206d6564
    2420:	65776f50 	.word	0x65776f50
    2424:	6e4f2072 	.word	0x6e4f2072
    2428:	696e6920 	.word	0x696e6920
    242c:	6c616974 	.word	0x6c616974
    2430:	74617a69 	.word	0x74617a69
    2434:	206e6f69 	.word	0x206e6f69
    2438:	706d6f43 	.word	0x706d6f43
    243c:	6574656c 	.word	0x6574656c
    2440:	000a0d64 	.word	0x000a0d64
    2444:	65776f50 	.word	0x65776f50
    2448:	576e4f72 	.word	0x576e4f72
    244c:	54746961 	.word	0x54746961
    2450:	72656d69 	.word	0x72656d69
    2454:	646f4d00 	.word	0x646f4d00
    2458:	46206d65 	.word	0x46206d65
    245c:	796c6c75 	.word	0x796c6c75
    2460:	65704f20 	.word	0x65704f20
    2464:	69746172 	.word	0x69746172
    2468:	6c616e6f 	.word	0x6c616e6f
    246c:	000a0d2e 	.word	0x000a0d2e
    2470:	73207854 	.word	0x73207854
    2474:	61697265 	.word	0x61697265
    2478:	6544206c 	.word	0x6544206c
    247c:	20677562 	.word	0x20677562
    2480:	656e6f44 	.word	0x656e6f44
    2484:	52000a0d 	.word	0x52000a0d
    2488:	6f442078 	.word	0x6f442078
    248c:	0a0d656e 	.word	0x0a0d656e
	...

00002492 <_adcs>:
    2492:	00c00000 00830002 00001900 00000000     ................
    24a2:	00000000 00010001 00000000 00000000     ................
	...

000024c0 <_cfgs>:
	...

000025c0 <user_mux_confs>:
	...

00002604 <channel_confs>:
	...

00002644 <interrupt_cfg>:
	...
    26c4:	40003000 40003400 41012000 41014000     .0.@.4.@. .A.@.A
    26d4:	43000000 43000400                       ...C...C

000026dc <_usarts>:
    26dc:	00000003 40200004 00030000 00700002     ...... @......p.
    26ec:	0000ff2e 00000000 00000004 40300184     ..............0@
    26fc:	00030300 00700002 0000ff2e 00000000     ......p.........
    270c:	00000005 40300004 00030000 00700002     ......0@......p.
    271c:	0000f62b 00000000                       +.......

00002724 <_i2cms>:
	...
    273c:	41016000 41018000 42000c00 42001000     .`.A...A...B...B
    274c:	43001000                                ...C

00002750 <_tccs>:
    2750:	00000000 00000300 00000000 00000000     ................
    2760:	00001770 00000000 00000000 00000000     p...............
    2770:	00000000 00000001 00000300 00000000     ................
    2780:	00000000 00001770 00000000 00000000     ....p...........
	...
    2798:	00000002 00000300 00000000 00000000     ................
    27a8:	00001770 00000000 00000000 00000000     p...............
    27b8:	00000000 00000003 00000300 00000000     ................
    27c8:	00000000 00001770 00000000 00000000     ....p...........
	...
    27e0:	00000004 00000300 00000000 00000000     ................
    27f0:	00001770 00000000 00000000 00000000     p...............
    2800:	00000000                                ....

00002804 <CSWTCH.39>:
    2804:	65615c55 00000068 40003800 40003c00     U\aeh....8.@.<.@
    2814:	4101a000 4101c000 42001400 42001800     ...A...A...B...B
    2824:	000d5441                                AT..

00002828 <_init>:
    2828:	b5f8      	push	{r3, r4, r5, r6, r7, lr}
    282a:	bf00      	nop
    282c:	bcf8      	pop	{r3, r4, r5, r6, r7}
    282e:	bc08      	pop	{r3}
    2830:	469e      	mov	lr, r3
    2832:	4770      	bx	lr

00002834 <__init_array_start>:
    2834:	00000289 	.word	0x00000289

00002838 <_fini>:
    2838:	b5f8      	push	{r3, r4, r5, r6, r7, lr}
    283a:	bf00      	nop
    283c:	bcf8      	pop	{r3, r4, r5, r6, r7}
    283e:	bc08      	pop	{r3}
    2840:	469e      	mov	lr, r3
    2842:	4770      	bx	lr

00002844 <__fini_array_start>:
    2844:	00000265 	.word	0x00000265
