
SAMD51.elf:     file format elf32-littlearm

Sections:
Idx Name          Size      VMA       LMA       File off  Algn
  0 .text         000084d0  00000000  00000000  00010000  2**4
                  CONTENTS, ALLOC, LOAD, READONLY, CODE
  1 .relocate     00000268  20000000  000084d0  00020000  2**2
                  CONTENTS, ALLOC, LOAD, DATA
  2 .bkupram      00000000  47000000  47000000  00020268  2**0
                  CONTENTS
  3 .qspi         00000000  04000000  04000000  00020268  2**0
                  CONTENTS
  4 .bss          00003d18  20000270  00008740  00020268  2**4
                  ALLOC
  5 .stack        00010000  20003f88  0000c458  00020268  2**0
                  ALLOC
  6 .ARM.attributes 0000002e  00000000  00000000  00020268  2**0
                  CONTENTS, READONLY
  7 .comment      00000059  00000000  00000000  00020296  2**0
                  CONTENTS, READONLY
  8 .debug_frame  000006f8  00000000  00000000  000202f0  2**2
                  CONTENTS, READONLY, DEBUGGING

Disassembly of section .text:

00000000 <exception_table>:
       0:	88 3f 01 20 d5 2a 00 00 4d 2b 00 00 4d 2b 00 00     .?. .*..M+..M+..
      10:	4d 2b 00 00 4d 2b 00 00 4d 2b 00 00 00 00 00 00     M+..M+..M+......
	...
      2c:	61 3d 00 00 4d 2b 00 00 00 00 00 00 f1 3d 00 00     a=..M+.......=..
      3c:	55 3e 00 00 4d 2b 00 00 4d 2b 00 00 4d 2b 00 00     U>..M+..M+..M+..
      4c:	4d 2b 00 00 4d 2b 00 00 4d 2b 00 00 4d 2b 00 00     M+..M+..M+..M+..
      5c:	4d 2b 00 00 4d 2b 00 00 4d 2b 00 00 4d 2b 00 00     M+..M+..M+..M+..
      6c:	4d 2b 00 00 4d 2b 00 00 4d 2b 00 00 4d 2b 00 00     M+..M+..M+..M+..
      7c:	4d 2b 00 00 4d 2b 00 00 4d 2b 00 00 4d 2b 00 00     M+..M+..M+..M+..
      8c:	4d 2b 00 00 4d 2b 00 00 4d 2b 00 00 4d 2b 00 00     M+..M+..M+..M+..
      9c:	4d 2b 00 00 4d 2b 00 00 4d 2b 00 00 4d 2b 00 00     M+..M+..M+..M+..
      ac:	4d 2b 00 00 4d 2b 00 00 8d 34 00 00 61 34 00 00     M+..M+...4..a4..
      bc:	9d 33 00 00 a5 33 00 00 ad 33 00 00 b5 33 00 00     .3...3...3...3..
      cc:	bd 33 00 00 4d 2b 00 00 4d 2b 00 00 4d 2b 00 00     .3..M+..M+..M+..
      dc:	4d 2b 00 00 4d 2b 00 00 4d 2b 00 00 4d 2b 00 00     M+..M+..M+..M+..
      ec:	4d 2b 00 00 00 00 00 00 59 35 00 00 4d 2b 00 00     M+......Y5..M+..
      fc:	4d 2b 00 00 4d 2b 00 00 4d 2b 00 00 4d 2b 00 00     M+..M+..M+..M+..
     10c:	4d 2b 00 00 4d 2b 00 00 4d 2b 00 00 4d 2b 00 00     M+..M+..M+..M+..
     11c:	4d 2b 00 00 4d 2b 00 00 4d 2b 00 00 2d 1f 00 00     M+..M+..M+..-...
     12c:	39 1f 00 00 45 1f 00 00 4d 2b 00 00 4d 2b 00 00     9...E...M+..M+..
     13c:	4d 2b 00 00 4d 2b 00 00 4d 2b 00 00 4d 2b 00 00     M+..M+..M+..M+..
     14c:	4d 2b 00 00 a5 29 00 00 4d 2b 00 00 00 00 00 00     M+...)..M+......
	...
     180:	4d 2b 00 00 4d 2b 00 00 4d 2b 00 00 4d 2b 00 00     M+..M+..M+..M+..
     190:	00 00 00 00 2d 38 00 00 4d 2b 00 00 4d 2b 00 00     ....-8..M+..M+..
     1a0:	4d 2b 00 00 4d 2b 00 00 4d 2b 00 00 4d 2b 00 00     M+..M+..M+..M+..
     1b0:	3d 38 00 00 4d 2b 00 00 4d 2b 00 00 4d 2b 00 00     =8..M+..M+..M+..
     1c0:	4d 2b 00 00 4d 38 00 00 4d 2b 00 00 4d 2b 00 00     M+..M8..M+..M+..
     1d0:	4d 2b 00 00 5d 38 00 00 4d 2b 00 00 4d 2b 00 00     M+..]8..M+..M+..
     1e0:	6d 38 00 00 4d 2b 00 00 4d 2b 00 00 bd 38 00 00     m8..M+..M+...8..
     1f0:	cd 38 00 00 dd 38 00 00 ed 38 00 00 fd 38 00 00     .8...8...8...8..
     200:	0d 39 00 00 00 00 00 00 00 00 00 00 4d 2b 00 00     .9..........M+..
     210:	4d 2b 00 00 4d 2b 00 00 ed 04 00 00 fd 04 00 00     M+..M+..........
     220:	4d 2b 00 00 4d 2b 00 00 4d 2b 00 00 4d 2b 00 00     M+..M+..M+..M+..
     230:	4d 2b 00 00 4d 2b 00 00 4d 2b 00 00 4d 2b 00 00     M+..M+..M+..M+..
     240:	4d 2b 00 00 4d 2b 00 00 4d 2b 00 00 4d 2b 00 00     M+..M+..M+..M+..
     250:	4d 2b 00 00 4d 2b 00 00 4d 2b 00 00 4d 2b 00 00     M+..M+..M+..M+..
     260:	00 00 00 00                                         ....

00000264 <__do_global_dtors_aux>:
     264:	b510      	push	{r4, lr}
     266:	4c05      	ldr	r4, [pc, #20]	; (27c <__do_global_dtors_aux+0x18>)
     268:	7823      	ldrb	r3, [r4, #0]
     26a:	b933      	cbnz	r3, 27a <__do_global_dtors_aux+0x16>
     26c:	4b04      	ldr	r3, [pc, #16]	; (280 <__do_global_dtors_aux+0x1c>)
     26e:	b113      	cbz	r3, 276 <__do_global_dtors_aux+0x12>
     270:	4804      	ldr	r0, [pc, #16]	; (284 <__do_global_dtors_aux+0x20>)
     272:	f3af 8000 	nop.w
     276:	2301      	movs	r3, #1
     278:	7023      	strb	r3, [r4, #0]
     27a:	bd10      	pop	{r4, pc}
     27c:	20000270 	.word	0x20000270
     280:	00000000 	.word	0x00000000
     284:	000084d0 	.word	0x000084d0

00000288 <frame_dummy>:
     288:	4b0c      	ldr	r3, [pc, #48]	; (2bc <frame_dummy+0x34>)
     28a:	b143      	cbz	r3, 29e <frame_dummy+0x16>
     28c:	480c      	ldr	r0, [pc, #48]	; (2c0 <frame_dummy+0x38>)
     28e:	490d      	ldr	r1, [pc, #52]	; (2c4 <frame_dummy+0x3c>)
     290:	b510      	push	{r4, lr}
     292:	f3af 8000 	nop.w
     296:	480c      	ldr	r0, [pc, #48]	; (2c8 <frame_dummy+0x40>)
     298:	6803      	ldr	r3, [r0, #0]
     29a:	b923      	cbnz	r3, 2a6 <frame_dummy+0x1e>
     29c:	bd10      	pop	{r4, pc}
     29e:	480a      	ldr	r0, [pc, #40]	; (2c8 <frame_dummy+0x40>)
     2a0:	6803      	ldr	r3, [r0, #0]
     2a2:	b933      	cbnz	r3, 2b2 <frame_dummy+0x2a>
     2a4:	4770      	bx	lr
     2a6:	4b09      	ldr	r3, [pc, #36]	; (2cc <frame_dummy+0x44>)
     2a8:	2b00      	cmp	r3, #0
     2aa:	d0f7      	beq.n	29c <frame_dummy+0x14>
     2ac:	e8bd 4010 	ldmia.w	sp!, {r4, lr}
     2b0:	4718      	bx	r3
     2b2:	4b06      	ldr	r3, [pc, #24]	; (2cc <frame_dummy+0x44>)
     2b4:	2b00      	cmp	r3, #0
     2b6:	d0f5      	beq.n	2a4 <frame_dummy+0x1c>
     2b8:	4718      	bx	r3
     2ba:	bf00      	nop
     2bc:	00000000 	.word	0x00000000
     2c0:	000084d0 	.word	0x000084d0
     2c4:	20000274 	.word	0x20000274
     2c8:	000084d0 	.word	0x000084d0
     2cc:	00000000 	.word	0x00000000

000002d0 <vApplicationStackOverflowHook>:
     2d0:	b570      	push	{r4, r5, r6, lr}
     2d2:	4d10      	ldr	r5, [pc, #64]	; (314 <vApplicationStackOverflowHook+0x44>)
     2d4:	4b10      	ldr	r3, [pc, #64]	; (318 <vApplicationStackOverflowHook+0x48>)
     2d6:	4c11      	ldr	r4, [pc, #68]	; (31c <vApplicationStackOverflowHook+0x4c>)
     2d8:	b088      	sub	sp, #32
     2da:	221e      	movs	r2, #30
     2dc:	2130      	movs	r1, #48	; 0x30
     2de:	4606      	mov	r6, r0
     2e0:	4668      	mov	r0, sp
     2e2:	4798      	blx	r3
     2e4:	4628      	mov	r0, r5
     2e6:	47a0      	blx	r4
     2e8:	480d      	ldr	r0, [pc, #52]	; (320 <vApplicationStackOverflowHook+0x50>)
     2ea:	47a0      	blx	r4
     2ec:	4628      	mov	r0, r5
     2ee:	47a0      	blx	r4
     2f0:	480c      	ldr	r0, [pc, #48]	; (324 <vApplicationStackOverflowHook+0x54>)
     2f2:	47a0      	blx	r4
     2f4:	4632      	mov	r2, r6
     2f6:	490c      	ldr	r1, [pc, #48]	; (328 <vApplicationStackOverflowHook+0x58>)
     2f8:	4b0c      	ldr	r3, [pc, #48]	; (32c <vApplicationStackOverflowHook+0x5c>)
     2fa:	4668      	mov	r0, sp
     2fc:	4798      	blx	r3
     2fe:	4668      	mov	r0, sp
     300:	4b0b      	ldr	r3, [pc, #44]	; (330 <vApplicationStackOverflowHook+0x60>)
     302:	4798      	blx	r3
     304:	4b0b      	ldr	r3, [pc, #44]	; (334 <vApplicationStackOverflowHook+0x64>)
     306:	b281      	uxth	r1, r0
     308:	4668      	mov	r0, sp
     30a:	4798      	blx	r3
     30c:	4b0a      	ldr	r3, [pc, #40]	; (338 <vApplicationStackOverflowHook+0x68>)
     30e:	4798      	blx	r3
     310:	b008      	add	sp, #32
     312:	bd70      	pop	{r4, r5, r6, pc}
     314:	0000642e 	.word	0x0000642e
     318:	000059bf 	.word	0x000059bf
     31c:	000028a5 	.word	0x000028a5
     320:	00006469 	.word	0x00006469
     324:	00008026 	.word	0x00008026
     328:	000064a4 	.word	0x000064a4
     32c:	00005b49 	.word	0x00005b49
     330:	00005bbf 	.word	0x00005bbf
     334:	00002861 	.word	0x00002861
     338:	00002a85 	.word	0x00002a85

0000033c <vApplicationMallocFailedHook>:
     33c:	b570      	push	{r4, r5, r6, lr}
     33e:	4d06      	ldr	r5, [pc, #24]	; (358 <vApplicationMallocFailedHook+0x1c>)
     340:	4c06      	ldr	r4, [pc, #24]	; (35c <vApplicationMallocFailedHook+0x20>)
     342:	4628      	mov	r0, r5
     344:	47a0      	blx	r4
     346:	4806      	ldr	r0, [pc, #24]	; (360 <vApplicationMallocFailedHook+0x24>)
     348:	47a0      	blx	r4
     34a:	4628      	mov	r0, r5
     34c:	47a0      	blx	r4
     34e:	4b05      	ldr	r3, [pc, #20]	; (364 <vApplicationMallocFailedHook+0x28>)
     350:	e8bd 4070 	ldmia.w	sp!, {r4, r5, r6, lr}
     354:	4718      	bx	r3
     356:	bf00      	nop
     358:	0000642e 	.word	0x0000642e
     35c:	000028a5 	.word	0x000028a5
     360:	000064b7 	.word	0x000064b7
     364:	00002a85 	.word	0x00002a85

00000368 <gpio_set_pin_pull_mode.constprop.1>:
     368:	f000 031f 	and.w	r3, r0, #31
     36c:	0940      	lsrs	r0, r0, #5
     36e:	01c0      	lsls	r0, r0, #7
     370:	f100 4082 	add.w	r0, r0, #1090519040	; 0x41000000
     374:	f500 4000 	add.w	r0, r0, #32768	; 0x8000
     378:	2201      	movs	r2, #1
     37a:	409a      	lsls	r2, r3
     37c:	4403      	add	r3, r0
     37e:	6042      	str	r2, [r0, #4]
     380:	f893 1040 	ldrb.w	r1, [r3, #64]	; 0x40
     384:	f041 0104 	orr.w	r1, r1, #4
     388:	f883 1040 	strb.w	r1, [r3, #64]	; 0x40
     38c:	6182      	str	r2, [r0, #24]
     38e:	4770      	bx	lr

00000390 <gpio_set_pin_direction.constprop.0>:
     390:	f000 021f 	and.w	r2, r0, #31
     394:	2301      	movs	r3, #1
     396:	0940      	lsrs	r0, r0, #5
     398:	4093      	lsls	r3, r2
     39a:	01c0      	lsls	r0, r0, #7
     39c:	b29a      	uxth	r2, r3
     39e:	f100 4082 	add.w	r0, r0, #1090519040	; 0x41000000
     3a2:	f500 4000 	add.w	r0, r0, #32768	; 0x8000
     3a6:	f042 4280 	orr.w	r2, r2, #1073741824	; 0x40000000
     3aa:	f442 3200 	orr.w	r2, r2, #131072	; 0x20000
     3ae:	6043      	str	r3, [r0, #4]
     3b0:	6282      	str	r2, [r0, #40]	; 0x28
     3b2:	4a02      	ldr	r2, [pc, #8]	; (3bc <gpio_set_pin_direction.constprop.0+0x2c>)
     3b4:	ea42 4313 	orr.w	r3, r2, r3, lsr #16
     3b8:	6283      	str	r3, [r0, #40]	; 0x28
     3ba:	4770      	bx	lr
     3bc:	c0020000 	.word	0xc0020000

000003c0 <intializeSensorSelectLines>:
     3c0:	b570      	push	{r4, r5, r6, lr}
     3c2:	202d      	movs	r0, #45	; 0x2d
     3c4:	4c29      	ldr	r4, [pc, #164]	; (46c <intializeSensorSelectLines+0xac>)
     3c6:	4e2a      	ldr	r6, [pc, #168]	; (470 <intializeSensorSelectLines+0xb0>)
     3c8:	4d2a      	ldr	r5, [pc, #168]	; (474 <intializeSensorSelectLines+0xb4>)
     3ca:	47b0      	blx	r6
     3cc:	202d      	movs	r0, #45	; 0x2d
     3ce:	47a8      	blx	r5
     3d0:	f894 30cd 	ldrb.w	r3, [r4, #205]	; 0xcd
     3d4:	f003 03fe 	and.w	r3, r3, #254	; 0xfe
     3d8:	f884 30cd 	strb.w	r3, [r4, #205]	; 0xcd
     3dc:	202c      	movs	r0, #44	; 0x2c
     3de:	47b0      	blx	r6
     3e0:	202c      	movs	r0, #44	; 0x2c
     3e2:	47a8      	blx	r5
     3e4:	f894 30cc 	ldrb.w	r3, [r4, #204]	; 0xcc
     3e8:	f003 03fe 	and.w	r3, r3, #254	; 0xfe
     3ec:	f884 30cc 	strb.w	r3, [r4, #204]	; 0xcc
     3f0:	202b      	movs	r0, #43	; 0x2b
     3f2:	47b0      	blx	r6
     3f4:	202b      	movs	r0, #43	; 0x2b
     3f6:	47a8      	blx	r5
     3f8:	f894 30cb 	ldrb.w	r3, [r4, #203]	; 0xcb
     3fc:	f003 03fe 	and.w	r3, r3, #254	; 0xfe
     400:	f884 30cb 	strb.w	r3, [r4, #203]	; 0xcb
     404:	202a      	movs	r0, #42	; 0x2a
     406:	47b0      	blx	r6
     408:	202a      	movs	r0, #42	; 0x2a
     40a:	47a8      	blx	r5
     40c:	f894 30ca 	ldrb.w	r3, [r4, #202]	; 0xca
     410:	f003 03fe 	and.w	r3, r3, #254	; 0xfe
     414:	f884 30ca 	strb.w	r3, [r4, #202]	; 0xca
     418:	200b      	movs	r0, #11
     41a:	47b0      	blx	r6
     41c:	200b      	movs	r0, #11
     41e:	47a8      	blx	r5
     420:	f894 304b 	ldrb.w	r3, [r4, #75]	; 0x4b
     424:	f003 03fe 	and.w	r3, r3, #254	; 0xfe
     428:	f884 304b 	strb.w	r3, [r4, #75]	; 0x4b
     42c:	200a      	movs	r0, #10
     42e:	47b0      	blx	r6
     430:	200a      	movs	r0, #10
     432:	47a8      	blx	r5
     434:	f894 304a 	ldrb.w	r3, [r4, #74]	; 0x4a
     438:	f003 03fe 	and.w	r3, r3, #254	; 0xfe
     43c:	f884 304a 	strb.w	r3, [r4, #74]	; 0x4a
     440:	2009      	movs	r0, #9
     442:	47b0      	blx	r6
     444:	2009      	movs	r0, #9
     446:	47a8      	blx	r5
     448:	f894 3049 	ldrb.w	r3, [r4, #73]	; 0x49
     44c:	f003 03fe 	and.w	r3, r3, #254	; 0xfe
     450:	f884 3049 	strb.w	r3, [r4, #73]	; 0x49
     454:	2008      	movs	r0, #8
     456:	47b0      	blx	r6
     458:	2008      	movs	r0, #8
     45a:	47a8      	blx	r5
     45c:	f894 3048 	ldrb.w	r3, [r4, #72]	; 0x48
     460:	f003 03fe 	and.w	r3, r3, #254	; 0xfe
     464:	f884 3048 	strb.w	r3, [r4, #72]	; 0x48
     468:	bd70      	pop	{r4, r5, r6, pc}
     46a:	bf00      	nop
     46c:	41008000 	.word	0x41008000
     470:	00000391 	.word	0x00000391
     474:	00000369 	.word	0x00000369

00000478 <sensorAdcInitialize>:
     478:	4b00      	ldr	r3, [pc, #0]	; (47c <sensorAdcInitialize+0x4>)
     47a:	4718      	bx	r3
     47c:	00002c91 	.word	0x00002c91

00000480 <sensorAdcReadChannel>:
     480:	e92d 43f7 	stmdb	sp!, {r0, r1, r2, r4, r5, r6, r7, r8, r9, lr}
     484:	4d14      	ldr	r5, [pc, #80]	; (4d8 <sensorAdcReadChannel+0x58>)
     486:	f8df 9060 	ldr.w	r9, [pc, #96]	; 4e8 <sensorAdcReadChannel+0x68>
     48a:	ae02      	add	r6, sp, #8
     48c:	2300      	movs	r3, #0
     48e:	4604      	mov	r4, r0
     490:	f826 3d04 	strh.w	r3, [r6, #-4]!
     494:	460f      	mov	r7, r1
     496:	800b      	strh	r3, [r1, #0]
     498:	4601      	mov	r1, r0
     49a:	4b10      	ldr	r3, [pc, #64]	; (4dc <sensorAdcReadChannel+0x5c>)
     49c:	4628      	mov	r0, r5
     49e:	4690      	mov	r8, r2
     4a0:	4798      	blx	r3
     4a2:	4623      	mov	r3, r4
     4a4:	4621      	mov	r1, r4
     4a6:	2219      	movs	r2, #25
     4a8:	4628      	mov	r0, r5
     4aa:	47c8      	blx	r9
     4ac:	4632      	mov	r2, r6
     4ae:	4643      	mov	r3, r8
     4b0:	4621      	mov	r1, r4
     4b2:	4628      	mov	r0, r5
     4b4:	4e0a      	ldr	r6, [pc, #40]	; (4e0 <sensorAdcReadChannel+0x60>)
     4b6:	47b0      	blx	r6
     4b8:	4621      	mov	r1, r4
     4ba:	4606      	mov	r6, r0
     4bc:	4b09      	ldr	r3, [pc, #36]	; (4e4 <sensorAdcReadChannel+0x64>)
     4be:	4628      	mov	r0, r5
     4c0:	4798      	blx	r3
     4c2:	f89d 2005 	ldrb.w	r2, [sp, #5]
     4c6:	f89d 3004 	ldrb.w	r3, [sp, #4]
     4ca:	4630      	mov	r0, r6
     4cc:	ea43 2302 	orr.w	r3, r3, r2, lsl #8
     4d0:	803b      	strh	r3, [r7, #0]
     4d2:	b003      	add	sp, #12
     4d4:	e8bd 83f0 	ldmia.w	sp!, {r4, r5, r6, r7, r8, r9, pc}
     4d8:	20003e60 	.word	0x20003e60
     4dc:	00002e11 	.word	0x00002e11
     4e0:	00002e31 	.word	0x00002e31
     4e4:	00002e21 	.word	0x00002e21
     4e8:	00002e9d 	.word	0x00002e9d

000004ec <ADC0_0_Handler>:
     4ec:	4801      	ldr	r0, [pc, #4]	; (4f4 <ADC0_0_Handler+0x8>)
     4ee:	4b02      	ldr	r3, [pc, #8]	; (4f8 <ADC0_0_Handler+0xc>)
     4f0:	4718      	bx	r3
     4f2:	bf00      	nop
     4f4:	000064f2 	.word	0x000064f2
     4f8:	000028a5 	.word	0x000028a5

000004fc <ADC0_1_Handler>:
     4fc:	4801      	ldr	r0, [pc, #4]	; (504 <ADC0_1_Handler+0x8>)
     4fe:	4b02      	ldr	r3, [pc, #8]	; (508 <ADC0_1_Handler+0xc>)
     500:	4718      	bx	r3
     502:	bf00      	nop
     504:	00006504 	.word	0x00006504
     508:	000028a5 	.word	0x000028a5

0000050c <FotaFwDownloadCheckTImerCallBack>:
     50c:	b510      	push	{r4, lr}
     50e:	4b03      	ldr	r3, [pc, #12]	; (51c <FotaFwDownloadCheckTImerCallBack+0x10>)
     510:	4803      	ldr	r0, [pc, #12]	; (520 <FotaFwDownloadCheckTImerCallBack+0x14>)
     512:	4798      	blx	r3
     514:	4b03      	ldr	r3, [pc, #12]	; (524 <FotaFwDownloadCheckTImerCallBack+0x18>)
     516:	e8bd 4010 	ldmia.w	sp!, {r4, lr}
     51a:	4718      	bx	r3
     51c:	000028a5 	.word	0x000028a5
     520:	00006516 	.word	0x00006516
     524:	00002a85 	.word	0x00002a85

00000528 <validateCommonCommandResponse>:
     528:	b508      	push	{r3, lr}
     52a:	2202      	movs	r2, #2
     52c:	4903      	ldr	r1, [pc, #12]	; (53c <validateCommonCommandResponse+0x14>)
     52e:	4b04      	ldr	r3, [pc, #16]	; (540 <validateCommonCommandResponse+0x18>)
     530:	4798      	blx	r3
     532:	fab0 f080 	clz	r0, r0
     536:	0940      	lsrs	r0, r0, #5
     538:	bd08      	pop	{r3, pc}
     53a:	bf00      	nop
     53c:	00007ab9 	.word	0x00007ab9
     540:	00005957 	.word	0x00005957

00000544 <FotaAppTask>:
     544:	e92d 47ff 	stmdb	sp!, {r0, r1, r2, r3, r4, r5, r6, r7, r8, r9, sl, lr}
     548:	4ba2      	ldr	r3, [pc, #648]	; (7d4 <FotaAppTask+0x290>)
     54a:	9300      	str	r3, [sp, #0]
     54c:	2201      	movs	r2, #1
     54e:	2300      	movs	r3, #0
     550:	49a1      	ldr	r1, [pc, #644]	; (7d8 <FotaAppTask+0x294>)
     552:	48a2      	ldr	r0, [pc, #648]	; (7dc <FotaAppTask+0x298>)
     554:	4ca2      	ldr	r4, [pc, #648]	; (7e0 <FotaAppTask+0x29c>)
     556:	47a0      	blx	r4
     558:	4605      	mov	r5, r0
     55a:	2800      	cmp	r0, #0
     55c:	f000 83eb 	beq.w	d36 <FotaAppTask+0x7f2>
     560:	4ba0      	ldr	r3, [pc, #640]	; (7e4 <FotaAppTask+0x2a0>)
     562:	4798      	blx	r3
     564:	2400      	movs	r4, #0
     566:	4602      	mov	r2, r0
     568:	9400      	str	r4, [sp, #0]
     56a:	4628      	mov	r0, r5
     56c:	4623      	mov	r3, r4
     56e:	2101      	movs	r1, #1
     570:	4d9d      	ldr	r5, [pc, #628]	; (7e8 <FotaAppTask+0x2a4>)
     572:	47a8      	blx	r5
     574:	2801      	cmp	r0, #1
     576:	f040 83de 	bne.w	d36 <FotaAppTask+0x7f2>
     57a:	4b9c      	ldr	r3, [pc, #624]	; (7ec <FotaAppTask+0x2a8>)
     57c:	705c      	strb	r4, [r3, #1]
     57e:	709c      	strb	r4, [r3, #2]
     580:	70dc      	strb	r4, [r3, #3]
     582:	701c      	strb	r4, [r3, #0]
     584:	711c      	strb	r4, [r3, #4]
     586:	4f9a      	ldr	r7, [pc, #616]	; (7f0 <FotaAppTask+0x2ac>)
     588:	4c98      	ldr	r4, [pc, #608]	; (7ec <FotaAppTask+0x2a8>)
     58a:	e00e      	b.n	5aa <FotaAppTask+0x66>
     58c:	2301      	movs	r3, #1
     58e:	7063      	strb	r3, [r4, #1]
     590:	2300      	movs	r3, #0
     592:	70a3      	strb	r3, [r4, #2]
     594:	70e3      	strb	r3, [r4, #3]
     596:	7023      	strb	r3, [r4, #0]
     598:	7123      	strb	r3, [r4, #4]
     59a:	4b96      	ldr	r3, [pc, #600]	; (7f4 <FotaAppTask+0x2b0>)
     59c:	4798      	blx	r3
     59e:	4b96      	ldr	r3, [pc, #600]	; (7f8 <FotaAppTask+0x2b4>)
     5a0:	4798      	blx	r3
     5a2:	f44f 7016 	mov.w	r0, #600	; 0x258
     5a6:	4b95      	ldr	r3, [pc, #596]	; (7fc <FotaAppTask+0x2b8>)
     5a8:	4798      	blx	r3
     5aa:	47b8      	blx	r7
     5ac:	2804      	cmp	r0, #4
     5ae:	d1fc      	bne.n	5aa <FotaAppTask+0x66>
     5b0:	7823      	ldrb	r3, [r4, #0]
     5b2:	2b00      	cmp	r3, #0
     5b4:	d1f9      	bne.n	5aa <FotaAppTask+0x66>
     5b6:	7863      	ldrb	r3, [r4, #1]
     5b8:	2b07      	cmp	r3, #7
     5ba:	d8f0      	bhi.n	59e <FotaAppTask+0x5a>
     5bc:	a201      	add	r2, pc, #4	; (adr r2, 5c4 <FotaAppTask+0x80>)
     5be:	f852 f023 	ldr.w	pc, [r2, r3, lsl #2]
     5c2:	bf00      	nop
     5c4:	0000058d 	.word	0x0000058d
     5c8:	000005e5 	.word	0x000005e5
     5cc:	000006b1 	.word	0x000006b1
     5d0:	0000074f 	.word	0x0000074f
     5d4:	00000973 	.word	0x00000973
     5d8:	00000a13 	.word	0x00000a13
     5dc:	00000bff 	.word	0x00000bff
     5e0:	00000c87 	.word	0x00000c87
     5e4:	78a3      	ldrb	r3, [r4, #2]
     5e6:	2b00      	cmp	r3, #0
     5e8:	d13d      	bne.n	666 <FotaAppTask+0x122>
     5ea:	f8df 824c 	ldr.w	r8, [pc, #588]	; 838 <FotaAppTask+0x2f4>
     5ee:	4e83      	ldr	r6, [pc, #524]	; (7fc <FotaAppTask+0x2b8>)
     5f0:	f241 7070 	movw	r0, #6000	; 0x1770
     5f4:	47b0      	blx	r6
     5f6:	f8d8 0000 	ldr.w	r0, [r8]
     5fa:	4b81      	ldr	r3, [pc, #516]	; (800 <FotaAppTask+0x2bc>)
     5fc:	4798      	blx	r3
     5fe:	4605      	mov	r5, r0
     600:	bb78      	cbnz	r0, 662 <FotaAppTask+0x11e>
     602:	f8df a240 	ldr.w	sl, [pc, #576]	; 844 <FotaAppTask+0x300>
     606:	4b7f      	ldr	r3, [pc, #508]	; (804 <FotaAppTask+0x2c0>)
     608:	4601      	mov	r1, r0
     60a:	f8da 0000 	ldr.w	r0, [sl]
     60e:	4798      	blx	r3
     610:	2801      	cmp	r0, #1
     612:	d122      	bne.n	65a <FotaAppTask+0x116>
     614:	2305      	movs	r3, #5
     616:	f88d 3008 	strb.w	r3, [sp, #8]
     61a:	231e      	movs	r3, #30
     61c:	f88d 3009 	strb.w	r3, [sp, #9]
     620:	f8d8 0000 	ldr.w	r0, [r8]
     624:	f8df 9220 	ldr.w	r9, [pc, #544]	; 848 <FotaAppTask+0x304>
     628:	9503      	str	r5, [sp, #12]
     62a:	462b      	mov	r3, r5
     62c:	f44f 72fa 	mov.w	r2, #500	; 0x1f4
     630:	a902      	add	r1, sp, #8
     632:	47c8      	blx	r9
     634:	2801      	cmp	r0, #1
     636:	4680      	mov	r8, r0
     638:	d108      	bne.n	64c <FotaAppTask+0x108>
     63a:	462b      	mov	r3, r5
     63c:	462a      	mov	r2, r5
     63e:	4629      	mov	r1, r5
     640:	f8da 0000 	ldr.w	r0, [sl]
     644:	47c8      	blx	r9
     646:	f884 8002 	strb.w	r8, [r4, #2]
     64a:	e002      	b.n	652 <FotaAppTask+0x10e>
     64c:	486e      	ldr	r0, [pc, #440]	; (808 <FotaAppTask+0x2c4>)
     64e:	4b6f      	ldr	r3, [pc, #444]	; (80c <FotaAppTask+0x2c8>)
     650:	4798      	blx	r3
     652:	f44f 70fa 	mov.w	r0, #500	; 0x1f4
     656:	47b0      	blx	r6
     658:	e7a1      	b.n	59e <FotaAppTask+0x5a>
     65a:	486d      	ldr	r0, [pc, #436]	; (810 <FotaAppTask+0x2cc>)
     65c:	4b6b      	ldr	r3, [pc, #428]	; (80c <FotaAppTask+0x2c8>)
     65e:	4798      	blx	r3
     660:	e79d      	b.n	59e <FotaAppTask+0x5a>
     662:	486c      	ldr	r0, [pc, #432]	; (814 <FotaAppTask+0x2d0>)
     664:	e7fa      	b.n	65c <FotaAppTask+0x118>
     666:	2b01      	cmp	r3, #1
     668:	d199      	bne.n	59e <FotaAppTask+0x5a>
     66a:	4b6b      	ldr	r3, [pc, #428]	; (818 <FotaAppTask+0x2d4>)
     66c:	496b      	ldr	r1, [pc, #428]	; (81c <FotaAppTask+0x2d8>)
     66e:	6818      	ldr	r0, [r3, #0]
     670:	4b6b      	ldr	r3, [pc, #428]	; (820 <FotaAppTask+0x2dc>)
     672:	f44f 627a 	mov.w	r2, #4000	; 0xfa0
     676:	4798      	blx	r3
     678:	2801      	cmp	r0, #1
     67a:	d190      	bne.n	59e <FotaAppTask+0x5a>
     67c:	7a23      	ldrb	r3, [r4, #8]
     67e:	4d63      	ldr	r5, [pc, #396]	; (80c <FotaAppTask+0x2c8>)
     680:	4e68      	ldr	r6, [pc, #416]	; (824 <FotaAppTask+0x2e0>)
     682:	2b1e      	cmp	r3, #30
     684:	f040 8352 	bne.w	d2c <FotaAppTask+0x7e8>
     688:	68e0      	ldr	r0, [r4, #12]
     68a:	4b67      	ldr	r3, [pc, #412]	; (828 <FotaAppTask+0x2e4>)
     68c:	4798      	blx	r3
     68e:	4680      	mov	r8, r0
     690:	2800      	cmp	r0, #0
     692:	f000 8347 	beq.w	d24 <FotaAppTask+0x7e0>
     696:	4865      	ldr	r0, [pc, #404]	; (82c <FotaAppTask+0x2e8>)
     698:	47a8      	blx	r5
     69a:	4b65      	ldr	r3, [pc, #404]	; (830 <FotaAppTask+0x2ec>)
     69c:	8961      	ldrh	r1, [r4, #10]
     69e:	68e0      	ldr	r0, [r4, #12]
     6a0:	4798      	blx	r3
     6a2:	4864      	ldr	r0, [pc, #400]	; (834 <FotaAppTask+0x2f0>)
     6a4:	47a8      	blx	r5
     6a6:	2300      	movs	r3, #0
     6a8:	70a3      	strb	r3, [r4, #2]
     6aa:	2302      	movs	r3, #2
     6ac:	7063      	strb	r3, [r4, #1]
     6ae:	e12a      	b.n	906 <FotaAppTask+0x3c2>
     6b0:	78a3      	ldrb	r3, [r4, #2]
     6b2:	bb23      	cbnz	r3, 6fe <FotaAppTask+0x1ba>
     6b4:	4e60      	ldr	r6, [pc, #384]	; (838 <FotaAppTask+0x2f4>)
     6b6:	4b52      	ldr	r3, [pc, #328]	; (800 <FotaAppTask+0x2bc>)
     6b8:	6830      	ldr	r0, [r6, #0]
     6ba:	4798      	blx	r3
     6bc:	4605      	mov	r5, r0
     6be:	2800      	cmp	r0, #0
     6c0:	d1cf      	bne.n	662 <FotaAppTask+0x11e>
     6c2:	f8df a180 	ldr.w	sl, [pc, #384]	; 844 <FotaAppTask+0x300>
     6c6:	4b4f      	ldr	r3, [pc, #316]	; (804 <FotaAppTask+0x2c0>)
     6c8:	4601      	mov	r1, r0
     6ca:	f8da 0000 	ldr.w	r0, [sl]
     6ce:	4798      	blx	r3
     6d0:	2801      	cmp	r0, #1
     6d2:	d1c2      	bne.n	65a <FotaAppTask+0x116>
     6d4:	2305      	movs	r3, #5
     6d6:	f88d 3008 	strb.w	r3, [sp, #8]
     6da:	2320      	movs	r3, #32
     6dc:	f88d 3009 	strb.w	r3, [sp, #9]
     6e0:	6830      	ldr	r0, [r6, #0]
     6e2:	f8df 9164 	ldr.w	r9, [pc, #356]	; 848 <FotaAppTask+0x304>
     6e6:	9503      	str	r5, [sp, #12]
     6e8:	462b      	mov	r3, r5
     6ea:	f44f 72fa 	mov.w	r2, #500	; 0x1f4
     6ee:	a902      	add	r1, sp, #8
     6f0:	47c8      	blx	r9
     6f2:	2801      	cmp	r0, #1
     6f4:	4680      	mov	r8, r0
     6f6:	4e41      	ldr	r6, [pc, #260]	; (7fc <FotaAppTask+0x2b8>)
     6f8:	d09f      	beq.n	63a <FotaAppTask+0xf6>
     6fa:	4850      	ldr	r0, [pc, #320]	; (83c <FotaAppTask+0x2f8>)
     6fc:	e7a7      	b.n	64e <FotaAppTask+0x10a>
     6fe:	2b01      	cmp	r3, #1
     700:	f47f af4d 	bne.w	59e <FotaAppTask+0x5a>
     704:	4b44      	ldr	r3, [pc, #272]	; (818 <FotaAppTask+0x2d4>)
     706:	4945      	ldr	r1, [pc, #276]	; (81c <FotaAppTask+0x2d8>)
     708:	6818      	ldr	r0, [r3, #0]
     70a:	4b45      	ldr	r3, [pc, #276]	; (820 <FotaAppTask+0x2dc>)
     70c:	f44f 627a 	mov.w	r2, #4000	; 0xfa0
     710:	4798      	blx	r3
     712:	2801      	cmp	r0, #1
     714:	f47f af43 	bne.w	59e <FotaAppTask+0x5a>
     718:	7a23      	ldrb	r3, [r4, #8]
     71a:	4d3c      	ldr	r5, [pc, #240]	; (80c <FotaAppTask+0x2c8>)
     71c:	4e41      	ldr	r6, [pc, #260]	; (824 <FotaAppTask+0x2e0>)
     71e:	2b20      	cmp	r3, #32
     720:	f040 8304 	bne.w	d2c <FotaAppTask+0x7e8>
     724:	68e0      	ldr	r0, [r4, #12]
     726:	4b40      	ldr	r3, [pc, #256]	; (828 <FotaAppTask+0x2e4>)
     728:	4798      	blx	r3
     72a:	4680      	mov	r8, r0
     72c:	2800      	cmp	r0, #0
     72e:	f000 82f9 	beq.w	d24 <FotaAppTask+0x7e0>
     732:	4843      	ldr	r0, [pc, #268]	; (840 <FotaAppTask+0x2fc>)
     734:	47a8      	blx	r5
     736:	4b3e      	ldr	r3, [pc, #248]	; (830 <FotaAppTask+0x2ec>)
     738:	8961      	ldrh	r1, [r4, #10]
     73a:	68e0      	ldr	r0, [r4, #12]
     73c:	4798      	blx	r3
     73e:	483d      	ldr	r0, [pc, #244]	; (834 <FotaAppTask+0x2f0>)
     740:	47a8      	blx	r5
     742:	2300      	movs	r3, #0
     744:	70a3      	strb	r3, [r4, #2]
     746:	2203      	movs	r2, #3
     748:	7062      	strb	r2, [r4, #1]
     74a:	70e3      	strb	r3, [r4, #3]
     74c:	e0db      	b.n	906 <FotaAppTask+0x3c2>
     74e:	f894 8003 	ldrb.w	r8, [r4, #3]
     752:	4e2a      	ldr	r6, [pc, #168]	; (7fc <FotaAppTask+0x2b8>)
     754:	f1b8 0f00 	cmp.w	r8, #0
     758:	d078      	beq.n	84c <FotaAppTask+0x308>
     75a:	f1b8 0f01 	cmp.w	r8, #1
     75e:	f47f af1e 	bne.w	59e <FotaAppTask+0x5a>
     762:	78a3      	ldrb	r3, [r4, #2]
     764:	2b00      	cmp	r3, #0
     766:	f040 80de 	bne.w	926 <FotaAppTask+0x3e2>
     76a:	f8df 80cc 	ldr.w	r8, [pc, #204]	; 838 <FotaAppTask+0x2f4>
     76e:	4b24      	ldr	r3, [pc, #144]	; (800 <FotaAppTask+0x2bc>)
     770:	f8d8 0000 	ldr.w	r0, [r8]
     774:	4798      	blx	r3
     776:	4605      	mov	r5, r0
     778:	2800      	cmp	r0, #0
     77a:	f47f af72 	bne.w	662 <FotaAppTask+0x11e>
     77e:	f8df a0c4 	ldr.w	sl, [pc, #196]	; 844 <FotaAppTask+0x300>
     782:	4b20      	ldr	r3, [pc, #128]	; (804 <FotaAppTask+0x2c0>)
     784:	4601      	mov	r1, r0
     786:	f8da 0000 	ldr.w	r0, [sl]
     78a:	4798      	blx	r3
     78c:	2801      	cmp	r0, #1
     78e:	f47f af64 	bne.w	65a <FotaAppTask+0x116>
     792:	2305      	movs	r3, #5
     794:	f88d 3008 	strb.w	r3, [sp, #8]
     798:	2322      	movs	r3, #34	; 0x22
     79a:	f88d 3009 	strb.w	r3, [sp, #9]
     79e:	f8d8 0000 	ldr.w	r0, [r8]
     7a2:	f8df 90a4 	ldr.w	r9, [pc, #164]	; 848 <FotaAppTask+0x304>
     7a6:	9503      	str	r5, [sp, #12]
     7a8:	462b      	mov	r3, r5
     7aa:	f44f 72fa 	mov.w	r2, #500	; 0x1f4
     7ae:	a902      	add	r1, sp, #8
     7b0:	47c8      	blx	r9
     7b2:	2801      	cmp	r0, #1
     7b4:	4680      	mov	r8, r0
     7b6:	f040 80b4 	bne.w	922 <FotaAppTask+0x3de>
     7ba:	462b      	mov	r3, r5
     7bc:	462a      	mov	r2, r5
     7be:	4629      	mov	r1, r5
     7c0:	f8da 0000 	ldr.w	r0, [sl]
     7c4:	47c8      	blx	r9
     7c6:	2303      	movs	r3, #3
     7c8:	f884 8002 	strb.w	r8, [r4, #2]
     7cc:	7063      	strb	r3, [r4, #1]
     7ce:	f884 8003 	strb.w	r8, [r4, #3]
     7d2:	e73e      	b.n	652 <FotaAppTask+0x10e>
     7d4:	0000050d 	.word	0x0000050d
     7d8:	05265c00 	.word	0x05265c00
     7dc:	00006559 	.word	0x00006559
     7e0:	000055dd 	.word	0x000055dd
     7e4:	00004d25 	.word	0x00004d25
     7e8:	00005631 	.word	0x00005631
     7ec:	2000028c 	.word	0x2000028c
     7f0:	000022e5 	.word	0x000022e5
     7f4:	00002051 	.word	0x00002051
     7f8:	00002a65 	.word	0x00002a65
     7fc:	00004f09 	.word	0x00004f09
     800:	000049b9 	.word	0x000049b9
     804:	00004805 	.word	0x00004805
     808:	00006574 	.word	0x00006574
     80c:	000028a5 	.word	0x000028a5
     810:	000065a2 	.word	0x000065a2
     814:	000065cb 	.word	0x000065cb
     818:	20003584 	.word	0x20003584
     81c:	20000294 	.word	0x20000294
     820:	00004699 	.word	0x00004699
     824:	000040e1 	.word	0x000040e1
     828:	00000529 	.word	0x00000529
     82c:	000065e7 	.word	0x000065e7
     830:	00002861 	.word	0x00002861
     834:	00008026 	.word	0x00008026
     838:	20003578 	.word	0x20003578
     83c:	00006677 	.word	0x00006677
     840:	000066b0 	.word	0x000066b0
     844:	2000358c 	.word	0x2000358c
     848:	000043dd 	.word	0x000043dd
     84c:	78a3      	ldrb	r3, [r4, #2]
     84e:	bba3      	cbnz	r3, 8ba <FotaAppTask+0x376>
     850:	f8df 82bc 	ldr.w	r8, [pc, #700]	; b10 <FotaAppTask+0x5cc>
     854:	4b9e      	ldr	r3, [pc, #632]	; (ad0 <FotaAppTask+0x58c>)
     856:	f8d8 0000 	ldr.w	r0, [r8]
     85a:	4798      	blx	r3
     85c:	4605      	mov	r5, r0
     85e:	2800      	cmp	r0, #0
     860:	f47f aeff 	bne.w	662 <FotaAppTask+0x11e>
     864:	f8df a2e4 	ldr.w	sl, [pc, #740]	; b4c <FotaAppTask+0x608>
     868:	4b9a      	ldr	r3, [pc, #616]	; (ad4 <FotaAppTask+0x590>)
     86a:	4601      	mov	r1, r0
     86c:	f8da 0000 	ldr.w	r0, [sl]
     870:	4798      	blx	r3
     872:	2801      	cmp	r0, #1
     874:	f47f aef1 	bne.w	65a <FotaAppTask+0x116>
     878:	2305      	movs	r3, #5
     87a:	f88d 3008 	strb.w	r3, [sp, #8]
     87e:	2321      	movs	r3, #33	; 0x21
     880:	f88d 3009 	strb.w	r3, [sp, #9]
     884:	f8d8 0000 	ldr.w	r0, [r8]
     888:	f8df 92c4 	ldr.w	r9, [pc, #708]	; b50 <FotaAppTask+0x60c>
     88c:	9503      	str	r5, [sp, #12]
     88e:	462b      	mov	r3, r5
     890:	f44f 72fa 	mov.w	r2, #500	; 0x1f4
     894:	a902      	add	r1, sp, #8
     896:	47c8      	blx	r9
     898:	2801      	cmp	r0, #1
     89a:	4680      	mov	r8, r0
     89c:	d10b      	bne.n	8b6 <FotaAppTask+0x372>
     89e:	462b      	mov	r3, r5
     8a0:	462a      	mov	r2, r5
     8a2:	4629      	mov	r1, r5
     8a4:	f8da 0000 	ldr.w	r0, [sl]
     8a8:	47c8      	blx	r9
     8aa:	2303      	movs	r3, #3
     8ac:	f884 8002 	strb.w	r8, [r4, #2]
     8b0:	7063      	strb	r3, [r4, #1]
     8b2:	70e5      	strb	r5, [r4, #3]
     8b4:	e6cd      	b.n	652 <FotaAppTask+0x10e>
     8b6:	4888      	ldr	r0, [pc, #544]	; (ad8 <FotaAppTask+0x594>)
     8b8:	e6c9      	b.n	64e <FotaAppTask+0x10a>
     8ba:	2b01      	cmp	r3, #1
     8bc:	f47f ae6f 	bne.w	59e <FotaAppTask+0x5a>
     8c0:	4b86      	ldr	r3, [pc, #536]	; (adc <FotaAppTask+0x598>)
     8c2:	4987      	ldr	r1, [pc, #540]	; (ae0 <FotaAppTask+0x59c>)
     8c4:	6818      	ldr	r0, [r3, #0]
     8c6:	4b87      	ldr	r3, [pc, #540]	; (ae4 <FotaAppTask+0x5a0>)
     8c8:	f44f 627a 	mov.w	r2, #4000	; 0xfa0
     8cc:	4798      	blx	r3
     8ce:	2801      	cmp	r0, #1
     8d0:	4682      	mov	sl, r0
     8d2:	f47f ae64 	bne.w	59e <FotaAppTask+0x5a>
     8d6:	7a23      	ldrb	r3, [r4, #8]
     8d8:	4d83      	ldr	r5, [pc, #524]	; (ae8 <FotaAppTask+0x5a4>)
     8da:	4e84      	ldr	r6, [pc, #528]	; (aec <FotaAppTask+0x5a8>)
     8dc:	2b21      	cmp	r3, #33	; 0x21
     8de:	d11b      	bne.n	918 <FotaAppTask+0x3d4>
     8e0:	68e0      	ldr	r0, [r4, #12]
     8e2:	4b83      	ldr	r3, [pc, #524]	; (af0 <FotaAppTask+0x5ac>)
     8e4:	4798      	blx	r3
     8e6:	4681      	mov	r9, r0
     8e8:	b178      	cbz	r0, 90a <FotaAppTask+0x3c6>
     8ea:	4882      	ldr	r0, [pc, #520]	; (af4 <FotaAppTask+0x5b0>)
     8ec:	47a8      	blx	r5
     8ee:	4b82      	ldr	r3, [pc, #520]	; (af8 <FotaAppTask+0x5b4>)
     8f0:	8961      	ldrh	r1, [r4, #10]
     8f2:	68e0      	ldr	r0, [r4, #12]
     8f4:	4798      	blx	r3
     8f6:	4881      	ldr	r0, [pc, #516]	; (afc <FotaAppTask+0x5b8>)
     8f8:	47a8      	blx	r5
     8fa:	2303      	movs	r3, #3
     8fc:	f884 8002 	strb.w	r8, [r4, #2]
     900:	7063      	strb	r3, [r4, #1]
     902:	f884 a003 	strb.w	sl, [r4, #3]
     906:	68e0      	ldr	r0, [r4, #12]
     908:	e6a5      	b.n	656 <FotaAppTask+0x112>
     90a:	487d      	ldr	r0, [pc, #500]	; (b00 <FotaAppTask+0x5bc>)
     90c:	47a8      	blx	r5
     90e:	487b      	ldr	r0, [pc, #492]	; (afc <FotaAppTask+0x5b8>)
     910:	47a8      	blx	r5
     912:	f884 9002 	strb.w	r9, [r4, #2]
     916:	e7f6      	b.n	906 <FotaAppTask+0x3c2>
     918:	487a      	ldr	r0, [pc, #488]	; (b04 <FotaAppTask+0x5c0>)
     91a:	47a8      	blx	r5
     91c:	f884 8002 	strb.w	r8, [r4, #2]
     920:	e7f1      	b.n	906 <FotaAppTask+0x3c2>
     922:	4879      	ldr	r0, [pc, #484]	; (b08 <FotaAppTask+0x5c4>)
     924:	e693      	b.n	64e <FotaAppTask+0x10a>
     926:	2b01      	cmp	r3, #1
     928:	f47f ae39 	bne.w	59e <FotaAppTask+0x5a>
     92c:	4b6b      	ldr	r3, [pc, #428]	; (adc <FotaAppTask+0x598>)
     92e:	496c      	ldr	r1, [pc, #432]	; (ae0 <FotaAppTask+0x59c>)
     930:	6818      	ldr	r0, [r3, #0]
     932:	4b6c      	ldr	r3, [pc, #432]	; (ae4 <FotaAppTask+0x5a0>)
     934:	f44f 627a 	mov.w	r2, #4000	; 0xfa0
     938:	4798      	blx	r3
     93a:	2801      	cmp	r0, #1
     93c:	f47f ae2f 	bne.w	59e <FotaAppTask+0x5a>
     940:	7a23      	ldrb	r3, [r4, #8]
     942:	4d69      	ldr	r5, [pc, #420]	; (ae8 <FotaAppTask+0x5a4>)
     944:	4e69      	ldr	r6, [pc, #420]	; (aec <FotaAppTask+0x5a8>)
     946:	2b22      	cmp	r3, #34	; 0x22
     948:	f040 81f0 	bne.w	d2c <FotaAppTask+0x7e8>
     94c:	68e0      	ldr	r0, [r4, #12]
     94e:	4b68      	ldr	r3, [pc, #416]	; (af0 <FotaAppTask+0x5ac>)
     950:	4798      	blx	r3
     952:	4680      	mov	r8, r0
     954:	2800      	cmp	r0, #0
     956:	f000 81e5 	beq.w	d24 <FotaAppTask+0x7e0>
     95a:	486c      	ldr	r0, [pc, #432]	; (b0c <FotaAppTask+0x5c8>)
     95c:	47a8      	blx	r5
     95e:	4b66      	ldr	r3, [pc, #408]	; (af8 <FotaAppTask+0x5b4>)
     960:	8961      	ldrh	r1, [r4, #10]
     962:	68e0      	ldr	r0, [r4, #12]
     964:	4798      	blx	r3
     966:	4865      	ldr	r0, [pc, #404]	; (afc <FotaAppTask+0x5b8>)
     968:	47a8      	blx	r5
     96a:	2300      	movs	r3, #0
     96c:	70a3      	strb	r3, [r4, #2]
     96e:	2204      	movs	r2, #4
     970:	e6ea      	b.n	748 <FotaAppTask+0x204>
     972:	78a3      	ldrb	r3, [r4, #2]
     974:	bb3b      	cbnz	r3, 9c6 <FotaAppTask+0x482>
     976:	4e66      	ldr	r6, [pc, #408]	; (b10 <FotaAppTask+0x5cc>)
     978:	4b55      	ldr	r3, [pc, #340]	; (ad0 <FotaAppTask+0x58c>)
     97a:	6830      	ldr	r0, [r6, #0]
     97c:	4798      	blx	r3
     97e:	4605      	mov	r5, r0
     980:	2800      	cmp	r0, #0
     982:	f47f ae6e 	bne.w	662 <FotaAppTask+0x11e>
     986:	f8df a1c4 	ldr.w	sl, [pc, #452]	; b4c <FotaAppTask+0x608>
     98a:	4b52      	ldr	r3, [pc, #328]	; (ad4 <FotaAppTask+0x590>)
     98c:	4601      	mov	r1, r0
     98e:	f8da 0000 	ldr.w	r0, [sl]
     992:	4798      	blx	r3
     994:	2801      	cmp	r0, #1
     996:	f47f ae60 	bne.w	65a <FotaAppTask+0x116>
     99a:	2305      	movs	r3, #5
     99c:	f88d 3008 	strb.w	r3, [sp, #8]
     9a0:	231f      	movs	r3, #31
     9a2:	f88d 3009 	strb.w	r3, [sp, #9]
     9a6:	6830      	ldr	r0, [r6, #0]
     9a8:	f8df 91a4 	ldr.w	r9, [pc, #420]	; b50 <FotaAppTask+0x60c>
     9ac:	9503      	str	r5, [sp, #12]
     9ae:	462b      	mov	r3, r5
     9b0:	f44f 72fa 	mov.w	r2, #500	; 0x1f4
     9b4:	a902      	add	r1, sp, #8
     9b6:	47c8      	blx	r9
     9b8:	2801      	cmp	r0, #1
     9ba:	4680      	mov	r8, r0
     9bc:	4e55      	ldr	r6, [pc, #340]	; (b14 <FotaAppTask+0x5d0>)
     9be:	f43f ae3c 	beq.w	63a <FotaAppTask+0xf6>
     9c2:	4855      	ldr	r0, [pc, #340]	; (b18 <FotaAppTask+0x5d4>)
     9c4:	e643      	b.n	64e <FotaAppTask+0x10a>
     9c6:	2b01      	cmp	r3, #1
     9c8:	f47f ade9 	bne.w	59e <FotaAppTask+0x5a>
     9cc:	4b43      	ldr	r3, [pc, #268]	; (adc <FotaAppTask+0x598>)
     9ce:	4944      	ldr	r1, [pc, #272]	; (ae0 <FotaAppTask+0x59c>)
     9d0:	6818      	ldr	r0, [r3, #0]
     9d2:	4b44      	ldr	r3, [pc, #272]	; (ae4 <FotaAppTask+0x5a0>)
     9d4:	f44f 627a 	mov.w	r2, #4000	; 0xfa0
     9d8:	4798      	blx	r3
     9da:	2801      	cmp	r0, #1
     9dc:	f47f addf 	bne.w	59e <FotaAppTask+0x5a>
     9e0:	7a23      	ldrb	r3, [r4, #8]
     9e2:	4d41      	ldr	r5, [pc, #260]	; (ae8 <FotaAppTask+0x5a4>)
     9e4:	4e41      	ldr	r6, [pc, #260]	; (aec <FotaAppTask+0x5a8>)
     9e6:	2b1f      	cmp	r3, #31
     9e8:	f040 81a0 	bne.w	d2c <FotaAppTask+0x7e8>
     9ec:	68e0      	ldr	r0, [r4, #12]
     9ee:	4b40      	ldr	r3, [pc, #256]	; (af0 <FotaAppTask+0x5ac>)
     9f0:	4798      	blx	r3
     9f2:	4680      	mov	r8, r0
     9f4:	2800      	cmp	r0, #0
     9f6:	f000 8195 	beq.w	d24 <FotaAppTask+0x7e0>
     9fa:	4848      	ldr	r0, [pc, #288]	; (b1c <FotaAppTask+0x5d8>)
     9fc:	47a8      	blx	r5
     9fe:	68e0      	ldr	r0, [r4, #12]
     a00:	8961      	ldrh	r1, [r4, #10]
     a02:	4b3d      	ldr	r3, [pc, #244]	; (af8 <FotaAppTask+0x5b4>)
     a04:	4798      	blx	r3
     a06:	483d      	ldr	r0, [pc, #244]	; (afc <FotaAppTask+0x5b8>)
     a08:	47a8      	blx	r5
     a0a:	2300      	movs	r3, #0
     a0c:	70a3      	strb	r3, [r4, #2]
     a0e:	2305      	movs	r3, #5
     a10:	e64c      	b.n	6ac <FotaAppTask+0x168>
     a12:	2300      	movs	r3, #0
     a14:	4d42      	ldr	r5, [pc, #264]	; (b20 <FotaAppTask+0x5dc>)
     a16:	f8ad 3008 	strh.w	r3, [sp, #8]
     a1a:	47a8      	blx	r5
     a1c:	280b      	cmp	r0, #11
     a1e:	d9fc      	bls.n	a1a <FotaAppTask+0x4d6>
     a20:	47a8      	blx	r5
     a22:	280c      	cmp	r0, #12
     a24:	d937      	bls.n	a96 <FotaAppTask+0x552>
     a26:	47a8      	blx	r5
     a28:	f1a0 050c 	sub.w	r5, r0, #12
     a2c:	4628      	mov	r0, r5
     a2e:	4b3d      	ldr	r3, [pc, #244]	; (b24 <FotaAppTask+0x5e0>)
     a30:	4798      	blx	r3
     a32:	4606      	mov	r6, r0
     a34:	2800      	cmp	r0, #0
     a36:	f43f adb2 	beq.w	59e <FotaAppTask+0x5a>
     a3a:	b2a9      	uxth	r1, r5
     a3c:	4b3a      	ldr	r3, [pc, #232]	; (b28 <FotaAppTask+0x5e4>)
     a3e:	4798      	blx	r3
     a40:	b360      	cbz	r0, a9c <FotaAppTask+0x558>
     a42:	2209      	movs	r2, #9
     a44:	4631      	mov	r1, r6
     a46:	4839      	ldr	r0, [pc, #228]	; (b2c <FotaAppTask+0x5e8>)
     a48:	4b39      	ldr	r3, [pc, #228]	; (b30 <FotaAppTask+0x5ec>)
     a4a:	4798      	blx	r3
     a4c:	bb30      	cbnz	r0, a9c <FotaAppTask+0x558>
     a4e:	7a73      	ldrb	r3, [r6, #9]
     a50:	2b0c      	cmp	r3, #12
     a52:	bf1a      	itte	ne
     a54:	f88d 3008 	strbne.w	r3, [sp, #8]
     a58:	7ab3      	ldrbne	r3, [r6, #10]
     a5a:	f88d 0008 	strbeq.w	r0, [sp, #8]
     a5e:	f88d 3009 	strb.w	r3, [sp, #9]
     a62:	a802      	add	r0, sp, #8
     a64:	4b33      	ldr	r3, [pc, #204]	; (b34 <FotaAppTask+0x5f0>)
     a66:	4798      	blx	r3
     a68:	b2c5      	uxtb	r5, r0
     a6a:	4630      	mov	r0, r6
     a6c:	4b1f      	ldr	r3, [pc, #124]	; (aec <FotaAppTask+0x5a8>)
     a6e:	4798      	blx	r3
     a70:	2d64      	cmp	r5, #100	; 0x64
     a72:	f43f ad94 	beq.w	59e <FotaAppTask+0x5a>
     a76:	f8df 80dc 	ldr.w	r8, [pc, #220]	; b54 <FotaAppTask+0x610>
     a7a:	2d12      	cmp	r5, #18
     a7c:	d81d      	bhi.n	aba <FotaAppTask+0x576>
     a7e:	e8df f005 	tbb	[pc, r5]
     a82:	130f      	.short	0x130f
     a84:	1c241f15 	.word	0x1c241f15
     a88:	976d1c6b 	.word	0x976d1c6b
     a8c:	1c9b1c99 	.word	0x1c9b1c99
     a90:	1cb0a2a0 	.word	0x1cb0a2a0
     a94:	bc          	.byte	0xbc
     a95:	00          	.byte	0x00
     a96:	47a8      	blx	r5
     a98:	4605      	mov	r5, r0
     a9a:	e7c7      	b.n	a2c <FotaAppTask+0x4e8>
     a9c:	2564      	movs	r5, #100	; 0x64
     a9e:	e7e4      	b.n	a6a <FotaAppTask+0x526>
     aa0:	4825      	ldr	r0, [pc, #148]	; (b38 <FotaAppTask+0x5f4>)
     aa2:	4b11      	ldr	r3, [pc, #68]	; (ae8 <FotaAppTask+0x5a4>)
     aa4:	4798      	blx	r3
     aa6:	e008      	b.n	aba <FotaAppTask+0x576>
     aa8:	4824      	ldr	r0, [pc, #144]	; (b3c <FotaAppTask+0x5f8>)
     aaa:	e7fa      	b.n	aa2 <FotaAppTask+0x55e>
     aac:	4b0e      	ldr	r3, [pc, #56]	; (ae8 <FotaAppTask+0x5a4>)
     aae:	4824      	ldr	r0, [pc, #144]	; (b40 <FotaAppTask+0x5fc>)
     ab0:	4798      	blx	r3
     ab2:	2306      	movs	r3, #6
     ab4:	7063      	strb	r3, [r4, #1]
     ab6:	2300      	movs	r3, #0
     ab8:	70a3      	strb	r3, [r4, #2]
     aba:	f888 5000 	strb.w	r5, [r8]
     abe:	e56e      	b.n	59e <FotaAppTask+0x5a>
     ac0:	4b09      	ldr	r3, [pc, #36]	; (ae8 <FotaAppTask+0x5a4>)
     ac2:	4820      	ldr	r0, [pc, #128]	; (b44 <FotaAppTask+0x600>)
     ac4:	4798      	blx	r3
     ac6:	2307      	movs	r3, #7
     ac8:	e7f4      	b.n	ab4 <FotaAppTask+0x570>
     aca:	481f      	ldr	r0, [pc, #124]	; (b48 <FotaAppTask+0x604>)
     acc:	e7e9      	b.n	aa2 <FotaAppTask+0x55e>
     ace:	bf00      	nop
     ad0:	000049b9 	.word	0x000049b9
     ad4:	00004805 	.word	0x00004805
     ad8:	000066d7 	.word	0x000066d7
     adc:	20003584 	.word	0x20003584
     ae0:	20000294 	.word	0x20000294
     ae4:	00004699 	.word	0x00004699
     ae8:	000028a5 	.word	0x000028a5
     aec:	000040e1 	.word	0x000040e1
     af0:	00000529 	.word	0x00000529
     af4:	00006727 	.word	0x00006727
     af8:	00002861 	.word	0x00002861
     afc:	00008026 	.word	0x00008026
     b00:	00006618 	.word	0x00006618
     b04:	00006640 	.word	0x00006640
     b08:	0000675d 	.word	0x0000675d
     b0c:	000067b1 	.word	0x000067b1
     b10:	20003578 	.word	0x20003578
     b14:	00004f09 	.word	0x00004f09
     b18:	000067eb 	.word	0x000067eb
     b1c:	00006822 	.word	0x00006822
     b20:	00002061 	.word	0x00002061
     b24:	00004015 	.word	0x00004015
     b28:	00002009 	.word	0x00002009
     b2c:	00006855 	.word	0x00006855
     b30:	00005bcf 	.word	0x00005bcf
     b34:	000058dd 	.word	0x000058dd
     b38:	0000685f 	.word	0x0000685f
     b3c:	0000688a 	.word	0x0000688a
     b40:	000068bd 	.word	0x000068bd
     b44:	000068f1 	.word	0x000068f1
     b48:	00006929 	.word	0x00006929
     b4c:	2000358c 	.word	0x2000358c
     b50:	000043dd 	.word	0x000043dd
     b54:	20000000 	.word	0x20000000
     b58:	487a      	ldr	r0, [pc, #488]	; (d44 <FotaAppTask+0x800>)
     b5a:	e7a2      	b.n	aa2 <FotaAppTask+0x55e>
     b5c:	487a      	ldr	r0, [pc, #488]	; (d48 <FotaAppTask+0x804>)
     b5e:	4e7b      	ldr	r6, [pc, #492]	; (d4c <FotaAppTask+0x808>)
     b60:	47b0      	blx	r6
     b62:	f898 3000 	ldrb.w	r3, [r8]
     b66:	2b06      	cmp	r3, #6
     b68:	d00b      	beq.n	b82 <FotaAppTask+0x63e>
     b6a:	7823      	ldrb	r3, [r4, #0]
     b6c:	2b00      	cmp	r3, #0
     b6e:	d1a4      	bne.n	aba <FotaAppTask+0x576>
     b70:	4b77      	ldr	r3, [pc, #476]	; (d50 <FotaAppTask+0x80c>)
     b72:	4798      	blx	r3
     b74:	2301      	movs	r3, #1
     b76:	4877      	ldr	r0, [pc, #476]	; (d54 <FotaAppTask+0x810>)
     b78:	7023      	strb	r3, [r4, #0]
     b7a:	47b0      	blx	r6
     b7c:	4876      	ldr	r0, [pc, #472]	; (d58 <FotaAppTask+0x814>)
     b7e:	47b0      	blx	r6
     b80:	e79b      	b.n	aba <FotaAppTask+0x576>
     b82:	f894 9000 	ldrb.w	r9, [r4]
     b86:	f1b9 0f00 	cmp.w	r9, #0
     b8a:	d196      	bne.n	aba <FotaAppTask+0x576>
     b8c:	7923      	ldrb	r3, [r4, #4]
     b8e:	2b00      	cmp	r3, #0
     b90:	d093      	beq.n	aba <FotaAppTask+0x576>
     b92:	4b6f      	ldr	r3, [pc, #444]	; (d50 <FotaAppTask+0x80c>)
     b94:	4798      	blx	r3
     b96:	4871      	ldr	r0, [pc, #452]	; (d5c <FotaAppTask+0x818>)
     b98:	47b0      	blx	r6
     b9a:	4871      	ldr	r0, [pc, #452]	; (d60 <FotaAppTask+0x81c>)
     b9c:	47b0      	blx	r6
     b9e:	4871      	ldr	r0, [pc, #452]	; (d64 <FotaAppTask+0x820>)
     ba0:	47b0      	blx	r6
     ba2:	2301      	movs	r3, #1
     ba4:	f884 9004 	strb.w	r9, [r4, #4]
     ba8:	7023      	strb	r3, [r4, #0]
     baa:	4b6f      	ldr	r3, [pc, #444]	; (d68 <FotaAppTask+0x824>)
     bac:	4798      	blx	r3
     bae:	e784      	b.n	aba <FotaAppTask+0x576>
     bb0:	486e      	ldr	r0, [pc, #440]	; (d6c <FotaAppTask+0x828>)
     bb2:	e776      	b.n	aa2 <FotaAppTask+0x55e>
     bb4:	486e      	ldr	r0, [pc, #440]	; (d70 <FotaAppTask+0x82c>)
     bb6:	e774      	b.n	aa2 <FotaAppTask+0x55e>
     bb8:	486e      	ldr	r0, [pc, #440]	; (d74 <FotaAppTask+0x830>)
     bba:	4e64      	ldr	r6, [pc, #400]	; (d4c <FotaAppTask+0x808>)
     bbc:	47b0      	blx	r6
     bbe:	486e      	ldr	r0, [pc, #440]	; (d78 <FotaAppTask+0x834>)
     bc0:	e7dd      	b.n	b7e <FotaAppTask+0x63a>
     bc2:	486e      	ldr	r0, [pc, #440]	; (d7c <FotaAppTask+0x838>)
     bc4:	e76d      	b.n	aa2 <FotaAppTask+0x55e>
     bc6:	4b62      	ldr	r3, [pc, #392]	; (d50 <FotaAppTask+0x80c>)
     bc8:	4e60      	ldr	r6, [pc, #384]	; (d4c <FotaAppTask+0x808>)
     bca:	4798      	blx	r3
     bcc:	486c      	ldr	r0, [pc, #432]	; (d80 <FotaAppTask+0x83c>)
     bce:	47b0      	blx	r6
     bd0:	4863      	ldr	r0, [pc, #396]	; (d60 <FotaAppTask+0x81c>)
     bd2:	47b0      	blx	r6
     bd4:	486b      	ldr	r0, [pc, #428]	; (d84 <FotaAppTask+0x840>)
     bd6:	47b0      	blx	r6
     bd8:	2301      	movs	r3, #1
     bda:	7023      	strb	r3, [r4, #0]
     bdc:	2300      	movs	r3, #0
     bde:	7123      	strb	r3, [r4, #4]
     be0:	e7e3      	b.n	baa <FotaAppTask+0x666>
     be2:	4b5b      	ldr	r3, [pc, #364]	; (d50 <FotaAppTask+0x80c>)
     be4:	4e59      	ldr	r6, [pc, #356]	; (d4c <FotaAppTask+0x808>)
     be6:	4798      	blx	r3
     be8:	485c      	ldr	r0, [pc, #368]	; (d5c <FotaAppTask+0x818>)
     bea:	47b0      	blx	r6
     bec:	485c      	ldr	r0, [pc, #368]	; (d60 <FotaAppTask+0x81c>)
     bee:	47b0      	blx	r6
     bf0:	485c      	ldr	r0, [pc, #368]	; (d64 <FotaAppTask+0x820>)
     bf2:	47b0      	blx	r6
     bf4:	2301      	movs	r3, #1
     bf6:	7023      	strb	r3, [r4, #0]
     bf8:	e7f1      	b.n	bde <FotaAppTask+0x69a>
     bfa:	4863      	ldr	r0, [pc, #396]	; (d88 <FotaAppTask+0x844>)
     bfc:	e751      	b.n	aa2 <FotaAppTask+0x55e>
     bfe:	78a3      	ldrb	r3, [r4, #2]
     c00:	bb3b      	cbnz	r3, c52 <FotaAppTask+0x70e>
     c02:	4e62      	ldr	r6, [pc, #392]	; (d8c <FotaAppTask+0x848>)
     c04:	4b62      	ldr	r3, [pc, #392]	; (d90 <FotaAppTask+0x84c>)
     c06:	6830      	ldr	r0, [r6, #0]
     c08:	4798      	blx	r3
     c0a:	4605      	mov	r5, r0
     c0c:	2800      	cmp	r0, #0
     c0e:	f47f ad28 	bne.w	662 <FotaAppTask+0x11e>
     c12:	f8df a1c0 	ldr.w	sl, [pc, #448]	; dd4 <FotaAppTask+0x890>
     c16:	4b5f      	ldr	r3, [pc, #380]	; (d94 <FotaAppTask+0x850>)
     c18:	4601      	mov	r1, r0
     c1a:	f8da 0000 	ldr.w	r0, [sl]
     c1e:	4798      	blx	r3
     c20:	2801      	cmp	r0, #1
     c22:	f47f ad1a 	bne.w	65a <FotaAppTask+0x116>
     c26:	2305      	movs	r3, #5
     c28:	f88d 3008 	strb.w	r3, [sp, #8]
     c2c:	2323      	movs	r3, #35	; 0x23
     c2e:	f88d 3009 	strb.w	r3, [sp, #9]
     c32:	6830      	ldr	r0, [r6, #0]
     c34:	f8df 91a0 	ldr.w	r9, [pc, #416]	; dd8 <FotaAppTask+0x894>
     c38:	9503      	str	r5, [sp, #12]
     c3a:	462b      	mov	r3, r5
     c3c:	f44f 72fa 	mov.w	r2, #500	; 0x1f4
     c40:	a902      	add	r1, sp, #8
     c42:	47c8      	blx	r9
     c44:	2801      	cmp	r0, #1
     c46:	4680      	mov	r8, r0
     c48:	4e53      	ldr	r6, [pc, #332]	; (d98 <FotaAppTask+0x854>)
     c4a:	f43f acf6 	beq.w	63a <FotaAppTask+0xf6>
     c4e:	4853      	ldr	r0, [pc, #332]	; (d9c <FotaAppTask+0x858>)
     c50:	e4fd      	b.n	64e <FotaAppTask+0x10a>
     c52:	2b01      	cmp	r3, #1
     c54:	f47f aca3 	bne.w	59e <FotaAppTask+0x5a>
     c58:	4b51      	ldr	r3, [pc, #324]	; (da0 <FotaAppTask+0x85c>)
     c5a:	4952      	ldr	r1, [pc, #328]	; (da4 <FotaAppTask+0x860>)
     c5c:	6818      	ldr	r0, [r3, #0]
     c5e:	4b52      	ldr	r3, [pc, #328]	; (da8 <FotaAppTask+0x864>)
     c60:	f44f 627a 	mov.w	r2, #4000	; 0xfa0
     c64:	4798      	blx	r3
     c66:	2801      	cmp	r0, #1
     c68:	f47f ac99 	bne.w	59e <FotaAppTask+0x5a>
     c6c:	7a23      	ldrb	r3, [r4, #8]
     c6e:	4d37      	ldr	r5, [pc, #220]	; (d4c <FotaAppTask+0x808>)
     c70:	4e4e      	ldr	r6, [pc, #312]	; (dac <FotaAppTask+0x868>)
     c72:	2b23      	cmp	r3, #35	; 0x23
     c74:	d15a      	bne.n	d2c <FotaAppTask+0x7e8>
     c76:	68e0      	ldr	r0, [r4, #12]
     c78:	4b4d      	ldr	r3, [pc, #308]	; (db0 <FotaAppTask+0x86c>)
     c7a:	4798      	blx	r3
     c7c:	4680      	mov	r8, r0
     c7e:	2800      	cmp	r0, #0
     c80:	d050      	beq.n	d24 <FotaAppTask+0x7e0>
     c82:	484c      	ldr	r0, [pc, #304]	; (db4 <FotaAppTask+0x870>)
     c84:	e6ba      	b.n	9fc <FotaAppTask+0x4b8>
     c86:	78a3      	ldrb	r3, [r4, #2]
     c88:	bb3b      	cbnz	r3, cda <FotaAppTask+0x796>
     c8a:	4e40      	ldr	r6, [pc, #256]	; (d8c <FotaAppTask+0x848>)
     c8c:	4b40      	ldr	r3, [pc, #256]	; (d90 <FotaAppTask+0x84c>)
     c8e:	6830      	ldr	r0, [r6, #0]
     c90:	4798      	blx	r3
     c92:	4605      	mov	r5, r0
     c94:	2800      	cmp	r0, #0
     c96:	f47f ace4 	bne.w	662 <FotaAppTask+0x11e>
     c9a:	f8df a138 	ldr.w	sl, [pc, #312]	; dd4 <FotaAppTask+0x890>
     c9e:	4b3d      	ldr	r3, [pc, #244]	; (d94 <FotaAppTask+0x850>)
     ca0:	4601      	mov	r1, r0
     ca2:	f8da 0000 	ldr.w	r0, [sl]
     ca6:	4798      	blx	r3
     ca8:	2801      	cmp	r0, #1
     caa:	f47f acd6 	bne.w	65a <FotaAppTask+0x116>
     cae:	2305      	movs	r3, #5
     cb0:	f88d 3008 	strb.w	r3, [sp, #8]
     cb4:	2324      	movs	r3, #36	; 0x24
     cb6:	f88d 3009 	strb.w	r3, [sp, #9]
     cba:	6830      	ldr	r0, [r6, #0]
     cbc:	f8df 9118 	ldr.w	r9, [pc, #280]	; dd8 <FotaAppTask+0x894>
     cc0:	9503      	str	r5, [sp, #12]
     cc2:	462b      	mov	r3, r5
     cc4:	f44f 72fa 	mov.w	r2, #500	; 0x1f4
     cc8:	a902      	add	r1, sp, #8
     cca:	47c8      	blx	r9
     ccc:	2801      	cmp	r0, #1
     cce:	4680      	mov	r8, r0
     cd0:	4e31      	ldr	r6, [pc, #196]	; (d98 <FotaAppTask+0x854>)
     cd2:	f43f acb2 	beq.w	63a <FotaAppTask+0xf6>
     cd6:	4838      	ldr	r0, [pc, #224]	; (db8 <FotaAppTask+0x874>)
     cd8:	e4b9      	b.n	64e <FotaAppTask+0x10a>
     cda:	2b01      	cmp	r3, #1
     cdc:	f47f ac5f 	bne.w	59e <FotaAppTask+0x5a>
     ce0:	4b2f      	ldr	r3, [pc, #188]	; (da0 <FotaAppTask+0x85c>)
     ce2:	4930      	ldr	r1, [pc, #192]	; (da4 <FotaAppTask+0x860>)
     ce4:	6818      	ldr	r0, [r3, #0]
     ce6:	4b30      	ldr	r3, [pc, #192]	; (da8 <FotaAppTask+0x864>)
     ce8:	f44f 627a 	mov.w	r2, #4000	; 0xfa0
     cec:	4798      	blx	r3
     cee:	2801      	cmp	r0, #1
     cf0:	4681      	mov	r9, r0
     cf2:	f47f ac54 	bne.w	59e <FotaAppTask+0x5a>
     cf6:	7a23      	ldrb	r3, [r4, #8]
     cf8:	4d14      	ldr	r5, [pc, #80]	; (d4c <FotaAppTask+0x808>)
     cfa:	4e2c      	ldr	r6, [pc, #176]	; (dac <FotaAppTask+0x868>)
     cfc:	2b24      	cmp	r3, #36	; 0x24
     cfe:	d115      	bne.n	d2c <FotaAppTask+0x7e8>
     d00:	68e0      	ldr	r0, [r4, #12]
     d02:	4b2b      	ldr	r3, [pc, #172]	; (db0 <FotaAppTask+0x86c>)
     d04:	4798      	blx	r3
     d06:	4680      	mov	r8, r0
     d08:	b160      	cbz	r0, d24 <FotaAppTask+0x7e0>
     d0a:	482c      	ldr	r0, [pc, #176]	; (dbc <FotaAppTask+0x878>)
     d0c:	47a8      	blx	r5
     d0e:	8961      	ldrh	r1, [r4, #10]
     d10:	4b2b      	ldr	r3, [pc, #172]	; (dc0 <FotaAppTask+0x87c>)
     d12:	68e0      	ldr	r0, [r4, #12]
     d14:	4798      	blx	r3
     d16:	4812      	ldr	r0, [pc, #72]	; (d60 <FotaAppTask+0x81c>)
     d18:	47a8      	blx	r5
     d1a:	482a      	ldr	r0, [pc, #168]	; (dc4 <FotaAppTask+0x880>)
     d1c:	47a8      	blx	r5
     d1e:	f884 9004 	strb.w	r9, [r4, #4]
     d22:	e672      	b.n	a0a <FotaAppTask+0x4c6>
     d24:	4828      	ldr	r0, [pc, #160]	; (dc8 <FotaAppTask+0x884>)
     d26:	47a8      	blx	r5
     d28:	480d      	ldr	r0, [pc, #52]	; (d60 <FotaAppTask+0x81c>)
     d2a:	e5f6      	b.n	91a <FotaAppTask+0x3d6>
     d2c:	4827      	ldr	r0, [pc, #156]	; (dcc <FotaAppTask+0x888>)
     d2e:	47a8      	blx	r5
     d30:	2300      	movs	r3, #0
     d32:	70a3      	strb	r3, [r4, #2]
     d34:	e5e7      	b.n	906 <FotaAppTask+0x3c2>
     d36:	4b05      	ldr	r3, [pc, #20]	; (d4c <FotaAppTask+0x808>)
     d38:	4825      	ldr	r0, [pc, #148]	; (dd0 <FotaAppTask+0x88c>)
     d3a:	4798      	blx	r3
     d3c:	4b0a      	ldr	r3, [pc, #40]	; (d68 <FotaAppTask+0x824>)
     d3e:	4798      	blx	r3
     d40:	e421      	b.n	586 <FotaAppTask+0x42>
     d42:	bf00      	nop
     d44:	0000695e 	.word	0x0000695e
     d48:	00006994 	.word	0x00006994
     d4c:	000028a5 	.word	0x000028a5
     d50:	00002051 	.word	0x00002051
     d54:	000069c3 	.word	0x000069c3
     d58:	000069ec 	.word	0x000069ec
     d5c:	00006a37 	.word	0x00006a37
     d60:	00008026 	.word	0x00008026
     d64:	00006a6e 	.word	0x00006a6e
     d68:	00002a85 	.word	0x00002a85
     d6c:	00006ab6 	.word	0x00006ab6
     d70:	00006ae3 	.word	0x00006ae3
     d74:	00006b18 	.word	0x00006b18
     d78:	00006b4e 	.word	0x00006b4e
     d7c:	00006b8b 	.word	0x00006b8b
     d80:	00006bb2 	.word	0x00006bb2
     d84:	00006bd8 	.word	0x00006bd8
     d88:	00006c27 	.word	0x00006c27
     d8c:	20003578 	.word	0x20003578
     d90:	000049b9 	.word	0x000049b9
     d94:	00004805 	.word	0x00004805
     d98:	00004f09 	.word	0x00004f09
     d9c:	00006c72 	.word	0x00006c72
     da0:	20003584 	.word	0x20003584
     da4:	20000294 	.word	0x20000294
     da8:	00004699 	.word	0x00004699
     dac:	000040e1 	.word	0x000040e1
     db0:	00000529 	.word	0x00000529
     db4:	00006caa 	.word	0x00006caa
     db8:	00006d0d 	.word	0x00006d0d
     dbc:	00006d44 	.word	0x00006d44
     dc0:	00002861 	.word	0x00002861
     dc4:	00006dab 	.word	0x00006dab
     dc8:	00006618 	.word	0x00006618
     dcc:	00006640 	.word	0x00006640
     dd0:	00006ddb 	.word	0x00006ddb
     dd4:	2000358c 	.word	0x2000358c
     dd8:	000043dd 	.word	0x000043dd

00000ddc <isFotaVerificationDone>:
     ddc:	4b01      	ldr	r3, [pc, #4]	; (de4 <isFotaVerificationDone+0x8>)
     dde:	7818      	ldrb	r0, [r3, #0]
     de0:	4770      	bx	lr
     de2:	bf00      	nop
     de4:	2000028c 	.word	0x2000028c

00000de8 <sensorTaskSchedule>:
     de8:	b5f7      	push	{r0, r1, r2, r4, r5, r6, r7, lr}
     dea:	4e32      	ldr	r6, [pc, #200]	; (eb4 <sensorTaskSchedule+0xcc>)
     dec:	7837      	ldrb	r7, [r6, #0]
     dee:	2500      	movs	r5, #0
     df0:	2f01      	cmp	r7, #1
     df2:	f8ad 5002 	strh.w	r5, [sp, #2]
     df6:	4634      	mov	r4, r6
     df8:	d00e      	beq.n	e18 <sensorTaskSchedule+0x30>
     dfa:	d303      	bcc.n	e04 <sensorTaskSchedule+0x1c>
     dfc:	2f02      	cmp	r7, #2
     dfe:	d03a      	beq.n	e76 <sensorTaskSchedule+0x8e>
     e00:	b003      	add	sp, #12
     e02:	bdf0      	pop	{r4, r5, r6, r7, pc}
     e04:	4b2c      	ldr	r3, [pc, #176]	; (eb8 <sensorTaskSchedule+0xd0>)
     e06:	f44f 71fa 	mov.w	r1, #500	; 0x1f4
     e0a:	6818      	ldr	r0, [r3, #0]
     e0c:	4b2b      	ldr	r3, [pc, #172]	; (ebc <sensorTaskSchedule+0xd4>)
     e0e:	4798      	blx	r3
     e10:	2801      	cmp	r0, #1
     e12:	d1f5      	bne.n	e00 <sensorTaskSchedule+0x18>
     e14:	7030      	strb	r0, [r6, #0]
     e16:	e7f3      	b.n	e00 <sensorTaskSchedule+0x18>
     e18:	7c73      	ldrb	r3, [r6, #17]
     e1a:	eb06 0343 	add.w	r3, r6, r3, lsl #1
     e1e:	a801      	add	r0, sp, #4
     e20:	785e      	ldrb	r6, [r3, #1]
     e22:	4b27      	ldr	r3, [pc, #156]	; (ec0 <sensorTaskSchedule+0xd8>)
     e24:	4798      	blx	r3
     e26:	0973      	lsrs	r3, r6, #5
     e28:	4926      	ldr	r1, [pc, #152]	; (ec4 <sensorTaskSchedule+0xdc>)
     e2a:	01db      	lsls	r3, r3, #7
     e2c:	18ca      	adds	r2, r1, r3
     e2e:	58c9      	ldr	r1, [r1, r3]
     e30:	6a13      	ldr	r3, [r2, #32]
     e32:	6915      	ldr	r5, [r2, #16]
     e34:	405d      	eors	r5, r3
     e36:	400d      	ands	r5, r1
     e38:	405d      	eors	r5, r3
     e3a:	a801      	add	r0, sp, #4
     e3c:	4b22      	ldr	r3, [pc, #136]	; (ec8 <sensorTaskSchedule+0xe0>)
     e3e:	f006 061f 	and.w	r6, r6, #31
     e42:	4798      	blx	r3
     e44:	fa07 f206 	lsl.w	r2, r7, r6
     e48:	7c61      	ldrb	r1, [r4, #17]
     e4a:	422a      	tst	r2, r5
     e4c:	f101 0101 	add.w	r1, r1, #1
     e50:	d10d      	bne.n	e6e <sensorTaskSchedule+0x86>
     e52:	4b1e      	ldr	r3, [pc, #120]	; (ecc <sensorTaskSchedule+0xe4>)
     e54:	481e      	ldr	r0, [pc, #120]	; (ed0 <sensorTaskSchedule+0xe8>)
     e56:	4798      	blx	r3
     e58:	7c63      	ldrb	r3, [r4, #17]
     e5a:	3301      	adds	r3, #1
     e5c:	b2db      	uxtb	r3, r3
     e5e:	7463      	strb	r3, [r4, #17]
     e60:	2b07      	cmp	r3, #7
     e62:	d9cd      	bls.n	e00 <sensorTaskSchedule+0x18>
     e64:	2302      	movs	r3, #2
     e66:	7023      	strb	r3, [r4, #0]
     e68:	2300      	movs	r3, #0
     e6a:	7463      	strb	r3, [r4, #17]
     e6c:	e7c8      	b.n	e00 <sensorTaskSchedule+0x18>
     e6e:	b2c9      	uxtb	r1, r1
     e70:	7461      	strb	r1, [r4, #17]
     e72:	2907      	cmp	r1, #7
     e74:	e7f5      	b.n	e62 <sensorTaskSchedule+0x7a>
     e76:	7c73      	ldrb	r3, [r6, #17]
     e78:	2b07      	cmp	r3, #7
     e7a:	d80e      	bhi.n	e9a <sensorTaskSchedule+0xb2>
     e7c:	eb06 0343 	add.w	r3, r6, r3, lsl #1
     e80:	463a      	mov	r2, r7
     e82:	7898      	ldrb	r0, [r3, #2]
     e84:	4b13      	ldr	r3, [pc, #76]	; (ed4 <sensorTaskSchedule+0xec>)
     e86:	f10d 0102 	add.w	r1, sp, #2
     e8a:	4798      	blx	r3
     e8c:	7cb3      	ldrb	r3, [r6, #18]
     e8e:	b953      	cbnz	r3, ea6 <sensorTaskSchedule+0xbe>
     e90:	f8bd 3002 	ldrh.w	r3, [sp, #2]
     e94:	82b3      	strh	r3, [r6, #20]
     e96:	2301      	movs	r3, #1
     e98:	74b3      	strb	r3, [r6, #18]
     e9a:	7c63      	ldrb	r3, [r4, #17]
     e9c:	2b07      	cmp	r3, #7
     e9e:	d9af      	bls.n	e00 <sensorTaskSchedule+0x18>
     ea0:	2300      	movs	r3, #0
     ea2:	7023      	strb	r3, [r4, #0]
     ea4:	e7e1      	b.n	e6a <sensorTaskSchedule+0x82>
     ea6:	7c73      	ldrb	r3, [r6, #17]
     ea8:	74b5      	strb	r5, [r6, #18]
     eaa:	3301      	adds	r3, #1
     eac:	7535      	strb	r5, [r6, #20]
     eae:	7473      	strb	r3, [r6, #17]
     eb0:	e7f3      	b.n	e9a <sensorTaskSchedule+0xb2>
     eb2:	bf00      	nop
     eb4:	2000029c 	.word	0x2000029c
     eb8:	20003588 	.word	0x20003588
     ebc:	00004805 	.word	0x00004805
     ec0:	00002ead 	.word	0x00002ead
     ec4:	41008000 	.word	0x41008000
     ec8:	00002ebb 	.word	0x00002ebb
     ecc:	00002935 	.word	0x00002935
     ed0:	00006e12 	.word	0x00006e12
     ed4:	00000481 	.word	0x00000481

00000ed8 <SensorTask>:
     ed8:	b538      	push	{r3, r4, r5, lr}
     eda:	4b16      	ldr	r3, [pc, #88]	; (f34 <SensorTask+0x5c>)
     edc:	4d16      	ldr	r5, [pc, #88]	; (f38 <SensorTask+0x60>)
     ede:	4c17      	ldr	r4, [pc, #92]	; (f3c <SensorTask+0x64>)
     ee0:	4798      	blx	r3
     ee2:	4b17      	ldr	r3, [pc, #92]	; (f40 <SensorTask+0x68>)
     ee4:	4798      	blx	r3
     ee6:	4b17      	ldr	r3, [pc, #92]	; (f44 <SensorTask+0x6c>)
     ee8:	4798      	blx	r3
     eea:	4b17      	ldr	r3, [pc, #92]	; (f48 <SensorTask+0x70>)
     eec:	220b      	movs	r2, #11
     eee:	725a      	strb	r2, [r3, #9]
     ef0:	2204      	movs	r2, #4
     ef2:	729a      	strb	r2, [r3, #10]
     ef4:	220a      	movs	r2, #10
     ef6:	72da      	strb	r2, [r3, #11]
     ef8:	2205      	movs	r2, #5
     efa:	212a      	movs	r1, #42	; 0x2a
     efc:	731a      	strb	r2, [r3, #12]
     efe:	222b      	movs	r2, #43	; 0x2b
     f00:	715a      	strb	r2, [r3, #5]
     f02:	71d9      	strb	r1, [r3, #7]
     f04:	2202      	movs	r2, #2
     f06:	2103      	movs	r1, #3
     f08:	719a      	strb	r2, [r3, #6]
     f0a:	7219      	strb	r1, [r3, #8]
     f0c:	2208      	movs	r2, #8
     f0e:	212c      	movs	r1, #44	; 0x2c
     f10:	73da      	strb	r2, [r3, #15]
     f12:	70d9      	strb	r1, [r3, #3]
     f14:	2207      	movs	r2, #7
     f16:	2101      	movs	r1, #1
     f18:	741a      	strb	r2, [r3, #16]
     f1a:	7119      	strb	r1, [r3, #4]
     f1c:	222d      	movs	r2, #45	; 0x2d
     f1e:	2109      	movs	r1, #9
     f20:	705a      	strb	r2, [r3, #1]
     f22:	7359      	strb	r1, [r3, #13]
     f24:	2200      	movs	r2, #0
     f26:	2106      	movs	r1, #6
     f28:	709a      	strb	r2, [r3, #2]
     f2a:	7399      	strb	r1, [r3, #14]
     f2c:	701a      	strb	r2, [r3, #0]
     f2e:	47a8      	blx	r5
     f30:	47a0      	blx	r4
     f32:	e7fc      	b.n	f2e <SensorTask+0x56>
     f34:	00004d25 	.word	0x00004d25
     f38:	00000de9 	.word	0x00000de9
     f3c:	00002a65 	.word	0x00002a65
     f40:	000003c1 	.word	0x000003c1
     f44:	00000479 	.word	0x00000479
     f48:	2000029c 	.word	0x2000029c

00000f4c <getModemCommandData>:
     f4c:	4b05      	ldr	r3, [pc, #20]	; (f64 <getModemCommandData+0x18>)
     f4e:	b530      	push	{r4, r5, lr}
     f50:	2414      	movs	r4, #20
     f52:	fb04 3400 	mla	r4, r4, r0, r3
     f56:	460d      	mov	r5, r1
     f58:	cc0f      	ldmia	r4!, {r0, r1, r2, r3}
     f5a:	c50f      	stmia	r5!, {r0, r1, r2, r3}
     f5c:	6823      	ldr	r3, [r4, #0]
     f5e:	602b      	str	r3, [r5, #0]
     f60:	bd30      	pop	{r4, r5, pc}
     f62:	bf00      	nop
     f64:	00006e2c 	.word	0x00006e2c

00000f68 <buildHttpHeaderWithActiveSessionID>:
     f68:	7803      	ldrb	r3, [r0, #0]
     f6a:	3b31      	subs	r3, #49	; 0x31
     f6c:	2b08      	cmp	r3, #8
     f6e:	d80a      	bhi.n	f86 <buildHttpHeaderWithActiveSessionID+0x1e>
     f70:	e8df f003 	tbb	[pc, r3]
     f74:	100d0a05 	.word	0x100d0a05
     f78:	1c191613 	.word	0x1c191613
     f7c:	1f          	.byte	0x1f
     f7d:	00          	.byte	0x00
     f7e:	4b0e      	ldr	r3, [pc, #56]	; (fb8 <buildHttpHeaderWithActiveSessionID+0x50>)
     f80:	2231      	movs	r2, #49	; 0x31
     f82:	73da      	strb	r2, [r3, #15]
     f84:	775a      	strb	r2, [r3, #29]
     f86:	4770      	bx	lr
     f88:	4b0b      	ldr	r3, [pc, #44]	; (fb8 <buildHttpHeaderWithActiveSessionID+0x50>)
     f8a:	2232      	movs	r2, #50	; 0x32
     f8c:	e7f9      	b.n	f82 <buildHttpHeaderWithActiveSessionID+0x1a>
     f8e:	4b0a      	ldr	r3, [pc, #40]	; (fb8 <buildHttpHeaderWithActiveSessionID+0x50>)
     f90:	2233      	movs	r2, #51	; 0x33
     f92:	e7f6      	b.n	f82 <buildHttpHeaderWithActiveSessionID+0x1a>
     f94:	4b08      	ldr	r3, [pc, #32]	; (fb8 <buildHttpHeaderWithActiveSessionID+0x50>)
     f96:	2234      	movs	r2, #52	; 0x34
     f98:	e7f3      	b.n	f82 <buildHttpHeaderWithActiveSessionID+0x1a>
     f9a:	4b07      	ldr	r3, [pc, #28]	; (fb8 <buildHttpHeaderWithActiveSessionID+0x50>)
     f9c:	2235      	movs	r2, #53	; 0x35
     f9e:	e7f0      	b.n	f82 <buildHttpHeaderWithActiveSessionID+0x1a>
     fa0:	4b05      	ldr	r3, [pc, #20]	; (fb8 <buildHttpHeaderWithActiveSessionID+0x50>)
     fa2:	2236      	movs	r2, #54	; 0x36
     fa4:	e7ed      	b.n	f82 <buildHttpHeaderWithActiveSessionID+0x1a>
     fa6:	4b04      	ldr	r3, [pc, #16]	; (fb8 <buildHttpHeaderWithActiveSessionID+0x50>)
     fa8:	2237      	movs	r2, #55	; 0x37
     faa:	e7ea      	b.n	f82 <buildHttpHeaderWithActiveSessionID+0x1a>
     fac:	4b02      	ldr	r3, [pc, #8]	; (fb8 <buildHttpHeaderWithActiveSessionID+0x50>)
     fae:	2238      	movs	r2, #56	; 0x38
     fb0:	e7e7      	b.n	f82 <buildHttpHeaderWithActiveSessionID+0x1a>
     fb2:	4b01      	ldr	r3, [pc, #4]	; (fb8 <buildHttpHeaderWithActiveSessionID+0x50>)
     fb4:	2239      	movs	r2, #57	; 0x39
     fb6:	e7e4      	b.n	f82 <buildHttpHeaderWithActiveSessionID+0x1a>
     fb8:	20000001 	.word	0x20000001

00000fbc <buildDataPacketsToServer>:
     fbc:	b510      	push	{r4, lr}
     fbe:	4c06      	ldr	r4, [pc, #24]	; (fd8 <buildDataPacketsToServer+0x1c>)
     fc0:	4906      	ldr	r1, [pc, #24]	; (fdc <buildDataPacketsToServer+0x20>)
     fc2:	4b07      	ldr	r3, [pc, #28]	; (fe0 <buildDataPacketsToServer+0x24>)
     fc4:	4620      	mov	r0, r4
     fc6:	220f      	movs	r2, #15
     fc8:	4798      	blx	r3
     fca:	4620      	mov	r0, r4
     fcc:	4905      	ldr	r1, [pc, #20]	; (fe4 <buildDataPacketsToServer+0x28>)
     fce:	4b06      	ldr	r3, [pc, #24]	; (fe8 <buildDataPacketsToServer+0x2c>)
     fd0:	e8bd 4010 	ldmia.w	sp!, {r4, lr}
     fd4:	4718      	bx	r3
     fd6:	bf00      	nop
     fd8:	200002b2 	.word	0x200002b2
     fdc:	20000012 	.word	0x20000012
     fe0:	00005bf3 	.word	0x00005bf3
     fe4:	000072dc 	.word	0x000072dc
     fe8:	00005b91 	.word	0x00005b91

00000fec <retrieveAPNStringFromResponse>:
     fec:	b530      	push	{r4, r5, lr}
     fee:	b085      	sub	sp, #20
     ff0:	ab01      	add	r3, sp, #4
     ff2:	2100      	movs	r1, #0
     ff4:	4d0b      	ldr	r5, [pc, #44]	; (1024 <retrieveAPNStringFromResponse+0x38>)
     ff6:	6059      	str	r1, [r3, #4]
     ff8:	9101      	str	r1, [sp, #4]
     ffa:	f8c3 1007 	str.w	r1, [r3, #7]
     ffe:	3073      	adds	r0, #115	; 0x73
    1000:	186a      	adds	r2, r5, r1
    1002:	7844      	ldrb	r4, [r0, #1]
    1004:	7594      	strb	r4, [r2, #22]
    1006:	f810 2f01 	ldrb.w	r2, [r0, #1]!
    100a:	545a      	strb	r2, [r3, r1]
    100c:	3101      	adds	r1, #1
    100e:	290b      	cmp	r1, #11
    1010:	d1f6      	bne.n	1000 <retrieveAPNStringFromResponse+0x14>
    1012:	4618      	mov	r0, r3
    1014:	4b04      	ldr	r3, [pc, #16]	; (1028 <retrieveAPNStringFromResponse+0x3c>)
    1016:	4798      	blx	r3
    1018:	4804      	ldr	r0, [pc, #16]	; (102c <retrieveAPNStringFromResponse+0x40>)
    101a:	4b05      	ldr	r3, [pc, #20]	; (1030 <retrieveAPNStringFromResponse+0x44>)
    101c:	4798      	blx	r3
    101e:	b005      	add	sp, #20
    1020:	bd30      	pop	{r4, r5, pc}
    1022:	bf00      	nop
    1024:	20000021 	.word	0x20000021
    1028:	00002861 	.word	0x00002861
    102c:	00008026 	.word	0x00008026
    1030:	000028a5 	.word	0x000028a5

00001034 <mdmParser_solicitedCmdParser>:
    1034:	e92d 41f0 	stmdb	sp!, {r4, r5, r6, r7, r8, lr}
    1038:	b086      	sub	sp, #24
    103a:	a901      	add	r1, sp, #4
    103c:	4b29      	ldr	r3, [pc, #164]	; (10e4 <mdmParser_solicitedCmdParser+0xb0>)
    103e:	4d2a      	ldr	r5, [pc, #168]	; (10e8 <mdmParser_solicitedCmdParser+0xb4>)
    1040:	4798      	blx	r3
    1042:	f8bd 0014 	ldrh.w	r0, [sp, #20]
    1046:	f89d 700c 	ldrb.w	r7, [sp, #12]
    104a:	47a8      	blx	r5
    104c:	4680      	mov	r8, r0
    104e:	2800      	cmp	r0, #0
    1050:	d043      	beq.n	10da <mdmParser_solicitedCmdParser+0xa6>
    1052:	f8bd 1014 	ldrh.w	r1, [sp, #20]
    1056:	4b25      	ldr	r3, [pc, #148]	; (10ec <mdmParser_solicitedCmdParser+0xb8>)
    1058:	4798      	blx	r3
    105a:	4606      	mov	r6, r0
    105c:	2800      	cmp	r0, #0
    105e:	d039      	beq.n	10d4 <mdmParser_solicitedCmdParser+0xa0>
    1060:	f89d 200c 	ldrb.w	r2, [sp, #12]
    1064:	9802      	ldr	r0, [sp, #8]
    1066:	4b22      	ldr	r3, [pc, #136]	; (10f0 <mdmParser_solicitedCmdParser+0xbc>)
    1068:	4641      	mov	r1, r8
    106a:	4798      	blx	r3
    106c:	4604      	mov	r4, r0
    106e:	bb78      	cbnz	r0, 10d0 <mdmParser_solicitedCmdParser+0x9c>
    1070:	f8bd 000e 	ldrh.w	r0, [sp, #14]
    1074:	3001      	adds	r0, #1
    1076:	47a8      	blx	r5
    1078:	4605      	mov	r5, r0
    107a:	b1e0      	cbz	r0, 10b6 <mdmParser_solicitedCmdParser+0x82>
    107c:	3702      	adds	r7, #2
    107e:	4620      	mov	r0, r4
    1080:	fa58 f787 	uxtab	r7, r8, r7
    1084:	f8bd 300e 	ldrh.w	r3, [sp, #14]
    1088:	1c42      	adds	r2, r0, #1
    108a:	b2c0      	uxtb	r0, r0
    108c:	4298      	cmp	r0, r3
    108e:	d30e      	bcc.n	10ae <mdmParser_solicitedCmdParser+0x7a>
    1090:	2300      	movs	r3, #0
    1092:	542b      	strb	r3, [r5, r0]
    1094:	f8bd 200e 	ldrh.w	r2, [sp, #14]
    1098:	f89d 0004 	ldrb.w	r0, [sp, #4]
    109c:	9b04      	ldr	r3, [sp, #16]
    109e:	3201      	adds	r2, #1
    10a0:	b292      	uxth	r2, r2
    10a2:	4629      	mov	r1, r5
    10a4:	4798      	blx	r3
    10a6:	4b13      	ldr	r3, [pc, #76]	; (10f4 <mdmParser_solicitedCmdParser+0xc0>)
    10a8:	4628      	mov	r0, r5
    10aa:	4798      	blx	r3
    10ac:	e007      	b.n	10be <mdmParser_solicitedCmdParser+0x8a>
    10ae:	5c3b      	ldrb	r3, [r7, r0]
    10b0:	542b      	strb	r3, [r5, r0]
    10b2:	4610      	mov	r0, r2
    10b4:	e7e6      	b.n	1084 <mdmParser_solicitedCmdParser+0x50>
    10b6:	4810      	ldr	r0, [pc, #64]	; (10f8 <mdmParser_solicitedCmdParser+0xc4>)
    10b8:	4b10      	ldr	r3, [pc, #64]	; (10fc <mdmParser_solicitedCmdParser+0xc8>)
    10ba:	4798      	blx	r3
    10bc:	2600      	movs	r6, #0
    10be:	4640      	mov	r0, r8
    10c0:	4b0c      	ldr	r3, [pc, #48]	; (10f4 <mdmParser_solicitedCmdParser+0xc0>)
    10c2:	4798      	blx	r3
    10c4:	4b0e      	ldr	r3, [pc, #56]	; (1100 <mdmParser_solicitedCmdParser+0xcc>)
    10c6:	4798      	blx	r3
    10c8:	4630      	mov	r0, r6
    10ca:	b006      	add	sp, #24
    10cc:	e8bd 81f0 	ldmia.w	sp!, {r4, r5, r6, r7, r8, pc}
    10d0:	480c      	ldr	r0, [pc, #48]	; (1104 <mdmParser_solicitedCmdParser+0xd0>)
    10d2:	e7f1      	b.n	10b8 <mdmParser_solicitedCmdParser+0x84>
    10d4:	480c      	ldr	r0, [pc, #48]	; (1108 <mdmParser_solicitedCmdParser+0xd4>)
    10d6:	4b09      	ldr	r3, [pc, #36]	; (10fc <mdmParser_solicitedCmdParser+0xc8>)
    10d8:	e7e7      	b.n	10aa <mdmParser_solicitedCmdParser+0x76>
    10da:	480c      	ldr	r0, [pc, #48]	; (110c <mdmParser_solicitedCmdParser+0xd8>)
    10dc:	4b07      	ldr	r3, [pc, #28]	; (10fc <mdmParser_solicitedCmdParser+0xc8>)
    10de:	4798      	blx	r3
    10e0:	4646      	mov	r6, r8
    10e2:	e7ef      	b.n	10c4 <mdmParser_solicitedCmdParser+0x90>
    10e4:	00000f4d 	.word	0x00000f4d
    10e8:	00004015 	.word	0x00004015
    10ec:	00002009 	.word	0x00002009
    10f0:	00005bcf 	.word	0x00005bcf
    10f4:	000040e1 	.word	0x000040e1
    10f8:	00007522 	.word	0x00007522
    10fc:	000028a5 	.word	0x000028a5
    1100:	00002051 	.word	0x00002051
    1104:	00007556 	.word	0x00007556
    1108:	00007592 	.word	0x00007592
    110c:	000075d6 	.word	0x000075d6

00001110 <mdmParser_SetLastCmdProcessed>:
    1110:	4b01      	ldr	r3, [pc, #4]	; (1118 <mdmParser_SetLastCmdProcessed+0x8>)
    1112:	7018      	strb	r0, [r3, #0]
    1114:	4770      	bx	lr
    1116:	bf00      	nop
    1118:	20000044 	.word	0x20000044

0000111c <mdmParser_SetLastSentAtCommand>:
    111c:	4b01      	ldr	r3, [pc, #4]	; (1124 <mdmParser_SetLastSentAtCommand+0x8>)
    111e:	7018      	strb	r0, [r3, #0]
    1120:	4770      	bx	lr
    1122:	bf00      	nop
    1124:	200002ee 	.word	0x200002ee

00001128 <mdmParser_GetLastSentAtCommand>:
    1128:	4b01      	ldr	r3, [pc, #4]	; (1130 <mdmParser_GetLastSentAtCommand+0x8>)
    112a:	7818      	ldrb	r0, [r3, #0]
    112c:	4770      	bx	lr
    112e:	bf00      	nop
    1130:	200002ee 	.word	0x200002ee

00001134 <getCloseActiveSessionCmd>:
    1134:	3801      	subs	r0, #1
    1136:	2809      	cmp	r0, #9
    1138:	d807      	bhi.n	114a <getCloseActiveSessionCmd+0x16>
    113a:	e8df f000 	tbb	[pc, r0]
    113e:	0805      	.short	0x0805
    1140:	100e0c0a 	.word	0x100e0c0a
    1144:	18161412 	.word	0x18161412
    1148:	230a      	movs	r3, #10
    114a:	4618      	mov	r0, r3
    114c:	4770      	bx	lr
    114e:	230b      	movs	r3, #11
    1150:	e7fb      	b.n	114a <getCloseActiveSessionCmd+0x16>
    1152:	230c      	movs	r3, #12
    1154:	e7f9      	b.n	114a <getCloseActiveSessionCmd+0x16>
    1156:	230d      	movs	r3, #13
    1158:	e7f7      	b.n	114a <getCloseActiveSessionCmd+0x16>
    115a:	230e      	movs	r3, #14
    115c:	e7f5      	b.n	114a <getCloseActiveSessionCmd+0x16>
    115e:	230f      	movs	r3, #15
    1160:	e7f3      	b.n	114a <getCloseActiveSessionCmd+0x16>
    1162:	2310      	movs	r3, #16
    1164:	e7f1      	b.n	114a <getCloseActiveSessionCmd+0x16>
    1166:	2311      	movs	r3, #17
    1168:	e7ef      	b.n	114a <getCloseActiveSessionCmd+0x16>
    116a:	2312      	movs	r3, #18
    116c:	e7ed      	b.n	114a <getCloseActiveSessionCmd+0x16>
    116e:	2313      	movs	r3, #19
    1170:	e7eb      	b.n	114a <getCloseActiveSessionCmd+0x16>
	...

00001174 <validateCommonCommandResponse>:
    1174:	b508      	push	{r3, lr}
    1176:	2202      	movs	r2, #2
    1178:	4903      	ldr	r1, [pc, #12]	; (1188 <validateCommonCommandResponse+0x14>)
    117a:	4b04      	ldr	r3, [pc, #16]	; (118c <validateCommonCommandResponse+0x18>)
    117c:	4798      	blx	r3
    117e:	fab0 f080 	clz	r0, r0
    1182:	0940      	lsrs	r0, r0, #5
    1184:	bd08      	pop	{r3, pc}
    1186:	bf00      	nop
    1188:	00007ab9 	.word	0x00007ab9
    118c:	00005957 	.word	0x00005957

00001190 <MdmConnect_HttpConnectionInit>:
    1190:	4b07      	ldr	r3, [pc, #28]	; (11b0 <MdmConnect_HttpConnectionInit+0x20>)
    1192:	2200      	movs	r2, #0
    1194:	701a      	strb	r2, [r3, #0]
    1196:	705a      	strb	r2, [r3, #1]
    1198:	709a      	strb	r2, [r3, #2]
    119a:	70da      	strb	r2, [r3, #3]
    119c:	711a      	strb	r2, [r3, #4]
    119e:	2105      	movs	r1, #5
    11a0:	721a      	strb	r2, [r3, #8]
    11a2:	815a      	strh	r2, [r3, #10]
    11a4:	60da      	str	r2, [r3, #12]
    11a6:	2230      	movs	r2, #48	; 0x30
    11a8:	7159      	strb	r1, [r3, #5]
    11aa:	741a      	strb	r2, [r3, #16]
    11ac:	4770      	bx	lr
    11ae:	bf00      	nop
    11b0:	200002f0 	.word	0x200002f0

000011b4 <performForcedRebootOfModem>:
    11b4:	b510      	push	{r4, lr}
    11b6:	4805      	ldr	r0, [pc, #20]	; (11cc <performForcedRebootOfModem+0x18>)
    11b8:	4c05      	ldr	r4, [pc, #20]	; (11d0 <performForcedRebootOfModem+0x1c>)
    11ba:	47a0      	blx	r4
    11bc:	4805      	ldr	r0, [pc, #20]	; (11d4 <performForcedRebootOfModem+0x20>)
    11be:	47a0      	blx	r4
    11c0:	4b05      	ldr	r3, [pc, #20]	; (11d8 <performForcedRebootOfModem+0x24>)
    11c2:	4798      	blx	r3
    11c4:	4b05      	ldr	r3, [pc, #20]	; (11dc <performForcedRebootOfModem+0x28>)
    11c6:	e8bd 4010 	ldmia.w	sp!, {r4, lr}
    11ca:	4718      	bx	r3
    11cc:	0000760d 	.word	0x0000760d
    11d0:	000028a5 	.word	0x000028a5
    11d4:	00007633 	.word	0x00007633
    11d8:	000022f1 	.word	0x000022f1
    11dc:	00001191 	.word	0x00001191

000011e0 <MdmCnct_ConnectInProgressSubStateMachine>:
    11e0:	e92d 43f7 	stmdb	sp!, {r0, r1, r2, r4, r5, r6, r7, r8, r9, lr}
    11e4:	4c97      	ldr	r4, [pc, #604]	; (1444 <MdmCnct_ConnectInProgressSubStateMachine+0x264>)
    11e6:	7863      	ldrb	r3, [r4, #1]
    11e8:	2b09      	cmp	r3, #9
    11ea:	d84c      	bhi.n	1286 <MdmCnct_ConnectInProgressSubStateMachine+0xa6>
    11ec:	e8df f013 	tbh	[pc, r3, lsl #1]
    11f0:	0074000a 	.word	0x0074000a
    11f4:	015e00c8 	.word	0x015e00c8
    11f8:	020b01bb 	.word	0x020b01bb
    11fc:	02ca024f 	.word	0x02ca024f
    1200:	036f030d 	.word	0x036f030d
    1204:	78a3      	ldrb	r3, [r4, #2]
    1206:	2b00      	cmp	r3, #0
    1208:	d140      	bne.n	128c <MdmCnct_ConnectInProgressSubStateMachine+0xac>
    120a:	7965      	ldrb	r5, [r4, #5]
    120c:	2d00      	cmp	r5, #0
    120e:	d032      	beq.n	1276 <MdmCnct_ConnectInProgressSubStateMachine+0x96>
    1210:	4e8d      	ldr	r6, [pc, #564]	; (1448 <MdmCnct_ConnectInProgressSubStateMachine+0x268>)
    1212:	4b8e      	ldr	r3, [pc, #568]	; (144c <MdmCnct_ConnectInProgressSubStateMachine+0x26c>)
    1214:	6830      	ldr	r0, [r6, #0]
    1216:	4798      	blx	r3
    1218:	4605      	mov	r5, r0
    121a:	bb50      	cbnz	r0, 1272 <MdmCnct_ConnectInProgressSubStateMachine+0x92>
    121c:	f8df 8288 	ldr.w	r8, [pc, #648]	; 14a8 <MdmCnct_ConnectInProgressSubStateMachine+0x2c8>
    1220:	4b8b      	ldr	r3, [pc, #556]	; (1450 <MdmCnct_ConnectInProgressSubStateMachine+0x270>)
    1222:	4601      	mov	r1, r0
    1224:	f8d8 0000 	ldr.w	r0, [r8]
    1228:	4798      	blx	r3
    122a:	2801      	cmp	r0, #1
    122c:	d11d      	bne.n	126a <MdmCnct_ConnectInProgressSubStateMachine+0x8a>
    122e:	f88d 0000 	strb.w	r0, [sp]
    1232:	4b88      	ldr	r3, [pc, #544]	; (1454 <MdmCnct_ConnectInProgressSubStateMachine+0x274>)
    1234:	7960      	ldrb	r0, [r4, #5]
    1236:	4f88      	ldr	r7, [pc, #544]	; (1458 <MdmCnct_ConnectInProgressSubStateMachine+0x278>)
    1238:	4798      	blx	r3
    123a:	462b      	mov	r3, r5
    123c:	f88d 0001 	strb.w	r0, [sp, #1]
    1240:	f44f 72fa 	mov.w	r2, #500	; 0x1f4
    1244:	6830      	ldr	r0, [r6, #0]
    1246:	9501      	str	r5, [sp, #4]
    1248:	4669      	mov	r1, sp
    124a:	47b8      	blx	r7
    124c:	2801      	cmp	r0, #1
    124e:	4606      	mov	r6, r0
    1250:	d107      	bne.n	1262 <MdmCnct_ConnectInProgressSubStateMachine+0x82>
    1252:	462b      	mov	r3, r5
    1254:	462a      	mov	r2, r5
    1256:	4629      	mov	r1, r5
    1258:	f8d8 0000 	ldr.w	r0, [r8]
    125c:	47b8      	blx	r7
    125e:	70a6      	strb	r6, [r4, #2]
    1260:	e064      	b.n	132c <MdmCnct_ConnectInProgressSubStateMachine+0x14c>
    1262:	487e      	ldr	r0, [pc, #504]	; (145c <MdmCnct_ConnectInProgressSubStateMachine+0x27c>)
    1264:	4b7e      	ldr	r3, [pc, #504]	; (1460 <MdmCnct_ConnectInProgressSubStateMachine+0x280>)
    1266:	4798      	blx	r3
    1268:	e060      	b.n	132c <MdmCnct_ConnectInProgressSubStateMachine+0x14c>
    126a:	487e      	ldr	r0, [pc, #504]	; (1464 <MdmCnct_ConnectInProgressSubStateMachine+0x284>)
    126c:	4b7c      	ldr	r3, [pc, #496]	; (1460 <MdmCnct_ConnectInProgressSubStateMachine+0x280>)
    126e:	4798      	blx	r3
    1270:	e009      	b.n	1286 <MdmCnct_ConnectInProgressSubStateMachine+0xa6>
    1272:	487d      	ldr	r0, [pc, #500]	; (1468 <MdmCnct_ConnectInProgressSubStateMachine+0x288>)
    1274:	e7fa      	b.n	126c <MdmCnct_ConnectInProgressSubStateMachine+0x8c>
    1276:	487d      	ldr	r0, [pc, #500]	; (146c <MdmCnct_ConnectInProgressSubStateMachine+0x28c>)
    1278:	4e79      	ldr	r6, [pc, #484]	; (1460 <MdmCnct_ConnectInProgressSubStateMachine+0x280>)
    127a:	47b0      	blx	r6
    127c:	487c      	ldr	r0, [pc, #496]	; (1470 <MdmCnct_ConnectInProgressSubStateMachine+0x290>)
    127e:	47b0      	blx	r6
    1280:	2301      	movs	r3, #1
    1282:	7063      	strb	r3, [r4, #1]
    1284:	70a5      	strb	r5, [r4, #2]
    1286:	b003      	add	sp, #12
    1288:	e8bd 83f0 	ldmia.w	sp!, {r4, r5, r6, r7, r8, r9, pc}
    128c:	2b01      	cmp	r3, #1
    128e:	d1fa      	bne.n	1286 <MdmCnct_ConnectInProgressSubStateMachine+0xa6>
    1290:	4b78      	ldr	r3, [pc, #480]	; (1474 <MdmCnct_ConnectInProgressSubStateMachine+0x294>)
    1292:	4979      	ldr	r1, [pc, #484]	; (1478 <MdmCnct_ConnectInProgressSubStateMachine+0x298>)
    1294:	6818      	ldr	r0, [r3, #0]
    1296:	4b79      	ldr	r3, [pc, #484]	; (147c <MdmCnct_ConnectInProgressSubStateMachine+0x29c>)
    1298:	f44f 627a 	mov.w	r2, #4000	; 0xfa0
    129c:	4798      	blx	r3
    129e:	2801      	cmp	r0, #1
    12a0:	4606      	mov	r6, r0
    12a2:	d1f0      	bne.n	1286 <MdmCnct_ConnectInProgressSubStateMachine+0xa6>
    12a4:	7961      	ldrb	r1, [r4, #5]
    12a6:	4b6b      	ldr	r3, [pc, #428]	; (1454 <MdmCnct_ConnectInProgressSubStateMachine+0x274>)
    12a8:	7a25      	ldrb	r5, [r4, #8]
    12aa:	4608      	mov	r0, r1
    12ac:	4798      	blx	r3
    12ae:	4285      	cmp	r5, r0
    12b0:	4d73      	ldr	r5, [pc, #460]	; (1480 <MdmCnct_ConnectInProgressSubStateMachine+0x2a0>)
    12b2:	d10d      	bne.n	12d0 <MdmCnct_ConnectInProgressSubStateMachine+0xf0>
    12b4:	b121      	cbz	r1, 12c0 <MdmCnct_ConnectInProgressSubStateMachine+0xe0>
    12b6:	3901      	subs	r1, #1
    12b8:	7161      	strb	r1, [r4, #5]
    12ba:	2300      	movs	r3, #0
    12bc:	70a3      	strb	r3, [r4, #2]
    12be:	e004      	b.n	12ca <MdmCnct_ConnectInProgressSubStateMachine+0xea>
    12c0:	4870      	ldr	r0, [pc, #448]	; (1484 <MdmCnct_ConnectInProgressSubStateMachine+0x2a4>)
    12c2:	4b67      	ldr	r3, [pc, #412]	; (1460 <MdmCnct_ConnectInProgressSubStateMachine+0x280>)
    12c4:	7066      	strb	r6, [r4, #1]
    12c6:	70a1      	strb	r1, [r4, #2]
    12c8:	4798      	blx	r3
    12ca:	68e0      	ldr	r0, [r4, #12]
    12cc:	47a8      	blx	r5
    12ce:	e7da      	b.n	1286 <MdmCnct_ConnectInProgressSubStateMachine+0xa6>
    12d0:	486d      	ldr	r0, [pc, #436]	; (1488 <MdmCnct_ConnectInProgressSubStateMachine+0x2a8>)
    12d2:	4b63      	ldr	r3, [pc, #396]	; (1460 <MdmCnct_ConnectInProgressSubStateMachine+0x280>)
    12d4:	4798      	blx	r3
    12d6:	e7f0      	b.n	12ba <MdmCnct_ConnectInProgressSubStateMachine+0xda>
    12d8:	78a3      	ldrb	r3, [r4, #2]
    12da:	bb5b      	cbnz	r3, 1334 <MdmCnct_ConnectInProgressSubStateMachine+0x154>
    12dc:	4e5a      	ldr	r6, [pc, #360]	; (1448 <MdmCnct_ConnectInProgressSubStateMachine+0x268>)
    12de:	4b5b      	ldr	r3, [pc, #364]	; (144c <MdmCnct_ConnectInProgressSubStateMachine+0x26c>)
    12e0:	6830      	ldr	r0, [r6, #0]
    12e2:	4798      	blx	r3
    12e4:	4605      	mov	r5, r0
    12e6:	2800      	cmp	r0, #0
    12e8:	d1c3      	bne.n	1272 <MdmCnct_ConnectInProgressSubStateMachine+0x92>
    12ea:	f8df 81bc 	ldr.w	r8, [pc, #444]	; 14a8 <MdmCnct_ConnectInProgressSubStateMachine+0x2c8>
    12ee:	4b58      	ldr	r3, [pc, #352]	; (1450 <MdmCnct_ConnectInProgressSubStateMachine+0x270>)
    12f0:	4601      	mov	r1, r0
    12f2:	f8d8 0000 	ldr.w	r0, [r8]
    12f6:	4798      	blx	r3
    12f8:	2801      	cmp	r0, #1
    12fa:	d1b6      	bne.n	126a <MdmCnct_ConnectInProgressSubStateMachine+0x8a>
    12fc:	231a      	movs	r3, #26
    12fe:	f88d 0000 	strb.w	r0, [sp]
    1302:	f88d 3001 	strb.w	r3, [sp, #1]
    1306:	6830      	ldr	r0, [r6, #0]
    1308:	4f53      	ldr	r7, [pc, #332]	; (1458 <MdmCnct_ConnectInProgressSubStateMachine+0x278>)
    130a:	9501      	str	r5, [sp, #4]
    130c:	462b      	mov	r3, r5
    130e:	f44f 72fa 	mov.w	r2, #500	; 0x1f4
    1312:	4669      	mov	r1, sp
    1314:	47b8      	blx	r7
    1316:	2801      	cmp	r0, #1
    1318:	4606      	mov	r6, r0
    131a:	d1a2      	bne.n	1262 <MdmCnct_ConnectInProgressSubStateMachine+0x82>
    131c:	462b      	mov	r3, r5
    131e:	462a      	mov	r2, r5
    1320:	4629      	mov	r1, r5
    1322:	f8d8 0000 	ldr.w	r0, [r8]
    1326:	47b8      	blx	r7
    1328:	70a6      	strb	r6, [r4, #2]
    132a:	7066      	strb	r6, [r4, #1]
    132c:	f44f 70fa 	mov.w	r0, #500	; 0x1f4
    1330:	4b56      	ldr	r3, [pc, #344]	; (148c <MdmCnct_ConnectInProgressSubStateMachine+0x2ac>)
    1332:	e79c      	b.n	126e <MdmCnct_ConnectInProgressSubStateMachine+0x8e>
    1334:	2b01      	cmp	r3, #1
    1336:	d1a6      	bne.n	1286 <MdmCnct_ConnectInProgressSubStateMachine+0xa6>
    1338:	4b4e      	ldr	r3, [pc, #312]	; (1474 <MdmCnct_ConnectInProgressSubStateMachine+0x294>)
    133a:	494f      	ldr	r1, [pc, #316]	; (1478 <MdmCnct_ConnectInProgressSubStateMachine+0x298>)
    133c:	6818      	ldr	r0, [r3, #0]
    133e:	4b4f      	ldr	r3, [pc, #316]	; (147c <MdmCnct_ConnectInProgressSubStateMachine+0x29c>)
    1340:	f44f 627a 	mov.w	r2, #4000	; 0xfa0
    1344:	4798      	blx	r3
    1346:	2801      	cmp	r0, #1
    1348:	d19d      	bne.n	1286 <MdmCnct_ConnectInProgressSubStateMachine+0xa6>
    134a:	7a23      	ldrb	r3, [r4, #8]
    134c:	4d44      	ldr	r5, [pc, #272]	; (1460 <MdmCnct_ConnectInProgressSubStateMachine+0x280>)
    134e:	4e4c      	ldr	r6, [pc, #304]	; (1480 <MdmCnct_ConnectInProgressSubStateMachine+0x2a0>)
    1350:	2b1a      	cmp	r3, #26
    1352:	f040 82b9 	bne.w	18c8 <MdmCnct_ConnectInProgressSubStateMachine+0x6e8>
    1356:	68e0      	ldr	r0, [r4, #12]
    1358:	4b4d      	ldr	r3, [pc, #308]	; (1490 <MdmCnct_ConnectInProgressSubStateMachine+0x2b0>)
    135a:	4798      	blx	r3
    135c:	4607      	mov	r7, r0
    135e:	2800      	cmp	r0, #0
    1360:	f000 80f9 	beq.w	1556 <MdmCnct_ConnectInProgressSubStateMachine+0x376>
    1364:	484b      	ldr	r0, [pc, #300]	; (1494 <MdmCnct_ConnectInProgressSubStateMachine+0x2b4>)
    1366:	47a8      	blx	r5
    1368:	4b4b      	ldr	r3, [pc, #300]	; (1498 <MdmCnct_ConnectInProgressSubStateMachine+0x2b8>)
    136a:	8961      	ldrh	r1, [r4, #10]
    136c:	68e0      	ldr	r0, [r4, #12]
    136e:	4798      	blx	r3
    1370:	483f      	ldr	r0, [pc, #252]	; (1470 <MdmCnct_ConnectInProgressSubStateMachine+0x290>)
    1372:	47a8      	blx	r5
    1374:	2300      	movs	r3, #0
    1376:	70a3      	strb	r3, [r4, #2]
    1378:	2302      	movs	r3, #2
    137a:	7063      	strb	r3, [r4, #1]
    137c:	68e0      	ldr	r0, [r4, #12]
    137e:	e031      	b.n	13e4 <MdmCnct_ConnectInProgressSubStateMachine+0x204>
    1380:	78a3      	ldrb	r3, [r4, #2]
    1382:	2b00      	cmp	r3, #0
    1384:	d134      	bne.n	13f0 <MdmCnct_ConnectInProgressSubStateMachine+0x210>
    1386:	4e30      	ldr	r6, [pc, #192]	; (1448 <MdmCnct_ConnectInProgressSubStateMachine+0x268>)
    1388:	4b30      	ldr	r3, [pc, #192]	; (144c <MdmCnct_ConnectInProgressSubStateMachine+0x26c>)
    138a:	6830      	ldr	r0, [r6, #0]
    138c:	4798      	blx	r3
    138e:	4605      	mov	r5, r0
    1390:	2800      	cmp	r0, #0
    1392:	f47f af6e 	bne.w	1272 <MdmCnct_ConnectInProgressSubStateMachine+0x92>
    1396:	f8df 9110 	ldr.w	r9, [pc, #272]	; 14a8 <MdmCnct_ConnectInProgressSubStateMachine+0x2c8>
    139a:	4b2d      	ldr	r3, [pc, #180]	; (1450 <MdmCnct_ConnectInProgressSubStateMachine+0x270>)
    139c:	4601      	mov	r1, r0
    139e:	f8d9 0000 	ldr.w	r0, [r9]
    13a2:	4798      	blx	r3
    13a4:	2801      	cmp	r0, #1
    13a6:	f47f af60 	bne.w	126a <MdmCnct_ConnectInProgressSubStateMachine+0x8a>
    13aa:	231b      	movs	r3, #27
    13ac:	f88d 0000 	strb.w	r0, [sp]
    13b0:	f88d 3001 	strb.w	r3, [sp, #1]
    13b4:	6830      	ldr	r0, [r6, #0]
    13b6:	f8df 80a0 	ldr.w	r8, [pc, #160]	; 1458 <MdmCnct_ConnectInProgressSubStateMachine+0x278>
    13ba:	9501      	str	r5, [sp, #4]
    13bc:	462b      	mov	r3, r5
    13be:	f44f 72fa 	mov.w	r2, #500	; 0x1f4
    13c2:	4669      	mov	r1, sp
    13c4:	47c0      	blx	r8
    13c6:	2801      	cmp	r0, #1
    13c8:	4607      	mov	r7, r0
    13ca:	4e30      	ldr	r6, [pc, #192]	; (148c <MdmCnct_ConnectInProgressSubStateMachine+0x2ac>)
    13cc:	d10c      	bne.n	13e8 <MdmCnct_ConnectInProgressSubStateMachine+0x208>
    13ce:	462b      	mov	r3, r5
    13d0:	462a      	mov	r2, r5
    13d2:	4629      	mov	r1, r5
    13d4:	f8d9 0000 	ldr.w	r0, [r9]
    13d8:	47c0      	blx	r8
    13da:	70a7      	strb	r7, [r4, #2]
    13dc:	2302      	movs	r3, #2
    13de:	7063      	strb	r3, [r4, #1]
    13e0:	f44f 70fa 	mov.w	r0, #500	; 0x1f4
    13e4:	47b0      	blx	r6
    13e6:	e74e      	b.n	1286 <MdmCnct_ConnectInProgressSubStateMachine+0xa6>
    13e8:	482c      	ldr	r0, [pc, #176]	; (149c <MdmCnct_ConnectInProgressSubStateMachine+0x2bc>)
    13ea:	4b1d      	ldr	r3, [pc, #116]	; (1460 <MdmCnct_ConnectInProgressSubStateMachine+0x280>)
    13ec:	4798      	blx	r3
    13ee:	e7f7      	b.n	13e0 <MdmCnct_ConnectInProgressSubStateMachine+0x200>
    13f0:	2b01      	cmp	r3, #1
    13f2:	f47f af48 	bne.w	1286 <MdmCnct_ConnectInProgressSubStateMachine+0xa6>
    13f6:	4b1f      	ldr	r3, [pc, #124]	; (1474 <MdmCnct_ConnectInProgressSubStateMachine+0x294>)
    13f8:	491f      	ldr	r1, [pc, #124]	; (1478 <MdmCnct_ConnectInProgressSubStateMachine+0x298>)
    13fa:	6818      	ldr	r0, [r3, #0]
    13fc:	4b1f      	ldr	r3, [pc, #124]	; (147c <MdmCnct_ConnectInProgressSubStateMachine+0x29c>)
    13fe:	f44f 627a 	mov.w	r2, #4000	; 0xfa0
    1402:	4798      	blx	r3
    1404:	2801      	cmp	r0, #1
    1406:	f47f af3e 	bne.w	1286 <MdmCnct_ConnectInProgressSubStateMachine+0xa6>
    140a:	7a23      	ldrb	r3, [r4, #8]
    140c:	4d14      	ldr	r5, [pc, #80]	; (1460 <MdmCnct_ConnectInProgressSubStateMachine+0x280>)
    140e:	4e1c      	ldr	r6, [pc, #112]	; (1480 <MdmCnct_ConnectInProgressSubStateMachine+0x2a0>)
    1410:	2b1b      	cmp	r3, #27
    1412:	f040 8259 	bne.w	18c8 <MdmCnct_ConnectInProgressSubStateMachine+0x6e8>
    1416:	68e0      	ldr	r0, [r4, #12]
    1418:	4b1d      	ldr	r3, [pc, #116]	; (1490 <MdmCnct_ConnectInProgressSubStateMachine+0x2b0>)
    141a:	4798      	blx	r3
    141c:	4607      	mov	r7, r0
    141e:	2800      	cmp	r0, #0
    1420:	f000 8099 	beq.w	1556 <MdmCnct_ConnectInProgressSubStateMachine+0x376>
    1424:	481e      	ldr	r0, [pc, #120]	; (14a0 <MdmCnct_ConnectInProgressSubStateMachine+0x2c0>)
    1426:	47a8      	blx	r5
    1428:	4b1b      	ldr	r3, [pc, #108]	; (1498 <MdmCnct_ConnectInProgressSubStateMachine+0x2b8>)
    142a:	8961      	ldrh	r1, [r4, #10]
    142c:	68e0      	ldr	r0, [r4, #12]
    142e:	4798      	blx	r3
    1430:	480f      	ldr	r0, [pc, #60]	; (1470 <MdmCnct_ConnectInProgressSubStateMachine+0x290>)
    1432:	47a8      	blx	r5
    1434:	481b      	ldr	r0, [pc, #108]	; (14a4 <MdmCnct_ConnectInProgressSubStateMachine+0x2c4>)
    1436:	47a8      	blx	r5
    1438:	480d      	ldr	r0, [pc, #52]	; (1470 <MdmCnct_ConnectInProgressSubStateMachine+0x290>)
    143a:	47a8      	blx	r5
    143c:	2300      	movs	r3, #0
    143e:	70a3      	strb	r3, [r4, #2]
    1440:	2303      	movs	r3, #3
    1442:	e79a      	b.n	137a <MdmCnct_ConnectInProgressSubStateMachine+0x19a>
    1444:	200002f0 	.word	0x200002f0
    1448:	20003578 	.word	0x20003578
    144c:	000049b9 	.word	0x000049b9
    1450:	00004805 	.word	0x00004805
    1454:	00001135 	.word	0x00001135
    1458:	000043dd 	.word	0x000043dd
    145c:	00007676 	.word	0x00007676
    1460:	000028a5 	.word	0x000028a5
    1464:	000065a2 	.word	0x000065a2
    1468:	000065cb 	.word	0x000065cb
    146c:	000076aa 	.word	0x000076aa
    1470:	00008026 	.word	0x00008026
    1474:	20003554 	.word	0x20003554
    1478:	200002f8 	.word	0x200002f8
    147c:	00004699 	.word	0x00004699
    1480:	000040e1 	.word	0x000040e1
    1484:	000076ce 	.word	0x000076ce
    1488:	00006646 	.word	0x00006646
    148c:	00004f09 	.word	0x00004f09
    1490:	00001175 	.word	0x00001175
    1494:	000076ec 	.word	0x000076ec
    1498:	00002861 	.word	0x00002861
    149c:	0000770c 	.word	0x0000770c
    14a0:	0000773c 	.word	0x0000773c
    14a4:	00007750 	.word	0x00007750
    14a8:	2000358c 	.word	0x2000358c
    14ac:	78a3      	ldrb	r3, [r4, #2]
    14ae:	bb73      	cbnz	r3, 150e <MdmCnct_ConnectInProgressSubStateMachine+0x32e>
    14b0:	4e9a      	ldr	r6, [pc, #616]	; (171c <MdmCnct_ConnectInProgressSubStateMachine+0x53c>)
    14b2:	4b9b      	ldr	r3, [pc, #620]	; (1720 <MdmCnct_ConnectInProgressSubStateMachine+0x540>)
    14b4:	6830      	ldr	r0, [r6, #0]
    14b6:	4798      	blx	r3
    14b8:	4605      	mov	r5, r0
    14ba:	2800      	cmp	r0, #0
    14bc:	f47f aed9 	bne.w	1272 <MdmCnct_ConnectInProgressSubStateMachine+0x92>
    14c0:	f8df 92bc 	ldr.w	r9, [pc, #700]	; 1780 <MdmCnct_ConnectInProgressSubStateMachine+0x5a0>
    14c4:	4b97      	ldr	r3, [pc, #604]	; (1724 <MdmCnct_ConnectInProgressSubStateMachine+0x544>)
    14c6:	4601      	mov	r1, r0
    14c8:	f8d9 0000 	ldr.w	r0, [r9]
    14cc:	4798      	blx	r3
    14ce:	2801      	cmp	r0, #1
    14d0:	f47f aecb 	bne.w	126a <MdmCnct_ConnectInProgressSubStateMachine+0x8a>
    14d4:	231d      	movs	r3, #29
    14d6:	f88d 0000 	strb.w	r0, [sp]
    14da:	f88d 3001 	strb.w	r3, [sp, #1]
    14de:	6830      	ldr	r0, [r6, #0]
    14e0:	f8df 8298 	ldr.w	r8, [pc, #664]	; 177c <MdmCnct_ConnectInProgressSubStateMachine+0x59c>
    14e4:	9501      	str	r5, [sp, #4]
    14e6:	462b      	mov	r3, r5
    14e8:	f44f 72fa 	mov.w	r2, #500	; 0x1f4
    14ec:	4669      	mov	r1, sp
    14ee:	47c0      	blx	r8
    14f0:	2801      	cmp	r0, #1
    14f2:	4607      	mov	r7, r0
    14f4:	4e8c      	ldr	r6, [pc, #560]	; (1728 <MdmCnct_ConnectInProgressSubStateMachine+0x548>)
    14f6:	d108      	bne.n	150a <MdmCnct_ConnectInProgressSubStateMachine+0x32a>
    14f8:	462b      	mov	r3, r5
    14fa:	462a      	mov	r2, r5
    14fc:	4629      	mov	r1, r5
    14fe:	f8d9 0000 	ldr.w	r0, [r9]
    1502:	47c0      	blx	r8
    1504:	70a7      	strb	r7, [r4, #2]
    1506:	2303      	movs	r3, #3
    1508:	e769      	b.n	13de <MdmCnct_ConnectInProgressSubStateMachine+0x1fe>
    150a:	4888      	ldr	r0, [pc, #544]	; (172c <MdmCnct_ConnectInProgressSubStateMachine+0x54c>)
    150c:	e76d      	b.n	13ea <MdmCnct_ConnectInProgressSubStateMachine+0x20a>
    150e:	2b01      	cmp	r3, #1
    1510:	f47f aeb9 	bne.w	1286 <MdmCnct_ConnectInProgressSubStateMachine+0xa6>
    1514:	4b86      	ldr	r3, [pc, #536]	; (1730 <MdmCnct_ConnectInProgressSubStateMachine+0x550>)
    1516:	4987      	ldr	r1, [pc, #540]	; (1734 <MdmCnct_ConnectInProgressSubStateMachine+0x554>)
    1518:	6818      	ldr	r0, [r3, #0]
    151a:	4b87      	ldr	r3, [pc, #540]	; (1738 <MdmCnct_ConnectInProgressSubStateMachine+0x558>)
    151c:	f44f 627a 	mov.w	r2, #4000	; 0xfa0
    1520:	4798      	blx	r3
    1522:	2801      	cmp	r0, #1
    1524:	f47f aeaf 	bne.w	1286 <MdmCnct_ConnectInProgressSubStateMachine+0xa6>
    1528:	7a23      	ldrb	r3, [r4, #8]
    152a:	4d84      	ldr	r5, [pc, #528]	; (173c <MdmCnct_ConnectInProgressSubStateMachine+0x55c>)
    152c:	4e84      	ldr	r6, [pc, #528]	; (1740 <MdmCnct_ConnectInProgressSubStateMachine+0x560>)
    152e:	2b1d      	cmp	r3, #29
    1530:	f040 81ca 	bne.w	18c8 <MdmCnct_ConnectInProgressSubStateMachine+0x6e8>
    1534:	68e0      	ldr	r0, [r4, #12]
    1536:	4b83      	ldr	r3, [pc, #524]	; (1744 <MdmCnct_ConnectInProgressSubStateMachine+0x564>)
    1538:	4798      	blx	r3
    153a:	4607      	mov	r7, r0
    153c:	b158      	cbz	r0, 1556 <MdmCnct_ConnectInProgressSubStateMachine+0x376>
    153e:	4882      	ldr	r0, [pc, #520]	; (1748 <MdmCnct_ConnectInProgressSubStateMachine+0x568>)
    1540:	47a8      	blx	r5
    1542:	4b82      	ldr	r3, [pc, #520]	; (174c <MdmCnct_ConnectInProgressSubStateMachine+0x56c>)
    1544:	8961      	ldrh	r1, [r4, #10]
    1546:	68e0      	ldr	r0, [r4, #12]
    1548:	4798      	blx	r3
    154a:	4881      	ldr	r0, [pc, #516]	; (1750 <MdmCnct_ConnectInProgressSubStateMachine+0x570>)
    154c:	47a8      	blx	r5
    154e:	2300      	movs	r3, #0
    1550:	70a3      	strb	r3, [r4, #2]
    1552:	2304      	movs	r3, #4
    1554:	e711      	b.n	137a <MdmCnct_ConnectInProgressSubStateMachine+0x19a>
    1556:	487f      	ldr	r0, [pc, #508]	; (1754 <MdmCnct_ConnectInProgressSubStateMachine+0x574>)
    1558:	47a8      	blx	r5
    155a:	487d      	ldr	r0, [pc, #500]	; (1750 <MdmCnct_ConnectInProgressSubStateMachine+0x570>)
    155c:	47a8      	blx	r5
    155e:	4b7e      	ldr	r3, [pc, #504]	; (1758 <MdmCnct_ConnectInProgressSubStateMachine+0x578>)
    1560:	70a7      	strb	r7, [r4, #2]
    1562:	4798      	blx	r3
    1564:	e70a      	b.n	137c <MdmCnct_ConnectInProgressSubStateMachine+0x19c>
    1566:	78a3      	ldrb	r3, [r4, #2]
    1568:	bb6b      	cbnz	r3, 15c6 <MdmCnct_ConnectInProgressSubStateMachine+0x3e6>
    156a:	4e6c      	ldr	r6, [pc, #432]	; (171c <MdmCnct_ConnectInProgressSubStateMachine+0x53c>)
    156c:	4b6c      	ldr	r3, [pc, #432]	; (1720 <MdmCnct_ConnectInProgressSubStateMachine+0x540>)
    156e:	6830      	ldr	r0, [r6, #0]
    1570:	4798      	blx	r3
    1572:	4605      	mov	r5, r0
    1574:	2800      	cmp	r0, #0
    1576:	f47f ae7c 	bne.w	1272 <MdmCnct_ConnectInProgressSubStateMachine+0x92>
    157a:	f8df 9204 	ldr.w	r9, [pc, #516]	; 1780 <MdmCnct_ConnectInProgressSubStateMachine+0x5a0>
    157e:	4b69      	ldr	r3, [pc, #420]	; (1724 <MdmCnct_ConnectInProgressSubStateMachine+0x544>)
    1580:	4601      	mov	r1, r0
    1582:	f8d9 0000 	ldr.w	r0, [r9]
    1586:	4798      	blx	r3
    1588:	2801      	cmp	r0, #1
    158a:	f47f ae6e 	bne.w	126a <MdmCnct_ConnectInProgressSubStateMachine+0x8a>
    158e:	2314      	movs	r3, #20
    1590:	f88d 0000 	strb.w	r0, [sp]
    1594:	f88d 3001 	strb.w	r3, [sp, #1]
    1598:	6830      	ldr	r0, [r6, #0]
    159a:	f8df 81e0 	ldr.w	r8, [pc, #480]	; 177c <MdmCnct_ConnectInProgressSubStateMachine+0x59c>
    159e:	9501      	str	r5, [sp, #4]
    15a0:	462b      	mov	r3, r5
    15a2:	f44f 72fa 	mov.w	r2, #500	; 0x1f4
    15a6:	4669      	mov	r1, sp
    15a8:	47c0      	blx	r8
    15aa:	2801      	cmp	r0, #1
    15ac:	4607      	mov	r7, r0
    15ae:	4e5e      	ldr	r6, [pc, #376]	; (1728 <MdmCnct_ConnectInProgressSubStateMachine+0x548>)
    15b0:	d107      	bne.n	15c2 <MdmCnct_ConnectInProgressSubStateMachine+0x3e2>
    15b2:	462b      	mov	r3, r5
    15b4:	462a      	mov	r2, r5
    15b6:	4629      	mov	r1, r5
    15b8:	f8d9 0000 	ldr.w	r0, [r9]
    15bc:	47c0      	blx	r8
    15be:	70a7      	strb	r7, [r4, #2]
    15c0:	e70e      	b.n	13e0 <MdmCnct_ConnectInProgressSubStateMachine+0x200>
    15c2:	4866      	ldr	r0, [pc, #408]	; (175c <MdmCnct_ConnectInProgressSubStateMachine+0x57c>)
    15c4:	e711      	b.n	13ea <MdmCnct_ConnectInProgressSubStateMachine+0x20a>
    15c6:	2b01      	cmp	r3, #1
    15c8:	f47f ae5d 	bne.w	1286 <MdmCnct_ConnectInProgressSubStateMachine+0xa6>
    15cc:	4b58      	ldr	r3, [pc, #352]	; (1730 <MdmCnct_ConnectInProgressSubStateMachine+0x550>)
    15ce:	4959      	ldr	r1, [pc, #356]	; (1734 <MdmCnct_ConnectInProgressSubStateMachine+0x554>)
    15d0:	6818      	ldr	r0, [r3, #0]
    15d2:	4b59      	ldr	r3, [pc, #356]	; (1738 <MdmCnct_ConnectInProgressSubStateMachine+0x558>)
    15d4:	f44f 627a 	mov.w	r2, #4000	; 0xfa0
    15d8:	4798      	blx	r3
    15da:	2801      	cmp	r0, #1
    15dc:	f47f ae53 	bne.w	1286 <MdmCnct_ConnectInProgressSubStateMachine+0xa6>
    15e0:	7a23      	ldrb	r3, [r4, #8]
    15e2:	4d56      	ldr	r5, [pc, #344]	; (173c <MdmCnct_ConnectInProgressSubStateMachine+0x55c>)
    15e4:	4e56      	ldr	r6, [pc, #344]	; (1740 <MdmCnct_ConnectInProgressSubStateMachine+0x560>)
    15e6:	2b14      	cmp	r3, #20
    15e8:	f040 816e 	bne.w	18c8 <MdmCnct_ConnectInProgressSubStateMachine+0x6e8>
    15ec:	485c      	ldr	r0, [pc, #368]	; (1760 <MdmCnct_ConnectInProgressSubStateMachine+0x580>)
    15ee:	47a8      	blx	r5
    15f0:	4b56      	ldr	r3, [pc, #344]	; (174c <MdmCnct_ConnectInProgressSubStateMachine+0x56c>)
    15f2:	8961      	ldrh	r1, [r4, #10]
    15f4:	68e0      	ldr	r0, [r4, #12]
    15f6:	4798      	blx	r3
    15f8:	4855      	ldr	r0, [pc, #340]	; (1750 <MdmCnct_ConnectInProgressSubStateMachine+0x570>)
    15fa:	47a8      	blx	r5
    15fc:	2305      	movs	r3, #5
    15fe:	7063      	strb	r3, [r4, #1]
    1600:	2300      	movs	r3, #0
    1602:	70a3      	strb	r3, [r4, #2]
    1604:	e6ba      	b.n	137c <MdmCnct_ConnectInProgressSubStateMachine+0x19c>
    1606:	78a3      	ldrb	r3, [r4, #2]
    1608:	bb2b      	cbnz	r3, 1656 <MdmCnct_ConnectInProgressSubStateMachine+0x476>
    160a:	4e44      	ldr	r6, [pc, #272]	; (171c <MdmCnct_ConnectInProgressSubStateMachine+0x53c>)
    160c:	4b44      	ldr	r3, [pc, #272]	; (1720 <MdmCnct_ConnectInProgressSubStateMachine+0x540>)
    160e:	6830      	ldr	r0, [r6, #0]
    1610:	4798      	blx	r3
    1612:	4605      	mov	r5, r0
    1614:	2800      	cmp	r0, #0
    1616:	f47f ae2c 	bne.w	1272 <MdmCnct_ConnectInProgressSubStateMachine+0x92>
    161a:	f8df 9164 	ldr.w	r9, [pc, #356]	; 1780 <MdmCnct_ConnectInProgressSubStateMachine+0x5a0>
    161e:	4b41      	ldr	r3, [pc, #260]	; (1724 <MdmCnct_ConnectInProgressSubStateMachine+0x544>)
    1620:	4601      	mov	r1, r0
    1622:	f8d9 0000 	ldr.w	r0, [r9]
    1626:	4798      	blx	r3
    1628:	2801      	cmp	r0, #1
    162a:	f47f ae1e 	bne.w	126a <MdmCnct_ConnectInProgressSubStateMachine+0x8a>
    162e:	231c      	movs	r3, #28
    1630:	f88d 0000 	strb.w	r0, [sp]
    1634:	f88d 3001 	strb.w	r3, [sp, #1]
    1638:	6830      	ldr	r0, [r6, #0]
    163a:	f8df 8140 	ldr.w	r8, [pc, #320]	; 177c <MdmCnct_ConnectInProgressSubStateMachine+0x59c>
    163e:	9501      	str	r5, [sp, #4]
    1640:	462b      	mov	r3, r5
    1642:	f44f 72fa 	mov.w	r2, #500	; 0x1f4
    1646:	4669      	mov	r1, sp
    1648:	47c0      	blx	r8
    164a:	2801      	cmp	r0, #1
    164c:	4607      	mov	r7, r0
    164e:	4e36      	ldr	r6, [pc, #216]	; (1728 <MdmCnct_ConnectInProgressSubStateMachine+0x548>)
    1650:	d0af      	beq.n	15b2 <MdmCnct_ConnectInProgressSubStateMachine+0x3d2>
    1652:	4844      	ldr	r0, [pc, #272]	; (1764 <MdmCnct_ConnectInProgressSubStateMachine+0x584>)
    1654:	e6c9      	b.n	13ea <MdmCnct_ConnectInProgressSubStateMachine+0x20a>
    1656:	2b01      	cmp	r3, #1
    1658:	f47f ae15 	bne.w	1286 <MdmCnct_ConnectInProgressSubStateMachine+0xa6>
    165c:	4b34      	ldr	r3, [pc, #208]	; (1730 <MdmCnct_ConnectInProgressSubStateMachine+0x550>)
    165e:	4935      	ldr	r1, [pc, #212]	; (1734 <MdmCnct_ConnectInProgressSubStateMachine+0x554>)
    1660:	6818      	ldr	r0, [r3, #0]
    1662:	4b35      	ldr	r3, [pc, #212]	; (1738 <MdmCnct_ConnectInProgressSubStateMachine+0x558>)
    1664:	f44f 627a 	mov.w	r2, #4000	; 0xfa0
    1668:	4798      	blx	r3
    166a:	2801      	cmp	r0, #1
    166c:	f47f ae0b 	bne.w	1286 <MdmCnct_ConnectInProgressSubStateMachine+0xa6>
    1670:	7a23      	ldrb	r3, [r4, #8]
    1672:	4d33      	ldr	r5, [pc, #204]	; (1740 <MdmCnct_ConnectInProgressSubStateMachine+0x560>)
    1674:	2b1c      	cmp	r3, #28
    1676:	4b31      	ldr	r3, [pc, #196]	; (173c <MdmCnct_ConnectInProgressSubStateMachine+0x55c>)
    1678:	d107      	bne.n	168a <MdmCnct_ConnectInProgressSubStateMachine+0x4aa>
    167a:	483b      	ldr	r0, [pc, #236]	; (1768 <MdmCnct_ConnectInProgressSubStateMachine+0x588>)
    167c:	4798      	blx	r3
    167e:	4b3b      	ldr	r3, [pc, #236]	; (176c <MdmCnct_ConnectInProgressSubStateMachine+0x58c>)
    1680:	68e0      	ldr	r0, [r4, #12]
    1682:	4798      	blx	r3
    1684:	2306      	movs	r3, #6
    1686:	7063      	strb	r3, [r4, #1]
    1688:	e617      	b.n	12ba <MdmCnct_ConnectInProgressSubStateMachine+0xda>
    168a:	4839      	ldr	r0, [pc, #228]	; (1770 <MdmCnct_ConnectInProgressSubStateMachine+0x590>)
    168c:	e622      	b.n	12d4 <MdmCnct_ConnectInProgressSubStateMachine+0xf4>
    168e:	78a3      	ldrb	r3, [r4, #2]
    1690:	bb33      	cbnz	r3, 16e0 <MdmCnct_ConnectInProgressSubStateMachine+0x500>
    1692:	4e22      	ldr	r6, [pc, #136]	; (171c <MdmCnct_ConnectInProgressSubStateMachine+0x53c>)
    1694:	4b22      	ldr	r3, [pc, #136]	; (1720 <MdmCnct_ConnectInProgressSubStateMachine+0x540>)
    1696:	6830      	ldr	r0, [r6, #0]
    1698:	4798      	blx	r3
    169a:	4605      	mov	r5, r0
    169c:	2800      	cmp	r0, #0
    169e:	f47f ade8 	bne.w	1272 <MdmCnct_ConnectInProgressSubStateMachine+0x92>
    16a2:	f8df 90dc 	ldr.w	r9, [pc, #220]	; 1780 <MdmCnct_ConnectInProgressSubStateMachine+0x5a0>
    16a6:	4b1f      	ldr	r3, [pc, #124]	; (1724 <MdmCnct_ConnectInProgressSubStateMachine+0x544>)
    16a8:	4601      	mov	r1, r0
    16aa:	f8d9 0000 	ldr.w	r0, [r9]
    16ae:	4798      	blx	r3
    16b0:	2801      	cmp	r0, #1
    16b2:	f47f adda 	bne.w	126a <MdmCnct_ConnectInProgressSubStateMachine+0x8a>
    16b6:	2315      	movs	r3, #21
    16b8:	f88d 0000 	strb.w	r0, [sp]
    16bc:	f88d 3001 	strb.w	r3, [sp, #1]
    16c0:	6830      	ldr	r0, [r6, #0]
    16c2:	f8df 80b8 	ldr.w	r8, [pc, #184]	; 177c <MdmCnct_ConnectInProgressSubStateMachine+0x59c>
    16c6:	9501      	str	r5, [sp, #4]
    16c8:	462b      	mov	r3, r5
    16ca:	f44f 72fa 	mov.w	r2, #500	; 0x1f4
    16ce:	4669      	mov	r1, sp
    16d0:	47c0      	blx	r8
    16d2:	2801      	cmp	r0, #1
    16d4:	4607      	mov	r7, r0
    16d6:	4e14      	ldr	r6, [pc, #80]	; (1728 <MdmCnct_ConnectInProgressSubStateMachine+0x548>)
    16d8:	f43f af6b 	beq.w	15b2 <MdmCnct_ConnectInProgressSubStateMachine+0x3d2>
    16dc:	4825      	ldr	r0, [pc, #148]	; (1774 <MdmCnct_ConnectInProgressSubStateMachine+0x594>)
    16de:	e684      	b.n	13ea <MdmCnct_ConnectInProgressSubStateMachine+0x20a>
    16e0:	2b01      	cmp	r3, #1
    16e2:	f47f add0 	bne.w	1286 <MdmCnct_ConnectInProgressSubStateMachine+0xa6>
    16e6:	4b12      	ldr	r3, [pc, #72]	; (1730 <MdmCnct_ConnectInProgressSubStateMachine+0x550>)
    16e8:	4912      	ldr	r1, [pc, #72]	; (1734 <MdmCnct_ConnectInProgressSubStateMachine+0x554>)
    16ea:	6818      	ldr	r0, [r3, #0]
    16ec:	4b12      	ldr	r3, [pc, #72]	; (1738 <MdmCnct_ConnectInProgressSubStateMachine+0x558>)
    16ee:	f44f 627a 	mov.w	r2, #4000	; 0xfa0
    16f2:	4798      	blx	r3
    16f4:	2801      	cmp	r0, #1
    16f6:	f47f adc6 	bne.w	1286 <MdmCnct_ConnectInProgressSubStateMachine+0xa6>
    16fa:	7a23      	ldrb	r3, [r4, #8]
    16fc:	4d0f      	ldr	r5, [pc, #60]	; (173c <MdmCnct_ConnectInProgressSubStateMachine+0x55c>)
    16fe:	4e10      	ldr	r6, [pc, #64]	; (1740 <MdmCnct_ConnectInProgressSubStateMachine+0x560>)
    1700:	2b15      	cmp	r3, #21
    1702:	f040 80e1 	bne.w	18c8 <MdmCnct_ConnectInProgressSubStateMachine+0x6e8>
    1706:	481c      	ldr	r0, [pc, #112]	; (1778 <MdmCnct_ConnectInProgressSubStateMachine+0x598>)
    1708:	47a8      	blx	r5
    170a:	4b10      	ldr	r3, [pc, #64]	; (174c <MdmCnct_ConnectInProgressSubStateMachine+0x56c>)
    170c:	8961      	ldrh	r1, [r4, #10]
    170e:	68e0      	ldr	r0, [r4, #12]
    1710:	4798      	blx	r3
    1712:	480f      	ldr	r0, [pc, #60]	; (1750 <MdmCnct_ConnectInProgressSubStateMachine+0x570>)
    1714:	47a8      	blx	r5
    1716:	2307      	movs	r3, #7
    1718:	e771      	b.n	15fe <MdmCnct_ConnectInProgressSubStateMachine+0x41e>
    171a:	bf00      	nop
    171c:	20003578 	.word	0x20003578
    1720:	000049b9 	.word	0x000049b9
    1724:	00004805 	.word	0x00004805
    1728:	00004f09 	.word	0x00004f09
    172c:	00007786 	.word	0x00007786
    1730:	20003554 	.word	0x20003554
    1734:	200002f8 	.word	0x200002f8
    1738:	00004699 	.word	0x00004699
    173c:	000028a5 	.word	0x000028a5
    1740:	000040e1 	.word	0x000040e1
    1744:	00001175 	.word	0x00001175
    1748:	000077b5 	.word	0x000077b5
    174c:	00002861 	.word	0x00002861
    1750:	00008026 	.word	0x00008026
    1754:	0000661e 	.word	0x0000661e
    1758:	000011b5 	.word	0x000011b5
    175c:	000077d2 	.word	0x000077d2
    1760:	000077fc 	.word	0x000077fc
    1764:	00007813 	.word	0x00007813
    1768:	00007846 	.word	0x00007846
    176c:	00000fed 	.word	0x00000fed
    1770:	00006646 	.word	0x00006646
    1774:	0000785b 	.word	0x0000785b
    1778:	00007886 	.word	0x00007886
    177c:	000043dd 	.word	0x000043dd
    1780:	2000358c 	.word	0x2000358c
    1784:	78a3      	ldrb	r3, [r4, #2]
    1786:	bb23      	cbnz	r3, 17d2 <MdmCnct_ConnectInProgressSubStateMachine+0x5f2>
    1788:	4e7a      	ldr	r6, [pc, #488]	; (1974 <MdmCnct_ConnectInProgressSubStateMachine+0x794>)
    178a:	4b7b      	ldr	r3, [pc, #492]	; (1978 <MdmCnct_ConnectInProgressSubStateMachine+0x798>)
    178c:	6830      	ldr	r0, [r6, #0]
    178e:	4798      	blx	r3
    1790:	4605      	mov	r5, r0
    1792:	2800      	cmp	r0, #0
    1794:	f47f ad6d 	bne.w	1272 <MdmCnct_ConnectInProgressSubStateMachine+0x92>
    1798:	f8df 8258 	ldr.w	r8, [pc, #600]	; 19f4 <MdmCnct_ConnectInProgressSubStateMachine+0x814>
    179c:	4b77      	ldr	r3, [pc, #476]	; (197c <MdmCnct_ConnectInProgressSubStateMachine+0x79c>)
    179e:	4601      	mov	r1, r0
    17a0:	f8d8 0000 	ldr.w	r0, [r8]
    17a4:	4798      	blx	r3
    17a6:	2801      	cmp	r0, #1
    17a8:	f47f ad5f 	bne.w	126a <MdmCnct_ConnectInProgressSubStateMachine+0x8a>
    17ac:	f88d 0000 	strb.w	r0, [sp]
    17b0:	2316      	movs	r3, #22
    17b2:	f88d 3001 	strb.w	r3, [sp, #1]
    17b6:	6830      	ldr	r0, [r6, #0]
    17b8:	4f71      	ldr	r7, [pc, #452]	; (1980 <MdmCnct_ConnectInProgressSubStateMachine+0x7a0>)
    17ba:	9501      	str	r5, [sp, #4]
    17bc:	462b      	mov	r3, r5
    17be:	f44f 72fa 	mov.w	r2, #500	; 0x1f4
    17c2:	4669      	mov	r1, sp
    17c4:	47b8      	blx	r7
    17c6:	2801      	cmp	r0, #1
    17c8:	4606      	mov	r6, r0
    17ca:	f43f ad42 	beq.w	1252 <MdmCnct_ConnectInProgressSubStateMachine+0x72>
    17ce:	486d      	ldr	r0, [pc, #436]	; (1984 <MdmCnct_ConnectInProgressSubStateMachine+0x7a4>)
    17d0:	e548      	b.n	1264 <MdmCnct_ConnectInProgressSubStateMachine+0x84>
    17d2:	2b01      	cmp	r3, #1
    17d4:	f47f ad57 	bne.w	1286 <MdmCnct_ConnectInProgressSubStateMachine+0xa6>
    17d8:	4b6b      	ldr	r3, [pc, #428]	; (1988 <MdmCnct_ConnectInProgressSubStateMachine+0x7a8>)
    17da:	496c      	ldr	r1, [pc, #432]	; (198c <MdmCnct_ConnectInProgressSubStateMachine+0x7ac>)
    17dc:	6818      	ldr	r0, [r3, #0]
    17de:	4b6c      	ldr	r3, [pc, #432]	; (1990 <MdmCnct_ConnectInProgressSubStateMachine+0x7b0>)
    17e0:	f44f 627a 	mov.w	r2, #4000	; 0xfa0
    17e4:	4798      	blx	r3
    17e6:	2801      	cmp	r0, #1
    17e8:	f47f ad4d 	bne.w	1286 <MdmCnct_ConnectInProgressSubStateMachine+0xa6>
    17ec:	7a23      	ldrb	r3, [r4, #8]
    17ee:	4d69      	ldr	r5, [pc, #420]	; (1994 <MdmCnct_ConnectInProgressSubStateMachine+0x7b4>)
    17f0:	4e69      	ldr	r6, [pc, #420]	; (1998 <MdmCnct_ConnectInProgressSubStateMachine+0x7b8>)
    17f2:	2b16      	cmp	r3, #22
    17f4:	d168      	bne.n	18c8 <MdmCnct_ConnectInProgressSubStateMachine+0x6e8>
    17f6:	4869      	ldr	r0, [pc, #420]	; (199c <MdmCnct_ConnectInProgressSubStateMachine+0x7bc>)
    17f8:	47a8      	blx	r5
    17fa:	4b69      	ldr	r3, [pc, #420]	; (19a0 <MdmCnct_ConnectInProgressSubStateMachine+0x7c0>)
    17fc:	8961      	ldrh	r1, [r4, #10]
    17fe:	68e0      	ldr	r0, [r4, #12]
    1800:	4798      	blx	r3
    1802:	4868      	ldr	r0, [pc, #416]	; (19a4 <MdmCnct_ConnectInProgressSubStateMachine+0x7c4>)
    1804:	47a8      	blx	r5
    1806:	2308      	movs	r3, #8
    1808:	e6f9      	b.n	15fe <MdmCnct_ConnectInProgressSubStateMachine+0x41e>
    180a:	78a3      	ldrb	r3, [r4, #2]
    180c:	b9ab      	cbnz	r3, 183a <MdmCnct_ConnectInProgressSubStateMachine+0x65a>
    180e:	4e59      	ldr	r6, [pc, #356]	; (1974 <MdmCnct_ConnectInProgressSubStateMachine+0x794>)
    1810:	4b59      	ldr	r3, [pc, #356]	; (1978 <MdmCnct_ConnectInProgressSubStateMachine+0x798>)
    1812:	6830      	ldr	r0, [r6, #0]
    1814:	4798      	blx	r3
    1816:	4605      	mov	r5, r0
    1818:	2800      	cmp	r0, #0
    181a:	f47f ad2a 	bne.w	1272 <MdmCnct_ConnectInProgressSubStateMachine+0x92>
    181e:	f8df 81d4 	ldr.w	r8, [pc, #468]	; 19f4 <MdmCnct_ConnectInProgressSubStateMachine+0x814>
    1822:	4b56      	ldr	r3, [pc, #344]	; (197c <MdmCnct_ConnectInProgressSubStateMachine+0x79c>)
    1824:	4601      	mov	r1, r0
    1826:	f8d8 0000 	ldr.w	r0, [r8]
    182a:	4798      	blx	r3
    182c:	2801      	cmp	r0, #1
    182e:	f47f ad1c 	bne.w	126a <MdmCnct_ConnectInProgressSubStateMachine+0x8a>
    1832:	f88d 0000 	strb.w	r0, [sp]
    1836:	2309      	movs	r3, #9
    1838:	e7bb      	b.n	17b2 <MdmCnct_ConnectInProgressSubStateMachine+0x5d2>
    183a:	2b01      	cmp	r3, #1
    183c:	f47f ad23 	bne.w	1286 <MdmCnct_ConnectInProgressSubStateMachine+0xa6>
    1840:	4b51      	ldr	r3, [pc, #324]	; (1988 <MdmCnct_ConnectInProgressSubStateMachine+0x7a8>)
    1842:	4952      	ldr	r1, [pc, #328]	; (198c <MdmCnct_ConnectInProgressSubStateMachine+0x7ac>)
    1844:	6818      	ldr	r0, [r3, #0]
    1846:	4b52      	ldr	r3, [pc, #328]	; (1990 <MdmCnct_ConnectInProgressSubStateMachine+0x7b0>)
    1848:	f44f 627a 	mov.w	r2, #4000	; 0xfa0
    184c:	4798      	blx	r3
    184e:	2801      	cmp	r0, #1
    1850:	f47f ad19 	bne.w	1286 <MdmCnct_ConnectInProgressSubStateMachine+0xa6>
    1854:	7a23      	ldrb	r3, [r4, #8]
    1856:	4d4f      	ldr	r5, [pc, #316]	; (1994 <MdmCnct_ConnectInProgressSubStateMachine+0x7b4>)
    1858:	4e4f      	ldr	r6, [pc, #316]	; (1998 <MdmCnct_ConnectInProgressSubStateMachine+0x7b8>)
    185a:	2b09      	cmp	r3, #9
    185c:	d134      	bne.n	18c8 <MdmCnct_ConnectInProgressSubStateMachine+0x6e8>
    185e:	68e0      	ldr	r0, [r4, #12]
    1860:	8961      	ldrh	r1, [r4, #10]
    1862:	7ac3      	ldrb	r3, [r0, #11]
    1864:	7423      	strb	r3, [r4, #16]
    1866:	4b4e      	ldr	r3, [pc, #312]	; (19a0 <MdmCnct_ConnectInProgressSubStateMachine+0x7c0>)
    1868:	4798      	blx	r3
    186a:	484e      	ldr	r0, [pc, #312]	; (19a4 <MdmCnct_ConnectInProgressSubStateMachine+0x7c4>)
    186c:	47a8      	blx	r5
    186e:	68e3      	ldr	r3, [r4, #12]
    1870:	f893 3037 	ldrb.w	r3, [r3, #55]	; 0x37
    1874:	3b30      	subs	r3, #48	; 0x30
    1876:	2b06      	cmp	r3, #6
    1878:	d807      	bhi.n	188a <MdmCnct_ConnectInProgressSubStateMachine+0x6aa>
    187a:	e8df f003 	tbb	[pc, r3]
    187e:	1304      	.short	0x1304
    1880:	211f1d1b 	.word	0x211f1d1b
    1884:	23          	.byte	0x23
    1885:	00          	.byte	0x00
    1886:	4848      	ldr	r0, [pc, #288]	; (19a8 <MdmCnct_ConnectInProgressSubStateMachine+0x7c8>)
    1888:	47a8      	blx	r5
    188a:	4848      	ldr	r0, [pc, #288]	; (19ac <MdmCnct_ConnectInProgressSubStateMachine+0x7cc>)
    188c:	47a8      	blx	r5
    188e:	4848      	ldr	r0, [pc, #288]	; (19b0 <MdmCnct_ConnectInProgressSubStateMachine+0x7d0>)
    1890:	47a8      	blx	r5
    1892:	4844      	ldr	r0, [pc, #272]	; (19a4 <MdmCnct_ConnectInProgressSubStateMachine+0x7c4>)
    1894:	47a8      	blx	r5
    1896:	2300      	movs	r3, #0
    1898:	70a3      	strb	r3, [r4, #2]
    189a:	2307      	movs	r3, #7
    189c:	70e3      	strb	r3, [r4, #3]
    189e:	2302      	movs	r3, #2
    18a0:	7023      	strb	r3, [r4, #0]
    18a2:	e56b      	b.n	137c <MdmCnct_ConnectInProgressSubStateMachine+0x19c>
    18a4:	4843      	ldr	r0, [pc, #268]	; (19b4 <MdmCnct_ConnectInProgressSubStateMachine+0x7d4>)
    18a6:	47a8      	blx	r5
    18a8:	4843      	ldr	r0, [pc, #268]	; (19b8 <MdmCnct_ConnectInProgressSubStateMachine+0x7d8>)
    18aa:	47a8      	blx	r5
    18ac:	483d      	ldr	r0, [pc, #244]	; (19a4 <MdmCnct_ConnectInProgressSubStateMachine+0x7c4>)
    18ae:	47a8      	blx	r5
    18b0:	2309      	movs	r3, #9
    18b2:	e6a4      	b.n	15fe <MdmCnct_ConnectInProgressSubStateMachine+0x41e>
    18b4:	4841      	ldr	r0, [pc, #260]	; (19bc <MdmCnct_ConnectInProgressSubStateMachine+0x7dc>)
    18b6:	e7e7      	b.n	1888 <MdmCnct_ConnectInProgressSubStateMachine+0x6a8>
    18b8:	4841      	ldr	r0, [pc, #260]	; (19c0 <MdmCnct_ConnectInProgressSubStateMachine+0x7e0>)
    18ba:	e7e5      	b.n	1888 <MdmCnct_ConnectInProgressSubStateMachine+0x6a8>
    18bc:	4841      	ldr	r0, [pc, #260]	; (19c4 <MdmCnct_ConnectInProgressSubStateMachine+0x7e4>)
    18be:	e7e3      	b.n	1888 <MdmCnct_ConnectInProgressSubStateMachine+0x6a8>
    18c0:	4841      	ldr	r0, [pc, #260]	; (19c8 <MdmCnct_ConnectInProgressSubStateMachine+0x7e8>)
    18c2:	e7e1      	b.n	1888 <MdmCnct_ConnectInProgressSubStateMachine+0x6a8>
    18c4:	4841      	ldr	r0, [pc, #260]	; (19cc <MdmCnct_ConnectInProgressSubStateMachine+0x7ec>)
    18c6:	e7df      	b.n	1888 <MdmCnct_ConnectInProgressSubStateMachine+0x6a8>
    18c8:	4841      	ldr	r0, [pc, #260]	; (19d0 <MdmCnct_ConnectInProgressSubStateMachine+0x7f0>)
    18ca:	47a8      	blx	r5
    18cc:	e698      	b.n	1600 <MdmCnct_ConnectInProgressSubStateMachine+0x420>
    18ce:	78a3      	ldrb	r3, [r4, #2]
    18d0:	b9c3      	cbnz	r3, 1904 <MdmCnct_ConnectInProgressSubStateMachine+0x724>
    18d2:	4e28      	ldr	r6, [pc, #160]	; (1974 <MdmCnct_ConnectInProgressSubStateMachine+0x794>)
    18d4:	483f      	ldr	r0, [pc, #252]	; (19d4 <MdmCnct_ConnectInProgressSubStateMachine+0x7f4>)
    18d6:	4b40      	ldr	r3, [pc, #256]	; (19d8 <MdmCnct_ConnectInProgressSubStateMachine+0x7f8>)
    18d8:	4798      	blx	r3
    18da:	6830      	ldr	r0, [r6, #0]
    18dc:	4b26      	ldr	r3, [pc, #152]	; (1978 <MdmCnct_ConnectInProgressSubStateMachine+0x798>)
    18de:	4798      	blx	r3
    18e0:	4605      	mov	r5, r0
    18e2:	2800      	cmp	r0, #0
    18e4:	f47f acc5 	bne.w	1272 <MdmCnct_ConnectInProgressSubStateMachine+0x92>
    18e8:	f8df 8108 	ldr.w	r8, [pc, #264]	; 19f4 <MdmCnct_ConnectInProgressSubStateMachine+0x814>
    18ec:	4b23      	ldr	r3, [pc, #140]	; (197c <MdmCnct_ConnectInProgressSubStateMachine+0x79c>)
    18ee:	4601      	mov	r1, r0
    18f0:	f8d8 0000 	ldr.w	r0, [r8]
    18f4:	4798      	blx	r3
    18f6:	2801      	cmp	r0, #1
    18f8:	f47f acb7 	bne.w	126a <MdmCnct_ConnectInProgressSubStateMachine+0x8a>
    18fc:	f88d 0000 	strb.w	r0, [sp]
    1900:	2317      	movs	r3, #23
    1902:	e756      	b.n	17b2 <MdmCnct_ConnectInProgressSubStateMachine+0x5d2>
    1904:	2b01      	cmp	r3, #1
    1906:	f47f acbe 	bne.w	1286 <MdmCnct_ConnectInProgressSubStateMachine+0xa6>
    190a:	4b1f      	ldr	r3, [pc, #124]	; (1988 <MdmCnct_ConnectInProgressSubStateMachine+0x7a8>)
    190c:	491f      	ldr	r1, [pc, #124]	; (198c <MdmCnct_ConnectInProgressSubStateMachine+0x7ac>)
    190e:	6818      	ldr	r0, [r3, #0]
    1910:	4b1f      	ldr	r3, [pc, #124]	; (1990 <MdmCnct_ConnectInProgressSubStateMachine+0x7b0>)
    1912:	f44f 627a 	mov.w	r2, #4000	; 0xfa0
    1916:	4798      	blx	r3
    1918:	2801      	cmp	r0, #1
    191a:	f47f acb4 	bne.w	1286 <MdmCnct_ConnectInProgressSubStateMachine+0xa6>
    191e:	7a23      	ldrb	r3, [r4, #8]
    1920:	4e1c      	ldr	r6, [pc, #112]	; (1994 <MdmCnct_ConnectInProgressSubStateMachine+0x7b4>)
    1922:	4f1d      	ldr	r7, [pc, #116]	; (1998 <MdmCnct_ConnectInProgressSubStateMachine+0x7b8>)
    1924:	2b17      	cmp	r3, #23
    1926:	d11f      	bne.n	1968 <MdmCnct_ConnectInProgressSubStateMachine+0x788>
    1928:	8961      	ldrh	r1, [r4, #10]
    192a:	4b1d      	ldr	r3, [pc, #116]	; (19a0 <MdmCnct_ConnectInProgressSubStateMachine+0x7c0>)
    192c:	68e0      	ldr	r0, [r4, #12]
    192e:	4798      	blx	r3
    1930:	481c      	ldr	r0, [pc, #112]	; (19a4 <MdmCnct_ConnectInProgressSubStateMachine+0x7c4>)
    1932:	47b0      	blx	r6
    1934:	2207      	movs	r2, #7
    1936:	4929      	ldr	r1, [pc, #164]	; (19dc <MdmCnct_ConnectInProgressSubStateMachine+0x7fc>)
    1938:	68e0      	ldr	r0, [r4, #12]
    193a:	4b29      	ldr	r3, [pc, #164]	; (19e0 <MdmCnct_ConnectInProgressSubStateMachine+0x800>)
    193c:	4798      	blx	r3
    193e:	4605      	mov	r5, r0
    1940:	b9a0      	cbnz	r0, 196c <MdmCnct_ConnectInProgressSubStateMachine+0x78c>
    1942:	2110      	movs	r1, #16
    1944:	4b27      	ldr	r3, [pc, #156]	; (19e4 <MdmCnct_ConnectInProgressSubStateMachine+0x804>)
    1946:	4828      	ldr	r0, [pc, #160]	; (19e8 <MdmCnct_ConnectInProgressSubStateMachine+0x808>)
    1948:	4798      	blx	r3
    194a:	4b28      	ldr	r3, [pc, #160]	; (19ec <MdmCnct_ConnectInProgressSubStateMachine+0x80c>)
    194c:	4798      	blx	r3
    194e:	2302      	movs	r3, #2
    1950:	4814      	ldr	r0, [pc, #80]	; (19a4 <MdmCnct_ConnectInProgressSubStateMachine+0x7c4>)
    1952:	7023      	strb	r3, [r4, #0]
    1954:	7065      	strb	r5, [r4, #1]
    1956:	70a5      	strb	r5, [r4, #2]
    1958:	70e5      	strb	r5, [r4, #3]
    195a:	47b0      	blx	r6
    195c:	2064      	movs	r0, #100	; 0x64
    195e:	4b24      	ldr	r3, [pc, #144]	; (19f0 <MdmCnct_ConnectInProgressSubStateMachine+0x810>)
    1960:	4798      	blx	r3
    1962:	68e0      	ldr	r0, [r4, #12]
    1964:	47b8      	blx	r7
    1966:	e48e      	b.n	1286 <MdmCnct_ConnectInProgressSubStateMachine+0xa6>
    1968:	4819      	ldr	r0, [pc, #100]	; (19d0 <MdmCnct_ConnectInProgressSubStateMachine+0x7f0>)
    196a:	47b0      	blx	r6
    196c:	2300      	movs	r3, #0
    196e:	70a3      	strb	r3, [r4, #2]
    1970:	e7f7      	b.n	1962 <MdmCnct_ConnectInProgressSubStateMachine+0x782>
    1972:	bf00      	nop
    1974:	20003578 	.word	0x20003578
    1978:	000049b9 	.word	0x000049b9
    197c:	00004805 	.word	0x00004805
    1980:	000043dd 	.word	0x000043dd
    1984:	0000789e 	.word	0x0000789e
    1988:	20003554 	.word	0x20003554
    198c:	200002f8 	.word	0x200002f8
    1990:	00004699 	.word	0x00004699
    1994:	000028a5 	.word	0x000028a5
    1998:	000040e1 	.word	0x000040e1
    199c:	000078cd 	.word	0x000078cd
    19a0:	00002861 	.word	0x00002861
    19a4:	00008026 	.word	0x00008026
    19a8:	000078ea 	.word	0x000078ea
    19ac:	00007a41 	.word	0x00007a41
    19b0:	00007a5c 	.word	0x00007a5c
    19b4:	0000791a 	.word	0x0000791a
    19b8:	00007938 	.word	0x00007938
    19bc:	00007968 	.word	0x00007968
    19c0:	0000798e 	.word	0x0000798e
    19c4:	000079b4 	.word	0x000079b4
    19c8:	000079df 	.word	0x000079df
    19cc:	00007a18 	.word	0x00007a18
    19d0:	00006646 	.word	0x00006646
    19d4:	20000300 	.word	0x20000300
    19d8:	00000f69 	.word	0x00000f69
    19dc:	00007986 	.word	0x00007986
    19e0:	00005957 	.word	0x00005957
    19e4:	00001fe1 	.word	0x00001fe1
    19e8:	00007474 	.word	0x00007474
    19ec:	00002051 	.word	0x00002051
    19f0:	00004f09 	.word	0x00004f09
    19f4:	2000358c 	.word	0x2000358c

000019f8 <MdmConnect_HttpConnectionSchedule>:
    19f8:	e92d 43f7 	stmdb	sp!, {r0, r1, r2, r4, r5, r6, r7, r8, r9, lr}
    19fc:	4d99      	ldr	r5, [pc, #612]	; (1c64 <MdmConnect_HttpConnectionSchedule+0x26c>)
    19fe:	782b      	ldrb	r3, [r5, #0]
    1a00:	2b01      	cmp	r3, #1
    1a02:	462c      	mov	r4, r5
    1a04:	d012      	beq.n	1a2c <MdmConnect_HttpConnectionSchedule+0x34>
    1a06:	d304      	bcc.n	1a12 <MdmConnect_HttpConnectionSchedule+0x1a>
    1a08:	2b02      	cmp	r3, #2
    1a0a:	d012      	beq.n	1a32 <MdmConnect_HttpConnectionSchedule+0x3a>
    1a0c:	b003      	add	sp, #12
    1a0e:	e8bd 83f0 	ldmia.w	sp!, {r4, r5, r6, r7, r8, r9, pc}
    1a12:	4b95      	ldr	r3, [pc, #596]	; (1c68 <MdmConnect_HttpConnectionSchedule+0x270>)
    1a14:	4798      	blx	r3
    1a16:	2800      	cmp	r0, #0
    1a18:	d0f8      	beq.n	1a0c <MdmConnect_HttpConnectionSchedule+0x14>
    1a1a:	2301      	movs	r3, #1
    1a1c:	702b      	strb	r3, [r5, #0]
    1a1e:	4893      	ldr	r0, [pc, #588]	; (1c6c <MdmConnect_HttpConnectionSchedule+0x274>)
    1a20:	2300      	movs	r3, #0
    1a22:	706b      	strb	r3, [r5, #1]
    1a24:	70ab      	strb	r3, [r5, #2]
    1a26:	4b92      	ldr	r3, [pc, #584]	; (1c70 <MdmConnect_HttpConnectionSchedule+0x278>)
    1a28:	4798      	blx	r3
    1a2a:	e7ef      	b.n	1a0c <MdmConnect_HttpConnectionSchedule+0x14>
    1a2c:	4b91      	ldr	r3, [pc, #580]	; (1c74 <MdmConnect_HttpConnectionSchedule+0x27c>)
    1a2e:	4798      	blx	r3
    1a30:	e7ec      	b.n	1a0c <MdmConnect_HttpConnectionSchedule+0x14>
    1a32:	78eb      	ldrb	r3, [r5, #3]
    1a34:	2b08      	cmp	r3, #8
    1a36:	d8e9      	bhi.n	1a0c <MdmConnect_HttpConnectionSchedule+0x14>
    1a38:	e8df f003 	tbb	[pc, r3]
    1a3c:	19100a05 	.word	0x19100a05
    1a40:	7e521f1b 	.word	0x7e521f1b
    1a44:	8b          	.byte	0x8b
    1a45:	00          	.byte	0x00
    1a46:	4b8c      	ldr	r3, [pc, #560]	; (1c78 <MdmConnect_HttpConnectionSchedule+0x280>)
    1a48:	4798      	blx	r3
    1a4a:	2301      	movs	r3, #1
    1a4c:	70e3      	strb	r3, [r4, #3]
    1a4e:	e7dd      	b.n	1a0c <MdmConnect_HttpConnectionSchedule+0x14>
    1a50:	4b8a      	ldr	r3, [pc, #552]	; (1c7c <MdmConnect_HttpConnectionSchedule+0x284>)
    1a52:	4798      	blx	r3
    1a54:	2800      	cmp	r0, #0
    1a56:	d0d9      	beq.n	1a0c <MdmConnect_HttpConnectionSchedule+0x14>
    1a58:	2302      	movs	r3, #2
    1a5a:	e7f7      	b.n	1a4c <MdmConnect_HttpConnectionSchedule+0x54>
    1a5c:	4888      	ldr	r0, [pc, #544]	; (1c80 <MdmConnect_HttpConnectionSchedule+0x288>)
    1a5e:	4d89      	ldr	r5, [pc, #548]	; (1c84 <MdmConnect_HttpConnectionSchedule+0x28c>)
    1a60:	6800      	ldr	r0, [r0, #0]
    1a62:	2300      	movs	r3, #0
    1a64:	461a      	mov	r2, r3
    1a66:	4619      	mov	r1, r3
    1a68:	47a8      	blx	r5
    1a6a:	2303      	movs	r3, #3
    1a6c:	e7ee      	b.n	1a4c <MdmConnect_HttpConnectionSchedule+0x54>
    1a6e:	2304      	movs	r3, #4
    1a70:	e7ec      	b.n	1a4c <MdmConnect_HttpConnectionSchedule+0x54>
    1a72:	4b85      	ldr	r3, [pc, #532]	; (1c88 <MdmConnect_HttpConnectionSchedule+0x290>)
    1a74:	4798      	blx	r3
    1a76:	2305      	movs	r3, #5
    1a78:	e7e8      	b.n	1a4c <MdmConnect_HttpConnectionSchedule+0x54>
    1a7a:	4e84      	ldr	r6, [pc, #528]	; (1c8c <MdmConnect_HttpConnectionSchedule+0x294>)
    1a7c:	4b84      	ldr	r3, [pc, #528]	; (1c90 <MdmConnect_HttpConnectionSchedule+0x298>)
    1a7e:	6830      	ldr	r0, [r6, #0]
    1a80:	4798      	blx	r3
    1a82:	4605      	mov	r5, r0
    1a84:	2800      	cmp	r0, #0
    1a86:	f040 80bc 	bne.w	1c02 <MdmConnect_HttpConnectionSchedule+0x20a>
    1a8a:	f8df 8250 	ldr.w	r8, [pc, #592]	; 1cdc <MdmConnect_HttpConnectionSchedule+0x2e4>
    1a8e:	4b81      	ldr	r3, [pc, #516]	; (1c94 <MdmConnect_HttpConnectionSchedule+0x29c>)
    1a90:	4601      	mov	r1, r0
    1a92:	f8d8 0000 	ldr.w	r0, [r8]
    1a96:	4798      	blx	r3
    1a98:	2801      	cmp	r0, #1
    1a9a:	d11f      	bne.n	1adc <MdmConnect_HttpConnectionSchedule+0xe4>
    1a9c:	2318      	movs	r3, #24
    1a9e:	f88d 0000 	strb.w	r0, [sp]
    1aa2:	f88d 3001 	strb.w	r3, [sp, #1]
    1aa6:	6830      	ldr	r0, [r6, #0]
    1aa8:	4f76      	ldr	r7, [pc, #472]	; (1c84 <MdmConnect_HttpConnectionSchedule+0x28c>)
    1aaa:	9501      	str	r5, [sp, #4]
    1aac:	462b      	mov	r3, r5
    1aae:	f44f 72fa 	mov.w	r2, #500	; 0x1f4
    1ab2:	4669      	mov	r1, sp
    1ab4:	47b8      	blx	r7
    1ab6:	2801      	cmp	r0, #1
    1ab8:	4e77      	ldr	r6, [pc, #476]	; (1c98 <MdmConnect_HttpConnectionSchedule+0x2a0>)
    1aba:	d10b      	bne.n	1ad4 <MdmConnect_HttpConnectionSchedule+0xdc>
    1abc:	462b      	mov	r3, r5
    1abe:	462a      	mov	r2, r5
    1ac0:	4629      	mov	r1, r5
    1ac2:	f8d8 0000 	ldr.w	r0, [r8]
    1ac6:	47b8      	blx	r7
    1ac8:	2306      	movs	r3, #6
    1aca:	70e3      	strb	r3, [r4, #3]
    1acc:	f640 10c4 	movw	r0, #2500	; 0x9c4
    1ad0:	47b0      	blx	r6
    1ad2:	e79b      	b.n	1a0c <MdmConnect_HttpConnectionSchedule+0x14>
    1ad4:	4871      	ldr	r0, [pc, #452]	; (1c9c <MdmConnect_HttpConnectionSchedule+0x2a4>)
    1ad6:	4b66      	ldr	r3, [pc, #408]	; (1c70 <MdmConnect_HttpConnectionSchedule+0x278>)
    1ad8:	4798      	blx	r3
    1ada:	e7f7      	b.n	1acc <MdmConnect_HttpConnectionSchedule+0xd4>
    1adc:	4870      	ldr	r0, [pc, #448]	; (1ca0 <MdmConnect_HttpConnectionSchedule+0x2a8>)
    1ade:	e7a2      	b.n	1a26 <MdmConnect_HttpConnectionSchedule+0x2e>
    1ae0:	4b70      	ldr	r3, [pc, #448]	; (1ca4 <MdmConnect_HttpConnectionSchedule+0x2ac>)
    1ae2:	4971      	ldr	r1, [pc, #452]	; (1ca8 <MdmConnect_HttpConnectionSchedule+0x2b0>)
    1ae4:	6818      	ldr	r0, [r3, #0]
    1ae6:	4b71      	ldr	r3, [pc, #452]	; (1cac <MdmConnect_HttpConnectionSchedule+0x2b4>)
    1ae8:	4d6b      	ldr	r5, [pc, #428]	; (1c98 <MdmConnect_HttpConnectionSchedule+0x2a0>)
    1aea:	f241 3288 	movw	r2, #5000	; 0x1388
    1aee:	4798      	blx	r3
    1af0:	2801      	cmp	r0, #1
    1af2:	4606      	mov	r6, r0
    1af4:	d11d      	bne.n	1b32 <MdmConnect_HttpConnectionSchedule+0x13a>
    1af6:	7a22      	ldrb	r2, [r4, #8]
    1af8:	f8df 91d8 	ldr.w	r9, [pc, #472]	; 1cd4 <MdmConnect_HttpConnectionSchedule+0x2dc>
    1afc:	2a18      	cmp	r2, #24
    1afe:	d114      	bne.n	1b2a <MdmConnect_HttpConnectionSchedule+0x132>
    1b00:	f8b4 800a 	ldrh.w	r8, [r4, #10]
    1b04:	f1b8 0f17 	cmp.w	r8, #23
    1b08:	d907      	bls.n	1b1a <MdmConnect_HttpConnectionSchedule+0x122>
    1b0a:	68e7      	ldr	r7, [r4, #12]
    1b0c:	4968      	ldr	r1, [pc, #416]	; (1cb0 <MdmConnect_HttpConnectionSchedule+0x2b8>)
    1b0e:	4b69      	ldr	r3, [pc, #420]	; (1cb4 <MdmConnect_HttpConnectionSchedule+0x2bc>)
    1b10:	4638      	mov	r0, r7
    1b12:	4798      	blx	r3
    1b14:	2800      	cmp	r0, #0
    1b16:	f000 8199 	beq.w	1e4c <MdmConnect_HttpConnectionSchedule+0x454>
    1b1a:	2307      	movs	r3, #7
    1b1c:	70e3      	strb	r3, [r4, #3]
    1b1e:	68e0      	ldr	r0, [r4, #12]
    1b20:	47c8      	blx	r9
    1b22:	f44f 707a 	mov.w	r0, #1000	; 0x3e8
    1b26:	47a8      	blx	r5
    1b28:	e770      	b.n	1a0c <MdmConnect_HttpConnectionSchedule+0x14>
    1b2a:	4863      	ldr	r0, [pc, #396]	; (1cb8 <MdmConnect_HttpConnectionSchedule+0x2c0>)
    1b2c:	4b50      	ldr	r3, [pc, #320]	; (1c70 <MdmConnect_HttpConnectionSchedule+0x278>)
    1b2e:	4798      	blx	r3
    1b30:	e7f3      	b.n	1b1a <MdmConnect_HttpConnectionSchedule+0x122>
    1b32:	2307      	movs	r3, #7
    1b34:	70e3      	strb	r3, [r4, #3]
    1b36:	e7f4      	b.n	1b22 <MdmConnect_HttpConnectionSchedule+0x12a>
    1b38:	2308      	movs	r3, #8
    1b3a:	70eb      	strb	r3, [r5, #3]
    1b3c:	2205      	movs	r2, #5
    1b3e:	2300      	movs	r3, #0
    1b40:	485e      	ldr	r0, [pc, #376]	; (1cbc <MdmConnect_HttpConnectionSchedule+0x2c4>)
    1b42:	4c4b      	ldr	r4, [pc, #300]	; (1c70 <MdmConnect_HttpConnectionSchedule+0x278>)
    1b44:	712b      	strb	r3, [r5, #4]
    1b46:	716a      	strb	r2, [r5, #5]
    1b48:	70ab      	strb	r3, [r5, #2]
    1b4a:	47a0      	blx	r4
    1b4c:	485c      	ldr	r0, [pc, #368]	; (1cc0 <MdmConnect_HttpConnectionSchedule+0x2c8>)
    1b4e:	47a0      	blx	r4
    1b50:	e75c      	b.n	1a0c <MdmConnect_HttpConnectionSchedule+0x14>
    1b52:	792b      	ldrb	r3, [r5, #4]
    1b54:	2b01      	cmp	r3, #1
    1b56:	f000 80d9 	beq.w	1d0c <MdmConnect_HttpConnectionSchedule+0x314>
    1b5a:	d31a      	bcc.n	1b92 <MdmConnect_HttpConnectionSchedule+0x19a>
    1b5c:	2b02      	cmp	r3, #2
    1b5e:	f47f af55 	bne.w	1a0c <MdmConnect_HttpConnectionSchedule+0x14>
    1b62:	78ab      	ldrb	r3, [r5, #2]
    1b64:	2b00      	cmp	r3, #0
    1b66:	f040 811e 	bne.w	1da6 <MdmConnect_HttpConnectionSchedule+0x3ae>
    1b6a:	4e48      	ldr	r6, [pc, #288]	; (1c8c <MdmConnect_HttpConnectionSchedule+0x294>)
    1b6c:	4b48      	ldr	r3, [pc, #288]	; (1c90 <MdmConnect_HttpConnectionSchedule+0x298>)
    1b6e:	6830      	ldr	r0, [r6, #0]
    1b70:	4798      	blx	r3
    1b72:	4605      	mov	r5, r0
    1b74:	2800      	cmp	r0, #0
    1b76:	d144      	bne.n	1c02 <MdmConnect_HttpConnectionSchedule+0x20a>
    1b78:	f8df 8160 	ldr.w	r8, [pc, #352]	; 1cdc <MdmConnect_HttpConnectionSchedule+0x2e4>
    1b7c:	4b45      	ldr	r3, [pc, #276]	; (1c94 <MdmConnect_HttpConnectionSchedule+0x29c>)
    1b7e:	4601      	mov	r1, r0
    1b80:	f8d8 0000 	ldr.w	r0, [r8]
    1b84:	4798      	blx	r3
    1b86:	2801      	cmp	r0, #1
    1b88:	d1a8      	bne.n	1adc <MdmConnect_HttpConnectionSchedule+0xe4>
    1b8a:	f88d 0000 	strb.w	r0, [sp]
    1b8e:	231b      	movs	r3, #27
    1b90:	e0d3      	b.n	1d3a <MdmConnect_HttpConnectionSchedule+0x342>
    1b92:	78ab      	ldrb	r3, [r5, #2]
    1b94:	2b00      	cmp	r3, #0
    1b96:	d13d      	bne.n	1c14 <MdmConnect_HttpConnectionSchedule+0x21c>
    1b98:	796b      	ldrb	r3, [r5, #5]
    1b9a:	2b00      	cmp	r3, #0
    1b9c:	d033      	beq.n	1c06 <MdmConnect_HttpConnectionSchedule+0x20e>
    1b9e:	4e3b      	ldr	r6, [pc, #236]	; (1c8c <MdmConnect_HttpConnectionSchedule+0x294>)
    1ba0:	4b3b      	ldr	r3, [pc, #236]	; (1c90 <MdmConnect_HttpConnectionSchedule+0x298>)
    1ba2:	6830      	ldr	r0, [r6, #0]
    1ba4:	4798      	blx	r3
    1ba6:	4605      	mov	r5, r0
    1ba8:	bb58      	cbnz	r0, 1c02 <MdmConnect_HttpConnectionSchedule+0x20a>
    1baa:	f8df 8130 	ldr.w	r8, [pc, #304]	; 1cdc <MdmConnect_HttpConnectionSchedule+0x2e4>
    1bae:	4b39      	ldr	r3, [pc, #228]	; (1c94 <MdmConnect_HttpConnectionSchedule+0x29c>)
    1bb0:	4601      	mov	r1, r0
    1bb2:	f8d8 0000 	ldr.w	r0, [r8]
    1bb6:	4798      	blx	r3
    1bb8:	2801      	cmp	r0, #1
    1bba:	d18f      	bne.n	1adc <MdmConnect_HttpConnectionSchedule+0xe4>
    1bbc:	f88d 0000 	strb.w	r0, [sp]
    1bc0:	4b40      	ldr	r3, [pc, #256]	; (1cc4 <MdmConnect_HttpConnectionSchedule+0x2cc>)
    1bc2:	7960      	ldrb	r0, [r4, #5]
    1bc4:	4798      	blx	r3
    1bc6:	f88d 0001 	strb.w	r0, [sp, #1]
    1bca:	6830      	ldr	r0, [r6, #0]
    1bcc:	4f2d      	ldr	r7, [pc, #180]	; (1c84 <MdmConnect_HttpConnectionSchedule+0x28c>)
    1bce:	9501      	str	r5, [sp, #4]
    1bd0:	462b      	mov	r3, r5
    1bd2:	f44f 72fa 	mov.w	r2, #500	; 0x1f4
    1bd6:	4669      	mov	r1, sp
    1bd8:	47b8      	blx	r7
    1bda:	2801      	cmp	r0, #1
    1bdc:	4606      	mov	r6, r0
    1bde:	d109      	bne.n	1bf4 <MdmConnect_HttpConnectionSchedule+0x1fc>
    1be0:	462b      	mov	r3, r5
    1be2:	462a      	mov	r2, r5
    1be4:	4629      	mov	r1, r5
    1be6:	f8d8 0000 	ldr.w	r0, [r8]
    1bea:	47b8      	blx	r7
    1bec:	2308      	movs	r3, #8
    1bee:	70a6      	strb	r6, [r4, #2]
    1bf0:	70e3      	strb	r3, [r4, #3]
    1bf2:	e002      	b.n	1bfa <MdmConnect_HttpConnectionSchedule+0x202>
    1bf4:	4834      	ldr	r0, [pc, #208]	; (1cc8 <MdmConnect_HttpConnectionSchedule+0x2d0>)
    1bf6:	4b1e      	ldr	r3, [pc, #120]	; (1c70 <MdmConnect_HttpConnectionSchedule+0x278>)
    1bf8:	4798      	blx	r3
    1bfa:	f44f 70fa 	mov.w	r0, #500	; 0x1f4
    1bfe:	4b26      	ldr	r3, [pc, #152]	; (1c98 <MdmConnect_HttpConnectionSchedule+0x2a0>)
    1c00:	e712      	b.n	1a28 <MdmConnect_HttpConnectionSchedule+0x30>
    1c02:	4832      	ldr	r0, [pc, #200]	; (1ccc <MdmConnect_HttpConnectionSchedule+0x2d4>)
    1c04:	e70f      	b.n	1a26 <MdmConnect_HttpConnectionSchedule+0x2e>
    1c06:	4b1a      	ldr	r3, [pc, #104]	; (1c70 <MdmConnect_HttpConnectionSchedule+0x278>)
    1c08:	4831      	ldr	r0, [pc, #196]	; (1cd0 <MdmConnect_HttpConnectionSchedule+0x2d8>)
    1c0a:	4798      	blx	r3
    1c0c:	2301      	movs	r3, #1
    1c0e:	712b      	strb	r3, [r5, #4]
    1c10:	2308      	movs	r3, #8
    1c12:	e71b      	b.n	1a4c <MdmConnect_HttpConnectionSchedule+0x54>
    1c14:	2b01      	cmp	r3, #1
    1c16:	f47f aef9 	bne.w	1a0c <MdmConnect_HttpConnectionSchedule+0x14>
    1c1a:	4b22      	ldr	r3, [pc, #136]	; (1ca4 <MdmConnect_HttpConnectionSchedule+0x2ac>)
    1c1c:	4922      	ldr	r1, [pc, #136]	; (1ca8 <MdmConnect_HttpConnectionSchedule+0x2b0>)
    1c1e:	6818      	ldr	r0, [r3, #0]
    1c20:	4b22      	ldr	r3, [pc, #136]	; (1cac <MdmConnect_HttpConnectionSchedule+0x2b4>)
    1c22:	f44f 627a 	mov.w	r2, #4000	; 0xfa0
    1c26:	4798      	blx	r3
    1c28:	2801      	cmp	r0, #1
    1c2a:	4606      	mov	r6, r0
    1c2c:	d158      	bne.n	1ce0 <MdmConnect_HttpConnectionSchedule+0x2e8>
    1c2e:	7961      	ldrb	r1, [r4, #5]
    1c30:	4b24      	ldr	r3, [pc, #144]	; (1cc4 <MdmConnect_HttpConnectionSchedule+0x2cc>)
    1c32:	7a2d      	ldrb	r5, [r5, #8]
    1c34:	4608      	mov	r0, r1
    1c36:	4798      	blx	r3
    1c38:	4285      	cmp	r5, r0
    1c3a:	4d26      	ldr	r5, [pc, #152]	; (1cd4 <MdmConnect_HttpConnectionSchedule+0x2dc>)
    1c3c:	d10d      	bne.n	1c5a <MdmConnect_HttpConnectionSchedule+0x262>
    1c3e:	b121      	cbz	r1, 1c4a <MdmConnect_HttpConnectionSchedule+0x252>
    1c40:	3901      	subs	r1, #1
    1c42:	7161      	strb	r1, [r4, #5]
    1c44:	2300      	movs	r3, #0
    1c46:	70a3      	strb	r3, [r4, #2]
    1c48:	e005      	b.n	1c56 <MdmConnect_HttpConnectionSchedule+0x25e>
    1c4a:	2308      	movs	r3, #8
    1c4c:	70e3      	strb	r3, [r4, #3]
    1c4e:	4822      	ldr	r0, [pc, #136]	; (1cd8 <MdmConnect_HttpConnectionSchedule+0x2e0>)
    1c50:	4b07      	ldr	r3, [pc, #28]	; (1c70 <MdmConnect_HttpConnectionSchedule+0x278>)
    1c52:	7126      	strb	r6, [r4, #4]
    1c54:	4798      	blx	r3
    1c56:	68e0      	ldr	r0, [r4, #12]
    1c58:	e765      	b.n	1b26 <MdmConnect_HttpConnectionSchedule+0x12e>
    1c5a:	4817      	ldr	r0, [pc, #92]	; (1cb8 <MdmConnect_HttpConnectionSchedule+0x2c0>)
    1c5c:	4b04      	ldr	r3, [pc, #16]	; (1c70 <MdmConnect_HttpConnectionSchedule+0x278>)
    1c5e:	4798      	blx	r3
    1c60:	e7f0      	b.n	1c44 <MdmConnect_HttpConnectionSchedule+0x24c>
    1c62:	bf00      	nop
    1c64:	200002f0 	.word	0x200002f0
    1c68:	000022b1 	.word	0x000022b1
    1c6c:	00007a88 	.word	0x00007a88
    1c70:	000028a5 	.word	0x000028a5
    1c74:	000011e1 	.word	0x000011e1
    1c78:	00002051 	.word	0x00002051
    1c7c:	00002585 	.word	0x00002585
    1c80:	20003588 	.word	0x20003588
    1c84:	000043dd 	.word	0x000043dd
    1c88:	00000fbd 	.word	0x00000fbd
    1c8c:	20003578 	.word	0x20003578
    1c90:	000049b9 	.word	0x000049b9
    1c94:	00004805 	.word	0x00004805
    1c98:	00004f09 	.word	0x00004f09
    1c9c:	0000789e 	.word	0x0000789e
    1ca0:	000065a2 	.word	0x000065a2
    1ca4:	20003554 	.word	0x20003554
    1ca8:	200002f8 	.word	0x200002f8
    1cac:	00004699 	.word	0x00004699
    1cb0:	00007aa3 	.word	0x00007aa3
    1cb4:	00005957 	.word	0x00005957
    1cb8:	00006646 	.word	0x00006646
    1cbc:	00007abc 	.word	0x00007abc
    1cc0:	00007afb 	.word	0x00007afb
    1cc4:	00001135 	.word	0x00001135
    1cc8:	00007676 	.word	0x00007676
    1ccc:	000065cb 	.word	0x000065cb
    1cd0:	000076aa 	.word	0x000076aa
    1cd4:	000040e1 	.word	0x000040e1
    1cd8:	000076ce 	.word	0x000076ce
    1cdc:	2000358c 	.word	0x2000358c
    1ce0:	7c6b      	ldrb	r3, [r5, #17]
    1ce2:	2b03      	cmp	r3, #3
    1ce4:	d808      	bhi.n	1cf8 <MdmConnect_HttpConnectionSchedule+0x300>
    1ce6:	485f      	ldr	r0, [pc, #380]	; (1e64 <MdmConnect_HttpConnectionSchedule+0x46c>)
    1ce8:	4d5f      	ldr	r5, [pc, #380]	; (1e68 <MdmConnect_HttpConnectionSchedule+0x470>)
    1cea:	47a8      	blx	r5
    1cec:	485f      	ldr	r0, [pc, #380]	; (1e6c <MdmConnect_HttpConnectionSchedule+0x474>)
    1cee:	47a8      	blx	r5
    1cf0:	7c63      	ldrb	r3, [r4, #17]
    1cf2:	3301      	adds	r3, #1
    1cf4:	7463      	strb	r3, [r4, #17]
    1cf6:	e098      	b.n	1e2a <MdmConnect_HttpConnectionSchedule+0x432>
    1cf8:	485d      	ldr	r0, [pc, #372]	; (1e70 <MdmConnect_HttpConnectionSchedule+0x478>)
    1cfa:	4d5b      	ldr	r5, [pc, #364]	; (1e68 <MdmConnect_HttpConnectionSchedule+0x470>)
    1cfc:	47a8      	blx	r5
    1cfe:	485d      	ldr	r0, [pc, #372]	; (1e74 <MdmConnect_HttpConnectionSchedule+0x47c>)
    1d00:	47a8      	blx	r5
    1d02:	2300      	movs	r3, #0
    1d04:	7463      	strb	r3, [r4, #17]
    1d06:	4b5c      	ldr	r3, [pc, #368]	; (1e78 <MdmConnect_HttpConnectionSchedule+0x480>)
    1d08:	4798      	blx	r3
    1d0a:	e67f      	b.n	1a0c <MdmConnect_HttpConnectionSchedule+0x14>
    1d0c:	78ab      	ldrb	r3, [r5, #2]
    1d0e:	b9bb      	cbnz	r3, 1d40 <MdmConnect_HttpConnectionSchedule+0x348>
    1d10:	4e5a      	ldr	r6, [pc, #360]	; (1e7c <MdmConnect_HttpConnectionSchedule+0x484>)
    1d12:	4b5b      	ldr	r3, [pc, #364]	; (1e80 <MdmConnect_HttpConnectionSchedule+0x488>)
    1d14:	6830      	ldr	r0, [r6, #0]
    1d16:	4798      	blx	r3
    1d18:	4605      	mov	r5, r0
    1d1a:	2800      	cmp	r0, #0
    1d1c:	f47f af71 	bne.w	1c02 <MdmConnect_HttpConnectionSchedule+0x20a>
    1d20:	f8df 81ac 	ldr.w	r8, [pc, #428]	; 1ed0 <MdmConnect_HttpConnectionSchedule+0x4d8>
    1d24:	4b57      	ldr	r3, [pc, #348]	; (1e84 <MdmConnect_HttpConnectionSchedule+0x48c>)
    1d26:	4601      	mov	r1, r0
    1d28:	f8d8 0000 	ldr.w	r0, [r8]
    1d2c:	4798      	blx	r3
    1d2e:	2801      	cmp	r0, #1
    1d30:	f47f aed4 	bne.w	1adc <MdmConnect_HttpConnectionSchedule+0xe4>
    1d34:	f88d 0000 	strb.w	r0, [sp]
    1d38:	231a      	movs	r3, #26
    1d3a:	f88d 3001 	strb.w	r3, [sp, #1]
    1d3e:	e744      	b.n	1bca <MdmConnect_HttpConnectionSchedule+0x1d2>
    1d40:	2b01      	cmp	r3, #1
    1d42:	f47f ae63 	bne.w	1a0c <MdmConnect_HttpConnectionSchedule+0x14>
    1d46:	4b50      	ldr	r3, [pc, #320]	; (1e88 <MdmConnect_HttpConnectionSchedule+0x490>)
    1d48:	4950      	ldr	r1, [pc, #320]	; (1e8c <MdmConnect_HttpConnectionSchedule+0x494>)
    1d4a:	6818      	ldr	r0, [r3, #0]
    1d4c:	4b50      	ldr	r3, [pc, #320]	; (1e90 <MdmConnect_HttpConnectionSchedule+0x498>)
    1d4e:	4d46      	ldr	r5, [pc, #280]	; (1e68 <MdmConnect_HttpConnectionSchedule+0x470>)
    1d50:	f44f 627a 	mov.w	r2, #4000	; 0xfa0
    1d54:	4798      	blx	r3
    1d56:	2801      	cmp	r0, #1
    1d58:	d172      	bne.n	1e40 <MdmConnect_HttpConnectionSchedule+0x448>
    1d5a:	7a23      	ldrb	r3, [r4, #8]
    1d5c:	4e4d      	ldr	r6, [pc, #308]	; (1e94 <MdmConnect_HttpConnectionSchedule+0x49c>)
    1d5e:	2b1a      	cmp	r3, #26
    1d60:	d11c      	bne.n	1d9c <MdmConnect_HttpConnectionSchedule+0x3a4>
    1d62:	68e0      	ldr	r0, [r4, #12]
    1d64:	4b4c      	ldr	r3, [pc, #304]	; (1e98 <MdmConnect_HttpConnectionSchedule+0x4a0>)
    1d66:	4798      	blx	r3
    1d68:	4607      	mov	r7, r0
    1d6a:	b178      	cbz	r0, 1d8c <MdmConnect_HttpConnectionSchedule+0x394>
    1d6c:	484b      	ldr	r0, [pc, #300]	; (1e9c <MdmConnect_HttpConnectionSchedule+0x4a4>)
    1d6e:	47a8      	blx	r5
    1d70:	4b4b      	ldr	r3, [pc, #300]	; (1ea0 <MdmConnect_HttpConnectionSchedule+0x4a8>)
    1d72:	8961      	ldrh	r1, [r4, #10]
    1d74:	68e0      	ldr	r0, [r4, #12]
    1d76:	4798      	blx	r3
    1d78:	484a      	ldr	r0, [pc, #296]	; (1ea4 <MdmConnect_HttpConnectionSchedule+0x4ac>)
    1d7a:	47a8      	blx	r5
    1d7c:	2302      	movs	r3, #2
    1d7e:	7123      	strb	r3, [r4, #4]
    1d80:	2300      	movs	r3, #0
    1d82:	70a3      	strb	r3, [r4, #2]
    1d84:	2308      	movs	r3, #8
    1d86:	70e3      	strb	r3, [r4, #3]
    1d88:	68e0      	ldr	r0, [r4, #12]
    1d8a:	e6a1      	b.n	1ad0 <MdmConnect_HttpConnectionSchedule+0xd8>
    1d8c:	4846      	ldr	r0, [pc, #280]	; (1ea8 <MdmConnect_HttpConnectionSchedule+0x4b0>)
    1d8e:	47a8      	blx	r5
    1d90:	4844      	ldr	r0, [pc, #272]	; (1ea4 <MdmConnect_HttpConnectionSchedule+0x4ac>)
    1d92:	47a8      	blx	r5
    1d94:	4b45      	ldr	r3, [pc, #276]	; (1eac <MdmConnect_HttpConnectionSchedule+0x4b4>)
    1d96:	70a7      	strb	r7, [r4, #2]
    1d98:	4798      	blx	r3
    1d9a:	e7f5      	b.n	1d88 <MdmConnect_HttpConnectionSchedule+0x390>
    1d9c:	4844      	ldr	r0, [pc, #272]	; (1eb0 <MdmConnect_HttpConnectionSchedule+0x4b8>)
    1d9e:	47a8      	blx	r5
    1da0:	2300      	movs	r3, #0
    1da2:	70a3      	strb	r3, [r4, #2]
    1da4:	e7f0      	b.n	1d88 <MdmConnect_HttpConnectionSchedule+0x390>
    1da6:	2b01      	cmp	r3, #1
    1da8:	f47f ae30 	bne.w	1a0c <MdmConnect_HttpConnectionSchedule+0x14>
    1dac:	4b36      	ldr	r3, [pc, #216]	; (1e88 <MdmConnect_HttpConnectionSchedule+0x490>)
    1dae:	4937      	ldr	r1, [pc, #220]	; (1e8c <MdmConnect_HttpConnectionSchedule+0x494>)
    1db0:	6818      	ldr	r0, [r3, #0]
    1db2:	4b37      	ldr	r3, [pc, #220]	; (1e90 <MdmConnect_HttpConnectionSchedule+0x498>)
    1db4:	4d2c      	ldr	r5, [pc, #176]	; (1e68 <MdmConnect_HttpConnectionSchedule+0x470>)
    1db6:	f44f 627a 	mov.w	r2, #4000	; 0xfa0
    1dba:	4798      	blx	r3
    1dbc:	2801      	cmp	r0, #1
    1dbe:	d13f      	bne.n	1e40 <MdmConnect_HttpConnectionSchedule+0x448>
    1dc0:	7a23      	ldrb	r3, [r4, #8]
    1dc2:	4f34      	ldr	r7, [pc, #208]	; (1e94 <MdmConnect_HttpConnectionSchedule+0x49c>)
    1dc4:	2b1b      	cmp	r3, #27
    1dc6:	d132      	bne.n	1e2e <MdmConnect_HttpConnectionSchedule+0x436>
    1dc8:	68e0      	ldr	r0, [r4, #12]
    1dca:	4b33      	ldr	r3, [pc, #204]	; (1e98 <MdmConnect_HttpConnectionSchedule+0x4a0>)
    1dcc:	4798      	blx	r3
    1dce:	4606      	mov	r6, r0
    1dd0:	b320      	cbz	r0, 1e1c <MdmConnect_HttpConnectionSchedule+0x424>
    1dd2:	4838      	ldr	r0, [pc, #224]	; (1eb4 <MdmConnect_HttpConnectionSchedule+0x4bc>)
    1dd4:	47a8      	blx	r5
    1dd6:	8961      	ldrh	r1, [r4, #10]
    1dd8:	4b31      	ldr	r3, [pc, #196]	; (1ea0 <MdmConnect_HttpConnectionSchedule+0x4a8>)
    1dda:	68e0      	ldr	r0, [r4, #12]
    1ddc:	4798      	blx	r3
    1dde:	4831      	ldr	r0, [pc, #196]	; (1ea4 <MdmConnect_HttpConnectionSchedule+0x4ac>)
    1de0:	47a8      	blx	r5
    1de2:	2600      	movs	r6, #0
    1de4:	2305      	movs	r3, #5
    1de6:	4834      	ldr	r0, [pc, #208]	; (1eb8 <MdmConnect_HttpConnectionSchedule+0x4c0>)
    1de8:	7163      	strb	r3, [r4, #5]
    1dea:	7126      	strb	r6, [r4, #4]
    1dec:	70a6      	strb	r6, [r4, #2]
    1dee:	70e6      	strb	r6, [r4, #3]
    1df0:	7026      	strb	r6, [r4, #0]
    1df2:	7066      	strb	r6, [r4, #1]
    1df4:	47a8      	blx	r5
    1df6:	4831      	ldr	r0, [pc, #196]	; (1ebc <MdmConnect_HttpConnectionSchedule+0x4c4>)
    1df8:	47a8      	blx	r5
    1dfa:	4831      	ldr	r0, [pc, #196]	; (1ec0 <MdmConnect_HttpConnectionSchedule+0x4c8>)
    1dfc:	47a8      	blx	r5
    1dfe:	7ca3      	ldrb	r3, [r4, #18]
    1e00:	68e0      	ldr	r0, [r4, #12]
    1e02:	3301      	adds	r3, #1
    1e04:	74a3      	strb	r3, [r4, #18]
    1e06:	47b8      	blx	r7
    1e08:	7ca3      	ldrb	r3, [r4, #18]
    1e0a:	2b02      	cmp	r3, #2
    1e0c:	f67f adfe 	bls.w	1a0c <MdmConnect_HttpConnectionSchedule+0x14>
    1e10:	482c      	ldr	r0, [pc, #176]	; (1ec4 <MdmConnect_HttpConnectionSchedule+0x4cc>)
    1e12:	47a8      	blx	r5
    1e14:	482c      	ldr	r0, [pc, #176]	; (1ec8 <MdmConnect_HttpConnectionSchedule+0x4d0>)
    1e16:	47a8      	blx	r5
    1e18:	74a6      	strb	r6, [r4, #18]
    1e1a:	e774      	b.n	1d06 <MdmConnect_HttpConnectionSchedule+0x30e>
    1e1c:	4822      	ldr	r0, [pc, #136]	; (1ea8 <MdmConnect_HttpConnectionSchedule+0x4b0>)
    1e1e:	47a8      	blx	r5
    1e20:	4820      	ldr	r0, [pc, #128]	; (1ea4 <MdmConnect_HttpConnectionSchedule+0x4ac>)
    1e22:	47a8      	blx	r5
    1e24:	68e0      	ldr	r0, [r4, #12]
    1e26:	70a6      	strb	r6, [r4, #2]
    1e28:	47b8      	blx	r7
    1e2a:	4b20      	ldr	r3, [pc, #128]	; (1eac <MdmConnect_HttpConnectionSchedule+0x4b4>)
    1e2c:	e5ff      	b.n	1a2e <MdmConnect_HttpConnectionSchedule+0x36>
    1e2e:	4820      	ldr	r0, [pc, #128]	; (1eb0 <MdmConnect_HttpConnectionSchedule+0x4b8>)
    1e30:	47a8      	blx	r5
    1e32:	2300      	movs	r3, #0
    1e34:	70a3      	strb	r3, [r4, #2]
    1e36:	68e0      	ldr	r0, [r4, #12]
    1e38:	2308      	movs	r3, #8
    1e3a:	70e3      	strb	r3, [r4, #3]
    1e3c:	47b8      	blx	r7
    1e3e:	e5e5      	b.n	1a0c <MdmConnect_HttpConnectionSchedule+0x14>
    1e40:	7c63      	ldrb	r3, [r4, #17]
    1e42:	2b03      	cmp	r3, #3
    1e44:	f63f af58 	bhi.w	1cf8 <MdmConnect_HttpConnectionSchedule+0x300>
    1e48:	4806      	ldr	r0, [pc, #24]	; (1e64 <MdmConnect_HttpConnectionSchedule+0x46c>)
    1e4a:	e74e      	b.n	1cea <MdmConnect_HttpConnectionSchedule+0x2f2>
    1e4c:	4641      	mov	r1, r8
    1e4e:	4638      	mov	r0, r7
    1e50:	4b13      	ldr	r3, [pc, #76]	; (1ea0 <MdmConnect_HttpConnectionSchedule+0x4a8>)
    1e52:	4798      	blx	r3
    1e54:	4813      	ldr	r0, [pc, #76]	; (1ea4 <MdmConnect_HttpConnectionSchedule+0x4ac>)
    1e56:	4b04      	ldr	r3, [pc, #16]	; (1e68 <MdmConnect_HttpConnectionSchedule+0x470>)
    1e58:	4798      	blx	r3
    1e5a:	4b1c      	ldr	r3, [pc, #112]	; (1ecc <MdmConnect_HttpConnectionSchedule+0x4d4>)
    1e5c:	4798      	blx	r3
    1e5e:	70e6      	strb	r6, [r4, #3]
    1e60:	e65d      	b.n	1b1e <MdmConnect_HttpConnectionSchedule+0x126>
    1e62:	bf00      	nop
    1e64:	00007b19 	.word	0x00007b19
    1e68:	000028a5 	.word	0x000028a5
    1e6c:	00007b33 	.word	0x00007b33
    1e70:	00007b77 	.word	0x00007b77
    1e74:	00007ba9 	.word	0x00007ba9
    1e78:	00002a85 	.word	0x00002a85
    1e7c:	20003578 	.word	0x20003578
    1e80:	000049b9 	.word	0x000049b9
    1e84:	00004805 	.word	0x00004805
    1e88:	20003554 	.word	0x20003554
    1e8c:	200002f8 	.word	0x200002f8
    1e90:	00004699 	.word	0x00004699
    1e94:	000040e1 	.word	0x000040e1
    1e98:	00001175 	.word	0x00001175
    1e9c:	000076ec 	.word	0x000076ec
    1ea0:	00002861 	.word	0x00002861
    1ea4:	00008026 	.word	0x00008026
    1ea8:	0000661e 	.word	0x0000661e
    1eac:	000011b5 	.word	0x000011b5
    1eb0:	00006646 	.word	0x00006646
    1eb4:	0000773c 	.word	0x0000773c
    1eb8:	00007bf4 	.word	0x00007bf4
    1ebc:	00007c0f 	.word	0x00007c0f
    1ec0:	00007c43 	.word	0x00007c43
    1ec4:	00007c6d 	.word	0x00007c6d
    1ec8:	00007c9d 	.word	0x00007c9d
    1ecc:	00002579 	.word	0x00002579
    1ed0:	2000358c 	.word	0x2000358c

00001ed4 <mdmCtrlr_DataCommInit>:
    1ed4:	b508      	push	{r3, lr}
    1ed6:	490c      	ldr	r1, [pc, #48]	; (1f08 <mdmCtrlr_DataCommInit+0x34>)
    1ed8:	480c      	ldr	r0, [pc, #48]	; (1f0c <mdmCtrlr_DataCommInit+0x38>)
    1eda:	4b0d      	ldr	r3, [pc, #52]	; (1f10 <mdmCtrlr_DataCommInit+0x3c>)
    1edc:	4798      	blx	r3
    1ede:	b988      	cbnz	r0, 1f04 <mdmCtrlr_DataCommInit+0x30>
    1ee0:	f44f 6200 	mov.w	r2, #2048	; 0x800
    1ee4:	490b      	ldr	r1, [pc, #44]	; (1f14 <mdmCtrlr_DataCommInit+0x40>)
    1ee6:	480c      	ldr	r0, [pc, #48]	; (1f18 <mdmCtrlr_DataCommInit+0x44>)
    1ee8:	4b0c      	ldr	r3, [pc, #48]	; (1f1c <mdmCtrlr_DataCommInit+0x48>)
    1eea:	4798      	blx	r3
    1eec:	b950      	cbnz	r0, 1f04 <mdmCtrlr_DataCommInit+0x30>
    1eee:	2201      	movs	r2, #1
    1ef0:	4611      	mov	r1, r2
    1ef2:	4806      	ldr	r0, [pc, #24]	; (1f0c <mdmCtrlr_DataCommInit+0x38>)
    1ef4:	4b0a      	ldr	r3, [pc, #40]	; (1f20 <mdmCtrlr_DataCommInit+0x4c>)
    1ef6:	4798      	blx	r3
    1ef8:	4b0a      	ldr	r3, [pc, #40]	; (1f24 <mdmCtrlr_DataCommInit+0x50>)
    1efa:	4804      	ldr	r0, [pc, #16]	; (1f0c <mdmCtrlr_DataCommInit+0x38>)
    1efc:	4798      	blx	r3
    1efe:	4b0a      	ldr	r3, [pc, #40]	; (1f28 <mdmCtrlr_DataCommInit+0x54>)
    1f00:	f893 333c 	ldrb.w	r3, [r3, #828]	; 0x33c
    1f04:	bd08      	pop	{r3, pc}
    1f06:	bf00      	nop
    1f08:	41014000 	.word	0x41014000
    1f0c:	20000048 	.word	0x20000048
    1f10:	00003705 	.word	0x00003705
    1f14:	20003596 	.word	0x20003596
    1f18:	20003d98 	.word	0x20003d98
    1f1c:	00002efd 	.word	0x00002efd
    1f20:	0000379b 	.word	0x0000379b
    1f24:	0000375d 	.word	0x0000375d
    1f28:	e000e100 	.word	0xe000e100

00001f2c <SERCOM3_0_Handler>:
    1f2c:	4b01      	ldr	r3, [pc, #4]	; (1f34 <SERCOM3_0_Handler+0x8>)
    1f2e:	2201      	movs	r2, #1
    1f30:	761a      	strb	r2, [r3, #24]
    1f32:	4770      	bx	lr
    1f34:	41014000 	.word	0x41014000

00001f38 <SERCOM3_1_Handler>:
    1f38:	4b01      	ldr	r3, [pc, #4]	; (1f40 <SERCOM3_1_Handler+0x8>)
    1f3a:	2202      	movs	r2, #2
    1f3c:	761a      	strb	r2, [r3, #24]
    1f3e:	4770      	bx	lr
    1f40:	41014000 	.word	0x41014000

00001f44 <SERCOM3_2_Handler>:
    1f44:	b530      	push	{r4, r5, lr}
    1f46:	4d1a      	ldr	r5, [pc, #104]	; (1fb0 <SERCOM3_2_Handler+0x6c>)
    1f48:	4c1a      	ldr	r4, [pc, #104]	; (1fb4 <SERCOM3_2_Handler+0x70>)
    1f4a:	b089      	sub	sp, #36	; 0x24
    1f4c:	4628      	mov	r0, r5
    1f4e:	47a0      	blx	r4
    1f50:	2800      	cmp	r0, #0
    1f52:	d0fb      	beq.n	1f4c <SERCOM3_2_Handler+0x8>
    1f54:	4b18      	ldr	r3, [pc, #96]	; (1fb8 <SERCOM3_2_Handler+0x74>)
    1f56:	4816      	ldr	r0, [pc, #88]	; (1fb0 <SERCOM3_2_Handler+0x6c>)
    1f58:	4798      	blx	r3
    1f5a:	4b18      	ldr	r3, [pc, #96]	; (1fbc <SERCOM3_2_Handler+0x78>)
    1f5c:	4601      	mov	r1, r0
    1f5e:	4818      	ldr	r0, [pc, #96]	; (1fc0 <SERCOM3_2_Handler+0x7c>)
    1f60:	4798      	blx	r3
    1f62:	4b18      	ldr	r3, [pc, #96]	; (1fc4 <SERCOM3_2_Handler+0x80>)
    1f64:	4798      	blx	r3
    1f66:	b2c4      	uxtb	r4, r0
    1f68:	b304      	cbz	r4, 1fac <SERCOM3_2_Handler+0x68>
    1f6a:	a903      	add	r1, sp, #12
    1f6c:	4620      	mov	r0, r4
    1f6e:	4b16      	ldr	r3, [pc, #88]	; (1fc8 <SERCOM3_2_Handler+0x84>)
    1f70:	4798      	blx	r3
    1f72:	4b16      	ldr	r3, [pc, #88]	; (1fcc <SERCOM3_2_Handler+0x88>)
    1f74:	4812      	ldr	r0, [pc, #72]	; (1fc0 <SERCOM3_2_Handler+0x7c>)
    1f76:	4798      	blx	r3
    1f78:	f8bd 301c 	ldrh.w	r3, [sp, #28]
    1f7c:	4298      	cmp	r0, r3
    1f7e:	d315      	bcc.n	1fac <SERCOM3_2_Handler+0x68>
    1f80:	ab02      	add	r3, sp, #8
    1f82:	4813      	ldr	r0, [pc, #76]	; (1fd0 <SERCOM3_2_Handler+0x8c>)
    1f84:	9300      	str	r3, [sp, #0]
    1f86:	4621      	mov	r1, r4
    1f88:	2300      	movs	r3, #0
    1f8a:	2203      	movs	r2, #3
    1f8c:	6800      	ldr	r0, [r0, #0]
    1f8e:	4c11      	ldr	r4, [pc, #68]	; (1fd4 <SERCOM3_2_Handler+0x90>)
    1f90:	47a0      	blx	r4
    1f92:	9b02      	ldr	r3, [sp, #8]
    1f94:	b13b      	cbz	r3, 1fa6 <SERCOM3_2_Handler+0x62>
    1f96:	4b10      	ldr	r3, [pc, #64]	; (1fd8 <SERCOM3_2_Handler+0x94>)
    1f98:	f04f 5280 	mov.w	r2, #268435456	; 0x10000000
    1f9c:	601a      	str	r2, [r3, #0]
    1f9e:	f3bf 8f4f 	dsb	sy
    1fa2:	f3bf 8f6f 	isb	sy
    1fa6:	2000      	movs	r0, #0
    1fa8:	4b0c      	ldr	r3, [pc, #48]	; (1fdc <SERCOM3_2_Handler+0x98>)
    1faa:	4798      	blx	r3
    1fac:	b009      	add	sp, #36	; 0x24
    1fae:	bd30      	pop	{r4, r5, pc}
    1fb0:	20000048 	.word	0x20000048
    1fb4:	00003791 	.word	0x00003791
    1fb8:	0000377f 	.word	0x0000377f
    1fbc:	00002f37 	.word	0x00002f37
    1fc0:	20003d98 	.word	0x20003d98
    1fc4:	00001129 	.word	0x00001129
    1fc8:	00000f4d 	.word	0x00000f4d
    1fcc:	00002f5d 	.word	0x00002f5d
    1fd0:	20003570 	.word	0x20003570
    1fd4:	00005405 	.word	0x00005405
    1fd8:	e000ed04 	.word	0xe000ed04
    1fdc:	0000111d 	.word	0x0000111d

00001fe0 <mdmCtrlr_SendDataToModem>:
    1fe0:	b570      	push	{r4, r5, r6, lr}
    1fe2:	4c06      	ldr	r4, [pc, #24]	; (1ffc <mdmCtrlr_SendDataToModem+0x1c>)
    1fe4:	4b06      	ldr	r3, [pc, #24]	; (2000 <mdmCtrlr_SendDataToModem+0x20>)
    1fe6:	460e      	mov	r6, r1
    1fe8:	4605      	mov	r5, r0
    1fea:	4620      	mov	r0, r4
    1fec:	4798      	blx	r3
    1fee:	4632      	mov	r2, r6
    1ff0:	4629      	mov	r1, r5
    1ff2:	4620      	mov	r0, r4
    1ff4:	4b03      	ldr	r3, [pc, #12]	; (2004 <mdmCtrlr_SendDataToModem+0x24>)
    1ff6:	e8bd 4070 	ldmia.w	sp!, {r4, r5, r6, lr}
    1ffa:	4718      	bx	r3
    1ffc:	20000048 	.word	0x20000048
    2000:	0000375d 	.word	0x0000375d
    2004:	000027d9 	.word	0x000027d9

00002008 <mdmCtrlr_ReadResponseFromModem>:
    2008:	b5f7      	push	{r0, r1, r2, r4, r5, r6, r7, lr}
    200a:	4b0c      	ldr	r3, [pc, #48]	; (203c <mdmCtrlr_ReadResponseFromModem+0x34>)
    200c:	4604      	mov	r4, r0
    200e:	480c      	ldr	r0, [pc, #48]	; (2040 <mdmCtrlr_ReadResponseFromModem+0x38>)
    2010:	460d      	mov	r5, r1
    2012:	4798      	blx	r3
    2014:	42a8      	cmp	r0, r5
    2016:	d30a      	bcc.n	202e <mdmCtrlr_ReadResponseFromModem+0x26>
    2018:	a801      	add	r0, sp, #4
    201a:	4b0a      	ldr	r3, [pc, #40]	; (2044 <mdmCtrlr_ReadResponseFromModem+0x3c>)
    201c:	4e08      	ldr	r6, [pc, #32]	; (2040 <mdmCtrlr_ReadResponseFromModem+0x38>)
    201e:	4f0a      	ldr	r7, [pc, #40]	; (2048 <mdmCtrlr_ReadResponseFromModem+0x40>)
    2020:	4798      	blx	r3
    2022:	4425      	add	r5, r4
    2024:	42ac      	cmp	r4, r5
    2026:	d104      	bne.n	2032 <mdmCtrlr_ReadResponseFromModem+0x2a>
    2028:	a801      	add	r0, sp, #4
    202a:	4b08      	ldr	r3, [pc, #32]	; (204c <mdmCtrlr_ReadResponseFromModem+0x44>)
    202c:	4798      	blx	r3
    202e:	b003      	add	sp, #12
    2030:	bdf0      	pop	{r4, r5, r6, r7, pc}
    2032:	4621      	mov	r1, r4
    2034:	4630      	mov	r0, r6
    2036:	47b8      	blx	r7
    2038:	3401      	adds	r4, #1
    203a:	e7f3      	b.n	2024 <mdmCtrlr_ReadResponseFromModem+0x1c>
    203c:	00002f5d 	.word	0x00002f5d
    2040:	20003d98 	.word	0x20003d98
    2044:	00002ead 	.word	0x00002ead
    2048:	00002f15 	.word	0x00002f15
    204c:	00002ebb 	.word	0x00002ebb

00002050 <mdmCtrlr_FlushRxBuffer>:
    2050:	4801      	ldr	r0, [pc, #4]	; (2058 <mdmCtrlr_FlushRxBuffer+0x8>)
    2052:	4b02      	ldr	r3, [pc, #8]	; (205c <mdmCtrlr_FlushRxBuffer+0xc>)
    2054:	4718      	bx	r3
    2056:	bf00      	nop
    2058:	20003d98 	.word	0x20003d98
    205c:	00002f65 	.word	0x00002f65

00002060 <mdmCtrlr_GetUnsolicitedResponseLength>:
    2060:	4801      	ldr	r0, [pc, #4]	; (2068 <mdmCtrlr_GetUnsolicitedResponseLength+0x8>)
    2062:	4b02      	ldr	r3, [pc, #8]	; (206c <mdmCtrlr_GetUnsolicitedResponseLength+0xc>)
    2064:	4718      	bx	r3
    2066:	bf00      	nop
    2068:	20003d98 	.word	0x20003d98
    206c:	00002f5d 	.word	0x00002f5d

00002070 <ModemDiagTask>:
    2070:	e92d 4ff7 	stmdb	sp!, {r0, r1, r2, r4, r5, r6, r7, r8, r9, sl, fp, lr}
    2074:	4e4f      	ldr	r6, [pc, #316]	; (21b4 <ModemDiagTask+0x144>)
    2076:	4d50      	ldr	r5, [pc, #320]	; (21b8 <ModemDiagTask+0x148>)
    2078:	4f50      	ldr	r7, [pc, #320]	; (21bc <ModemDiagTask+0x14c>)
    207a:	f8df a168 	ldr.w	sl, [pc, #360]	; 21e4 <ModemDiagTask+0x174>
    207e:	f8df 8168 	ldr.w	r8, [pc, #360]	; 21e8 <ModemDiagTask+0x178>
    2082:	4633      	mov	r3, r6
    2084:	2400      	movs	r4, #0
    2086:	f803 4b01 	strb.w	r4, [r3], #1
    208a:	f8a6 4001 	strh.w	r4, [r6, #1]
    208e:	2210      	movs	r2, #16
    2090:	709c      	strb	r4, [r3, #2]
    2092:	4621      	mov	r1, r4
    2094:	1d30      	adds	r0, r6, #4
    2096:	702c      	strb	r4, [r5, #0]
    2098:	47b8      	blx	r7
    209a:	220f      	movs	r2, #15
    209c:	4621      	mov	r1, r4
    209e:	f106 0014 	add.w	r0, r6, #20
    20a2:	47b8      	blx	r7
    20a4:	f8c6 4023 	str.w	r4, [r6, #35]	; 0x23
    20a8:	4c45      	ldr	r4, [pc, #276]	; (21c0 <ModemDiagTask+0x150>)
    20aa:	47d0      	blx	sl
    20ac:	2804      	cmp	r0, #4
    20ae:	d1fc      	bne.n	20aa <ModemDiagTask+0x3a>
    20b0:	47a0      	blx	r4
    20b2:	2800      	cmp	r0, #0
    20b4:	d0f9      	beq.n	20aa <ModemDiagTask+0x3a>
    20b6:	f8d8 0000 	ldr.w	r0, [r8]
    20ba:	4b42      	ldr	r3, [pc, #264]	; (21c4 <ModemDiagTask+0x154>)
    20bc:	4e42      	ldr	r6, [pc, #264]	; (21c8 <ModemDiagTask+0x158>)
    20be:	4798      	blx	r3
    20c0:	4601      	mov	r1, r0
    20c2:	2800      	cmp	r0, #0
    20c4:	d131      	bne.n	212a <ModemDiagTask+0xba>
    20c6:	4f41      	ldr	r7, [pc, #260]	; (21cc <ModemDiagTask+0x15c>)
    20c8:	4b41      	ldr	r3, [pc, #260]	; (21d0 <ModemDiagTask+0x160>)
    20ca:	6838      	ldr	r0, [r7, #0]
    20cc:	4798      	blx	r3
    20ce:	2801      	cmp	r0, #1
    20d0:	d12b      	bne.n	212a <ModemDiagTask+0xba>
    20d2:	782b      	ldrb	r3, [r5, #0]
    20d4:	4c3f      	ldr	r4, [pc, #252]	; (21d4 <ModemDiagTask+0x164>)
    20d6:	2b03      	cmp	r3, #3
    20d8:	d865      	bhi.n	21a6 <ModemDiagTask+0x136>
    20da:	e8df f003 	tbb	[pc, r3]
    20de:	2c02      	.short	0x2c02
    20e0:	473f      	.short	0x473f
    20e2:	2304      	movs	r3, #4
    20e4:	f88d 3000 	strb.w	r3, [sp]
    20e8:	f04f 0900 	mov.w	r9, #0
    20ec:	2301      	movs	r3, #1
    20ee:	f88d 3001 	strb.w	r3, [sp, #1]
    20f2:	2264      	movs	r2, #100	; 0x64
    20f4:	464b      	mov	r3, r9
    20f6:	4669      	mov	r1, sp
    20f8:	f8d8 0000 	ldr.w	r0, [r8]
    20fc:	f8cd 9004 	str.w	r9, [sp, #4]
    2100:	47a0      	blx	r4
    2102:	4683      	mov	fp, r0
    2104:	2801      	cmp	r0, #1
    2106:	d10a      	bne.n	211e <ModemDiagTask+0xae>
    2108:	464b      	mov	r3, r9
    210a:	464a      	mov	r2, r9
    210c:	4649      	mov	r1, r9
    210e:	6838      	ldr	r0, [r7, #0]
    2110:	47a0      	blx	r4
    2112:	f240 50dc 	movw	r0, #1500	; 0x5dc
    2116:	47b0      	blx	r6
    2118:	f885 b000 	strb.w	fp, [r5]
    211c:	e005      	b.n	212a <ModemDiagTask+0xba>
    211e:	482e      	ldr	r0, [pc, #184]	; (21d8 <ModemDiagTask+0x168>)
    2120:	4b2e      	ldr	r3, [pc, #184]	; (21dc <ModemDiagTask+0x16c>)
    2122:	4798      	blx	r3
    2124:	f240 50dc 	movw	r0, #1500	; 0x5dc
    2128:	47b0      	blx	r6
    212a:	4b2d      	ldr	r3, [pc, #180]	; (21e0 <ModemDiagTask+0x170>)
    212c:	4798      	blx	r3
    212e:	f44f 7016 	mov.w	r0, #600	; 0x258
    2132:	47b0      	blx	r6
    2134:	e7b8      	b.n	20a8 <ModemDiagTask+0x38>
    2136:	2304      	movs	r3, #4
    2138:	f04f 0b02 	mov.w	fp, #2
    213c:	f88d 3000 	strb.w	r3, [sp]
    2140:	f88d b001 	strb.w	fp, [sp, #1]
    2144:	f04f 0900 	mov.w	r9, #0
    2148:	464b      	mov	r3, r9
    214a:	2264      	movs	r2, #100	; 0x64
    214c:	4669      	mov	r1, sp
    214e:	f8d8 0000 	ldr.w	r0, [r8]
    2152:	f8cd 9004 	str.w	r9, [sp, #4]
    2156:	47a0      	blx	r4
    2158:	2801      	cmp	r0, #1
    215a:	e7d4      	b.n	2106 <ModemDiagTask+0x96>
    215c:	f04f 0b04 	mov.w	fp, #4
    2160:	2307      	movs	r3, #7
    2162:	f88d b000 	strb.w	fp, [sp]
    2166:	f88d 3001 	strb.w	r3, [sp, #1]
    216a:	e7eb      	b.n	2144 <ModemDiagTask+0xd4>
    216c:	2304      	movs	r3, #4
    216e:	f88d 3000 	strb.w	r3, [sp]
    2172:	f04f 0900 	mov.w	r9, #0
    2176:	2303      	movs	r3, #3
    2178:	f88d 3001 	strb.w	r3, [sp, #1]
    217c:	2264      	movs	r2, #100	; 0x64
    217e:	464b      	mov	r3, r9
    2180:	4669      	mov	r1, sp
    2182:	f8d8 0000 	ldr.w	r0, [r8]
    2186:	f8cd 9004 	str.w	r9, [sp, #4]
    218a:	47a0      	blx	r4
    218c:	2801      	cmp	r0, #1
    218e:	d1c6      	bne.n	211e <ModemDiagTask+0xae>
    2190:	464b      	mov	r3, r9
    2192:	464a      	mov	r2, r9
    2194:	4649      	mov	r1, r9
    2196:	6838      	ldr	r0, [r7, #0]
    2198:	47a0      	blx	r4
    219a:	f240 50dc 	movw	r0, #1500	; 0x5dc
    219e:	47b0      	blx	r6
    21a0:	2364      	movs	r3, #100	; 0x64
    21a2:	702b      	strb	r3, [r5, #0]
    21a4:	e7c1      	b.n	212a <ModemDiagTask+0xba>
    21a6:	2300      	movs	r3, #0
    21a8:	461a      	mov	r2, r3
    21aa:	4619      	mov	r1, r3
    21ac:	6838      	ldr	r0, [r7, #0]
    21ae:	47a0      	blx	r4
    21b0:	e7bb      	b.n	212a <ModemDiagTask+0xba>
    21b2:	bf00      	nop
    21b4:	20000303 	.word	0x20000303
    21b8:	20003da8 	.word	0x20003da8
    21bc:	000059bf 	.word	0x000059bf
    21c0:	00000ddd 	.word	0x00000ddd
    21c4:	000049b9 	.word	0x000049b9
    21c8:	00004f09 	.word	0x00004f09
    21cc:	2000358c 	.word	0x2000358c
    21d0:	00004805 	.word	0x00004805
    21d4:	000043dd 	.word	0x000043dd
    21d8:	00007cf6 	.word	0x00007cf6
    21dc:	000028a5 	.word	0x000028a5
    21e0:	00002a65 	.word	0x00002a65
    21e4:	000022e5 	.word	0x000022e5
    21e8:	20003578 	.word	0x20003578

000021ec <ModemDiagUpdateDataBase>:
    21ec:	780b      	ldrb	r3, [r1, #0]
    21ee:	3b01      	subs	r3, #1
    21f0:	b570      	push	{r4, r5, r6, lr}
    21f2:	2b06      	cmp	r3, #6
    21f4:	d81b      	bhi.n	222e <ModemDiagUpdateDataBase+0x42>
    21f6:	e8df f003 	tbb	[pc, r3]
    21fa:	321d      	.short	0x321d
    21fc:	1a1a1a19 	.word	0x1a1a1a19
    2200:	04          	.byte	0x04
    2201:	00          	.byte	0x00
    2202:	4c21      	ldr	r4, [pc, #132]	; (2288 <ModemDiagUpdateDataBase+0x9c>)
    2204:	2500      	movs	r5, #0
    2206:	884a      	ldrh	r2, [r1, #2]
    2208:	b2eb      	uxtb	r3, r5
    220a:	3a07      	subs	r2, #7
    220c:	4293      	cmp	r3, r2
    220e:	f105 0501 	add.w	r5, r5, #1
    2212:	dd33      	ble.n	227c <ModemDiagUpdateDataBase+0x90>
    2214:	2501      	movs	r5, #1
    2216:	481d      	ldr	r0, [pc, #116]	; (228c <ModemDiagUpdateDataBase+0xa0>)
    2218:	4e1d      	ldr	r6, [pc, #116]	; (2290 <ModemDiagUpdateDataBase+0xa4>)
    221a:	7025      	strb	r5, [r4, #0]
    221c:	47b0      	blx	r6
    221e:	210f      	movs	r1, #15
    2220:	481c      	ldr	r0, [pc, #112]	; (2294 <ModemDiagUpdateDataBase+0xa8>)
    2222:	4b1d      	ldr	r3, [pc, #116]	; (2298 <ModemDiagUpdateDataBase+0xac>)
    2224:	4798      	blx	r3
    2226:	481d      	ldr	r0, [pc, #116]	; (229c <ModemDiagUpdateDataBase+0xb0>)
    2228:	47b0      	blx	r6
    222a:	7025      	strb	r5, [r4, #0]
    222c:	bd70      	pop	{r4, r5, r6, pc}
    222e:	2300      	movs	r3, #0
    2230:	2b01      	cmp	r3, #1
    2232:	d2fb      	bcs.n	222c <ModemDiagUpdateDataBase+0x40>
    2234:	4b14      	ldr	r3, [pc, #80]	; (2288 <ModemDiagUpdateDataBase+0x9c>)
    2236:	8802      	ldrh	r2, [r0, #0]
    2238:	f8a3 2001 	strh.w	r2, [r3, #1]
    223c:	1c5d      	adds	r5, r3, #1
    223e:	7883      	ldrb	r3, [r0, #2]
    2240:	70ab      	strb	r3, [r5, #2]
    2242:	4817      	ldr	r0, [pc, #92]	; (22a0 <ModemDiagUpdateDataBase+0xb4>)
    2244:	4c12      	ldr	r4, [pc, #72]	; (2290 <ModemDiagUpdateDataBase+0xa4>)
    2246:	47a0      	blx	r4
    2248:	4816      	ldr	r0, [pc, #88]	; (22a4 <ModemDiagUpdateDataBase+0xb8>)
    224a:	47a0      	blx	r4
    224c:	2103      	movs	r1, #3
    224e:	4628      	mov	r0, r5
    2250:	4b11      	ldr	r3, [pc, #68]	; (2298 <ModemDiagUpdateDataBase+0xac>)
    2252:	4798      	blx	r3
    2254:	4623      	mov	r3, r4
    2256:	4811      	ldr	r0, [pc, #68]	; (229c <ModemDiagUpdateDataBase+0xb0>)
    2258:	e8bd 4070 	ldmia.w	sp!, {r4, r5, r6, lr}
    225c:	4718      	bx	r3
    225e:	4b12      	ldr	r3, [pc, #72]	; (22a8 <ModemDiagUpdateDataBase+0xbc>)
    2260:	f100 0210 	add.w	r2, r0, #16
    2264:	f850 1b04 	ldr.w	r1, [r0], #4
    2268:	f843 1b04 	str.w	r1, [r3], #4
    226c:	4290      	cmp	r0, r2
    226e:	d1f9      	bne.n	2264 <ModemDiagUpdateDataBase+0x78>
    2270:	480e      	ldr	r0, [pc, #56]	; (22ac <ModemDiagUpdateDataBase+0xc0>)
    2272:	4c07      	ldr	r4, [pc, #28]	; (2290 <ModemDiagUpdateDataBase+0xa4>)
    2274:	47a0      	blx	r4
    2276:	2110      	movs	r1, #16
    2278:	480b      	ldr	r0, [pc, #44]	; (22a8 <ModemDiagUpdateDataBase+0xbc>)
    227a:	e7e9      	b.n	2250 <ModemDiagUpdateDataBase+0x64>
    227c:	18c2      	adds	r2, r0, r3
    227e:	4423      	add	r3, r4
    2280:	79d2      	ldrb	r2, [r2, #7]
    2282:	751a      	strb	r2, [r3, #20]
    2284:	e7bf      	b.n	2206 <ModemDiagUpdateDataBase+0x1a>
    2286:	bf00      	nop
    2288:	20000303 	.word	0x20000303
    228c:	00007dae 	.word	0x00007dae
    2290:	000028a5 	.word	0x000028a5
    2294:	20000317 	.word	0x20000317
    2298:	00002861 	.word	0x00002861
    229c:	00008026 	.word	0x00008026
    22a0:	00007d1e 	.word	0x00007d1e
    22a4:	00007d48 	.word	0x00007d48
    22a8:	20000307 	.word	0x20000307
    22ac:	00007d8e 	.word	0x00007d8e

000022b0 <isModemDiagDataBaseUpdated>:
    22b0:	4b01      	ldr	r3, [pc, #4]	; (22b8 <isModemDiagDataBaseUpdated+0x8>)
    22b2:	7818      	ldrb	r0, [r3, #0]
    22b4:	4770      	bx	lr
    22b6:	bf00      	nop
    22b8:	20000303 	.word	0x20000303

000022bc <gpio_set_pin_direction.constprop.0>:
    22bc:	f000 021f 	and.w	r2, r0, #31
    22c0:	0940      	lsrs	r0, r0, #5
    22c2:	01c0      	lsls	r0, r0, #7
    22c4:	f100 4082 	add.w	r0, r0, #1090519040	; 0x41000000
    22c8:	f500 4000 	add.w	r0, r0, #32768	; 0x8000
    22cc:	2301      	movs	r3, #1
    22ce:	4093      	lsls	r3, r2
    22d0:	6083      	str	r3, [r0, #8]
    22d2:	b29a      	uxth	r2, r3
    22d4:	0c1b      	lsrs	r3, r3, #16
    22d6:	f042 4280 	orr.w	r2, r2, #1073741824	; 0x40000000
    22da:	f043 4340 	orr.w	r3, r3, #3221225472	; 0xc0000000
    22de:	6282      	str	r2, [r0, #40]	; 0x28
    22e0:	6283      	str	r3, [r0, #40]	; 0x28
    22e2:	4770      	bx	lr

000022e4 <getModemPowerStatus>:
    22e4:	4b01      	ldr	r3, [pc, #4]	; (22ec <getModemPowerStatus+0x8>)
    22e6:	7818      	ldrb	r0, [r3, #0]
    22e8:	4770      	bx	lr
    22ea:	bf00      	nop
    22ec:	2000032a 	.word	0x2000032a

000022f0 <modemPowerStateInit>:
    22f0:	4b04      	ldr	r3, [pc, #16]	; (2304 <modemPowerStateInit+0x14>)
    22f2:	2207      	movs	r2, #7
    22f4:	701a      	strb	r2, [r3, #0]
    22f6:	2200      	movs	r2, #0
    22f8:	705a      	strb	r2, [r3, #1]
    22fa:	709a      	strb	r2, [r3, #2]
    22fc:	2201      	movs	r2, #1
    22fe:	70da      	strb	r2, [r3, #3]
    2300:	4770      	bx	lr
    2302:	bf00      	nop
    2304:	2000032a 	.word	0x2000032a

00002308 <modemPowerSchedule>:
    2308:	4951      	ldr	r1, [pc, #324]	; (2450 <modemPowerSchedule+0x148>)
    230a:	780b      	ldrb	r3, [r1, #0]
    230c:	2b06      	cmp	r3, #6
    230e:	b570      	push	{r4, r5, r6, lr}
    2310:	460c      	mov	r4, r1
    2312:	d07d      	beq.n	2410 <modemPowerSchedule+0x108>
    2314:	2b07      	cmp	r3, #7
    2316:	d048      	beq.n	23aa <modemPowerSchedule+0xa2>
    2318:	2b00      	cmp	r3, #0
    231a:	f040 8097 	bne.w	244c <modemPowerSchedule+0x144>
    231e:	784b      	ldrb	r3, [r1, #1]
    2320:	2b03      	cmp	r3, #3
    2322:	f200 8093 	bhi.w	244c <modemPowerSchedule+0x144>
    2326:	e8df f003 	tbb	[pc, r3]
    232a:	2902      	.short	0x2902
    232c:	3a35      	.short	0x3a35
    232e:	4d49      	ldr	r5, [pc, #292]	; (2454 <modemPowerSchedule+0x14c>)
    2330:	2030      	movs	r0, #48	; 0x30
    2332:	47a8      	blx	r5
    2334:	4948      	ldr	r1, [pc, #288]	; (2458 <modemPowerSchedule+0x150>)
    2336:	f891 30d0 	ldrb.w	r3, [r1, #208]	; 0xd0
    233a:	f44f 3680 	mov.w	r6, #65536	; 0x10000
    233e:	f003 03fe 	and.w	r3, r3, #254	; 0xfe
    2342:	f881 30d0 	strb.w	r3, [r1, #208]	; 0xd0
    2346:	2013      	movs	r0, #19
    2348:	f8c1 6094 	str.w	r6, [r1, #148]	; 0x94
    234c:	47a8      	blx	r5
    234e:	f891 3053 	ldrb.w	r3, [r1, #83]	; 0x53
    2352:	f003 03fe 	and.w	r3, r3, #254	; 0xfe
    2356:	f881 3053 	strb.w	r3, [r1, #83]	; 0x53
    235a:	f44f 2300 	mov.w	r3, #524288	; 0x80000
    235e:	614b      	str	r3, [r1, #20]
    2360:	2010      	movs	r0, #16
    2362:	47a8      	blx	r5
    2364:	f891 3050 	ldrb.w	r3, [r1, #80]	; 0x50
    2368:	f003 03fe 	and.w	r3, r3, #254	; 0xfe
    236c:	f881 3050 	strb.w	r3, [r1, #80]	; 0x50
    2370:	2301      	movs	r3, #1
    2372:	614e      	str	r6, [r1, #20]
    2374:	7063      	strb	r3, [r4, #1]
    2376:	f44f 70fa 	mov.w	r0, #500	; 0x1f4
    237a:	e007      	b.n	238c <modemPowerSchedule+0x84>
    237c:	4b36      	ldr	r3, [pc, #216]	; (2458 <modemPowerSchedule+0x150>)
    237e:	f44f 3280 	mov.w	r2, #65536	; 0x10000
    2382:	f8c3 2098 	str.w	r2, [r3, #152]	; 0x98
    2386:	2302      	movs	r3, #2
    2388:	704b      	strb	r3, [r1, #1]
    238a:	2032      	movs	r0, #50	; 0x32
    238c:	4b33      	ldr	r3, [pc, #204]	; (245c <modemPowerSchedule+0x154>)
    238e:	e8bd 4070 	ldmia.w	sp!, {r4, r5, r6, lr}
    2392:	4718      	bx	r3
    2394:	2303      	movs	r3, #3
    2396:	704b      	strb	r3, [r1, #1]
    2398:	f640 30b8 	movw	r0, #3000	; 0xbb8
    239c:	e7f6      	b.n	238c <modemPowerSchedule+0x84>
    239e:	4b30      	ldr	r3, [pc, #192]	; (2460 <modemPowerSchedule+0x158>)
    23a0:	4830      	ldr	r0, [pc, #192]	; (2464 <modemPowerSchedule+0x15c>)
    23a2:	4798      	blx	r3
    23a4:	2304      	movs	r3, #4
    23a6:	7023      	strb	r3, [r4, #0]
    23a8:	bd70      	pop	{r4, r5, r6, pc}
    23aa:	788b      	ldrb	r3, [r1, #2]
    23ac:	b113      	cbz	r3, 23b4 <modemPowerSchedule+0xac>
    23ae:	2b01      	cmp	r3, #1
    23b0:	d01d      	beq.n	23ee <modemPowerSchedule+0xe6>
    23b2:	bd70      	pop	{r4, r5, r6, pc}
    23b4:	4c28      	ldr	r4, [pc, #160]	; (2458 <modemPowerSchedule+0x150>)
    23b6:	4d27      	ldr	r5, [pc, #156]	; (2454 <modemPowerSchedule+0x14c>)
    23b8:	2030      	movs	r0, #48	; 0x30
    23ba:	47a8      	blx	r5
    23bc:	f894 30d0 	ldrb.w	r3, [r4, #208]	; 0xd0
    23c0:	f003 03fe 	and.w	r3, r3, #254	; 0xfe
    23c4:	f884 30d0 	strb.w	r3, [r4, #208]	; 0xd0
    23c8:	f44f 3380 	mov.w	r3, #65536	; 0x10000
    23cc:	f8c4 3098 	str.w	r3, [r4, #152]	; 0x98
    23d0:	2013      	movs	r0, #19
    23d2:	47a8      	blx	r5
    23d4:	f894 3053 	ldrb.w	r3, [r4, #83]	; 0x53
    23d8:	f003 03fe 	and.w	r3, r3, #254	; 0xfe
    23dc:	f884 3053 	strb.w	r3, [r4, #83]	; 0x53
    23e0:	f44f 2300 	mov.w	r3, #524288	; 0x80000
    23e4:	61a3      	str	r3, [r4, #24]
    23e6:	2301      	movs	r3, #1
    23e8:	708b      	strb	r3, [r1, #2]
    23ea:	2019      	movs	r0, #25
    23ec:	e7ce      	b.n	238c <modemPowerSchedule+0x84>
    23ee:	4b19      	ldr	r3, [pc, #100]	; (2454 <modemPowerSchedule+0x14c>)
    23f0:	2013      	movs	r0, #19
    23f2:	4798      	blx	r3
    23f4:	4b18      	ldr	r3, [pc, #96]	; (2458 <modemPowerSchedule+0x150>)
    23f6:	f893 2053 	ldrb.w	r2, [r3, #83]	; 0x53
    23fa:	f002 02fe 	and.w	r2, r2, #254	; 0xfe
    23fe:	f883 2053 	strb.w	r2, [r3, #83]	; 0x53
    2402:	f44f 2200 	mov.w	r2, #524288	; 0x80000
    2406:	615a      	str	r2, [r3, #20]
    2408:	2300      	movs	r3, #0
    240a:	700b      	strb	r3, [r1, #0]
    240c:	704b      	strb	r3, [r1, #1]
    240e:	e7b2      	b.n	2376 <modemPowerSchedule+0x6e>
    2410:	78cb      	ldrb	r3, [r1, #3]
    2412:	b9db      	cbnz	r3, 244c <modemPowerSchedule+0x144>
    2414:	4c10      	ldr	r4, [pc, #64]	; (2458 <modemPowerSchedule+0x150>)
    2416:	4d0f      	ldr	r5, [pc, #60]	; (2454 <modemPowerSchedule+0x14c>)
    2418:	2030      	movs	r0, #48	; 0x30
    241a:	47a8      	blx	r5
    241c:	f894 30d0 	ldrb.w	r3, [r4, #208]	; 0xd0
    2420:	f003 03fe 	and.w	r3, r3, #254	; 0xfe
    2424:	f884 30d0 	strb.w	r3, [r4, #208]	; 0xd0
    2428:	f44f 3380 	mov.w	r3, #65536	; 0x10000
    242c:	f8c4 3094 	str.w	r3, [r4, #148]	; 0x94
    2430:	2013      	movs	r0, #19
    2432:	47a8      	blx	r5
    2434:	f894 3053 	ldrb.w	r3, [r4, #83]	; 0x53
    2438:	f003 03fe 	and.w	r3, r3, #254	; 0xfe
    243c:	f884 3053 	strb.w	r3, [r4, #83]	; 0x53
    2440:	f44f 2300 	mov.w	r3, #524288	; 0x80000
    2444:	61a3      	str	r3, [r4, #24]
    2446:	2301      	movs	r3, #1
    2448:	70cb      	strb	r3, [r1, #3]
    244a:	e7ce      	b.n	23ea <modemPowerSchedule+0xe2>
    244c:	bd70      	pop	{r4, r5, r6, pc}
    244e:	bf00      	nop
    2450:	2000032a 	.word	0x2000032a
    2454:	000022bd 	.word	0x000022bd
    2458:	41008000 	.word	0x41008000
    245c:	00004f09 	.word	0x00004f09
    2460:	000028a5 	.word	0x000028a5
    2464:	00007dd0 	.word	0x00007dd0

00002468 <packetTransmitPeriodicTimerCallBack>:
    2468:	4b01      	ldr	r3, [pc, #4]	; (2470 <packetTransmitPeriodicTimerCallBack+0x8>)
    246a:	2201      	movs	r2, #1
    246c:	701a      	strb	r2, [r3, #0]
    246e:	4770      	bx	lr
    2470:	2000032e 	.word	0x2000032e

00002474 <SystemAutoRestartTimerCallBack>:
    2474:	b510      	push	{r4, lr}
    2476:	4b03      	ldr	r3, [pc, #12]	; (2484 <SystemAutoRestartTimerCallBack+0x10>)
    2478:	4803      	ldr	r0, [pc, #12]	; (2488 <SystemAutoRestartTimerCallBack+0x14>)
    247a:	4798      	blx	r3
    247c:	4b03      	ldr	r3, [pc, #12]	; (248c <SystemAutoRestartTimerCallBack+0x18>)
    247e:	e8bd 4010 	ldmia.w	sp!, {r4, lr}
    2482:	4718      	bx	r3
    2484:	000028a5 	.word	0x000028a5
    2488:	00007e0b 	.word	0x00007e0b
    248c:	00002a85 	.word	0x00002a85

00002490 <ModemProcessTask>:
    2490:	e92d 41f3 	stmdb	sp!, {r0, r1, r4, r5, r6, r7, r8, lr}
    2494:	4b24      	ldr	r3, [pc, #144]	; (2528 <ModemProcessTask+0x98>)
    2496:	4e25      	ldr	r6, [pc, #148]	; (252c <ModemProcessTask+0x9c>)
    2498:	4798      	blx	r3
    249a:	4b25      	ldr	r3, [pc, #148]	; (2530 <ModemProcessTask+0xa0>)
    249c:	4798      	blx	r3
    249e:	4b25      	ldr	r3, [pc, #148]	; (2534 <ModemProcessTask+0xa4>)
    24a0:	4925      	ldr	r1, [pc, #148]	; (2538 <ModemProcessTask+0xa8>)
    24a2:	4826      	ldr	r0, [pc, #152]	; (253c <ModemProcessTask+0xac>)
    24a4:	2400      	movs	r4, #0
    24a6:	701c      	strb	r4, [r3, #0]
    24a8:	4b25      	ldr	r3, [pc, #148]	; (2540 <ModemProcessTask+0xb0>)
    24aa:	9300      	str	r3, [sp, #0]
    24ac:	2201      	movs	r2, #1
    24ae:	4623      	mov	r3, r4
    24b0:	47b0      	blx	r6
    24b2:	4b24      	ldr	r3, [pc, #144]	; (2544 <ModemProcessTask+0xb4>)
    24b4:	9300      	str	r3, [sp, #0]
    24b6:	4605      	mov	r5, r0
    24b8:	4623      	mov	r3, r4
    24ba:	2201      	movs	r2, #1
    24bc:	f241 7170 	movw	r1, #6000	; 0x1770
    24c0:	4821      	ldr	r0, [pc, #132]	; (2548 <ModemProcessTask+0xb8>)
    24c2:	47b0      	blx	r6
    24c4:	4606      	mov	r6, r0
    24c6:	b340      	cbz	r0, 251a <ModemProcessTask+0x8a>
    24c8:	b33d      	cbz	r5, 251a <ModemProcessTask+0x8a>
    24ca:	f8df 80a8 	ldr.w	r8, [pc, #168]	; 2574 <ModemProcessTask+0xe4>
    24ce:	47c0      	blx	r8
    24d0:	9400      	str	r4, [sp, #0]
    24d2:	4602      	mov	r2, r0
    24d4:	4623      	mov	r3, r4
    24d6:	4628      	mov	r0, r5
    24d8:	2101      	movs	r1, #1
    24da:	4d1c      	ldr	r5, [pc, #112]	; (254c <ModemProcessTask+0xbc>)
    24dc:	47a8      	blx	r5
    24de:	2801      	cmp	r0, #1
    24e0:	4607      	mov	r7, r0
    24e2:	d11a      	bne.n	251a <ModemProcessTask+0x8a>
    24e4:	47c0      	blx	r8
    24e6:	9400      	str	r4, [sp, #0]
    24e8:	4602      	mov	r2, r0
    24ea:	4623      	mov	r3, r4
    24ec:	4639      	mov	r1, r7
    24ee:	4630      	mov	r0, r6
    24f0:	47a8      	blx	r5
    24f2:	2801      	cmp	r0, #1
    24f4:	d111      	bne.n	251a <ModemProcessTask+0x8a>
    24f6:	4e16      	ldr	r6, [pc, #88]	; (2550 <ModemProcessTask+0xc0>)
    24f8:	4d16      	ldr	r5, [pc, #88]	; (2554 <ModemProcessTask+0xc4>)
    24fa:	4c17      	ldr	r4, [pc, #92]	; (2558 <ModemProcessTask+0xc8>)
    24fc:	47b0      	blx	r6
    24fe:	47a8      	blx	r5
    2500:	2804      	cmp	r0, #4
    2502:	d1fb      	bne.n	24fc <ModemProcessTask+0x6c>
    2504:	47a0      	blx	r4
    2506:	2800      	cmp	r0, #0
    2508:	d0f8      	beq.n	24fc <ModemProcessTask+0x6c>
    250a:	4b14      	ldr	r3, [pc, #80]	; (255c <ModemProcessTask+0xcc>)
    250c:	4798      	blx	r3
    250e:	4b14      	ldr	r3, [pc, #80]	; (2560 <ModemProcessTask+0xd0>)
    2510:	4798      	blx	r3
    2512:	2064      	movs	r0, #100	; 0x64
    2514:	4b13      	ldr	r3, [pc, #76]	; (2564 <ModemProcessTask+0xd4>)
    2516:	4798      	blx	r3
    2518:	e7f0      	b.n	24fc <ModemProcessTask+0x6c>
    251a:	4b13      	ldr	r3, [pc, #76]	; (2568 <ModemProcessTask+0xd8>)
    251c:	4813      	ldr	r0, [pc, #76]	; (256c <ModemProcessTask+0xdc>)
    251e:	4798      	blx	r3
    2520:	4b13      	ldr	r3, [pc, #76]	; (2570 <ModemProcessTask+0xe0>)
    2522:	4798      	blx	r3
    2524:	e7e7      	b.n	24f6 <ModemProcessTask+0x66>
    2526:	bf00      	nop
    2528:	000022f1 	.word	0x000022f1
    252c:	000055dd 	.word	0x000055dd
    2530:	00001191 	.word	0x00001191
    2534:	2000032e 	.word	0x2000032e
    2538:	0036ee80 	.word	0x0036ee80
    253c:	00007e48 	.word	0x00007e48
    2540:	00002475 	.word	0x00002475
    2544:	00002469 	.word	0x00002469
    2548:	00007e61 	.word	0x00007e61
    254c:	00005631 	.word	0x00005631
    2550:	00002309 	.word	0x00002309
    2554:	000022e5 	.word	0x000022e5
    2558:	00000ddd 	.word	0x00000ddd
    255c:	000019f9 	.word	0x000019f9
    2560:	00002a65 	.word	0x00002a65
    2564:	00004f09 	.word	0x00004f09
    2568:	000028a5 	.word	0x000028a5
    256c:	00007e7d 	.word	0x00007e7d
    2570:	00002a85 	.word	0x00002a85
    2574:	00004d25 	.word	0x00004d25

00002578 <clearPacketTransmitTimerExpiryFlag>:
    2578:	4b01      	ldr	r3, [pc, #4]	; (2580 <clearPacketTransmitTimerExpiryFlag+0x8>)
    257a:	2200      	movs	r2, #0
    257c:	701a      	strb	r2, [r3, #0]
    257e:	4770      	bx	lr
    2580:	2000032e 	.word	0x2000032e

00002584 <isPacketTransmitTimerExpired>:
    2584:	4b01      	ldr	r3, [pc, #4]	; (258c <isPacketTransmitTimerExpired+0x8>)
    2586:	7818      	ldrb	r0, [r3, #0]
    2588:	4770      	bx	lr
    258a:	bf00      	nop
    258c:	2000032e 	.word	0x2000032e

00002590 <modemResponseHandler>:
    2590:	e92d 47f0 	stmdb	sp!, {r4, r5, r6, r7, r8, r9, sl, lr}
    2594:	4c38      	ldr	r4, [pc, #224]	; (2678 <modemResponseHandler+0xe8>)
    2596:	4b39      	ldr	r3, [pc, #228]	; (267c <modemResponseHandler+0xec>)
    2598:	460e      	mov	r6, r1
    259a:	4621      	mov	r1, r4
    259c:	4607      	mov	r7, r0
    259e:	4615      	mov	r5, r2
    25a0:	4798      	blx	r3
    25a2:	2e00      	cmp	r6, #0
    25a4:	d063      	beq.n	266e <modemResponseHandler+0xde>
    25a6:	7863      	ldrb	r3, [r4, #1]
    25a8:	2b01      	cmp	r3, #1
    25aa:	d01b      	beq.n	25e4 <modemResponseHandler+0x54>
    25ac:	d303      	bcc.n	25b6 <modemResponseHandler+0x26>
    25ae:	2b02      	cmp	r3, #2
    25b0:	d03d      	beq.n	262e <modemResponseHandler+0x9e>
    25b2:	e8bd 87f0 	ldmia.w	sp!, {r4, r5, r6, r7, r8, r9, sl, pc}
    25b6:	f44f 722f 	mov.w	r2, #700	; 0x2bc
    25ba:	2100      	movs	r1, #0
    25bc:	f104 001c 	add.w	r0, r4, #28
    25c0:	4b2f      	ldr	r3, [pc, #188]	; (2680 <modemResponseHandler+0xf0>)
    25c2:	7527      	strb	r7, [r4, #20]
    25c4:	82e5      	strh	r5, [r4, #22]
    25c6:	4798      	blx	r3
    25c8:	4631      	mov	r1, r6
    25ca:	462a      	mov	r2, r5
    25cc:	f104 001c 	add.w	r0, r4, #28
    25d0:	4b2c      	ldr	r3, [pc, #176]	; (2684 <modemResponseHandler+0xf4>)
    25d2:	4798      	blx	r3
    25d4:	f104 0114 	add.w	r1, r4, #20
    25d8:	f104 001c 	add.w	r0, r4, #28
    25dc:	4b2a      	ldr	r3, [pc, #168]	; (2688 <modemResponseHandler+0xf8>)
    25de:	e8bd 47f0 	ldmia.w	sp!, {r4, r5, r6, r7, r8, r9, sl, lr}
    25e2:	4718      	bx	r3
    25e4:	f8df 80c4 	ldr.w	r8, [pc, #196]	; 26ac <modemResponseHandler+0x11c>
    25e8:	4b28      	ldr	r3, [pc, #160]	; (268c <modemResponseHandler+0xfc>)
    25ea:	f8d8 0000 	ldr.w	r0, [r8]
    25ee:	4798      	blx	r3
    25f0:	4681      	mov	r9, r0
    25f2:	b9d0      	cbnz	r0, 262a <modemResponseHandler+0x9a>
    25f4:	4628      	mov	r0, r5
    25f6:	4b26      	ldr	r3, [pc, #152]	; (2690 <modemResponseHandler+0x100>)
    25f8:	7527      	strb	r7, [r4, #20]
    25fa:	82e5      	strh	r5, [r4, #22]
    25fc:	4798      	blx	r3
    25fe:	61a0      	str	r0, [r4, #24]
    2600:	2800      	cmp	r0, #0
    2602:	d036      	beq.n	2672 <modemResponseHandler+0xe2>
    2604:	462a      	mov	r2, r5
    2606:	4631      	mov	r1, r6
    2608:	4b1e      	ldr	r3, [pc, #120]	; (2684 <modemResponseHandler+0xf4>)
    260a:	4798      	blx	r3
    260c:	f104 0114 	add.w	r1, r4, #20
    2610:	464b      	mov	r3, r9
    2612:	2264      	movs	r2, #100	; 0x64
    2614:	f8d8 0000 	ldr.w	r0, [r8]
    2618:	4c1e      	ldr	r4, [pc, #120]	; (2694 <modemResponseHandler+0x104>)
    261a:	47a0      	blx	r4
    261c:	2801      	cmp	r0, #1
    261e:	d028      	beq.n	2672 <modemResponseHandler+0xe2>
    2620:	481d      	ldr	r0, [pc, #116]	; (2698 <modemResponseHandler+0x108>)
    2622:	4b1e      	ldr	r3, [pc, #120]	; (269c <modemResponseHandler+0x10c>)
    2624:	e8bd 47f0 	ldmia.w	sp!, {r4, r5, r6, r7, r8, r9, sl, lr}
    2628:	4718      	bx	r3
    262a:	481d      	ldr	r0, [pc, #116]	; (26a0 <modemResponseHandler+0x110>)
    262c:	e7f9      	b.n	2622 <modemResponseHandler+0x92>
    262e:	f8df 8080 	ldr.w	r8, [pc, #128]	; 26b0 <modemResponseHandler+0x120>
    2632:	4b16      	ldr	r3, [pc, #88]	; (268c <modemResponseHandler+0xfc>)
    2634:	f8d8 0000 	ldr.w	r0, [r8]
    2638:	4798      	blx	r3
    263a:	4681      	mov	r9, r0
    263c:	2800      	cmp	r0, #0
    263e:	d1f4      	bne.n	262a <modemResponseHandler+0x9a>
    2640:	4628      	mov	r0, r5
    2642:	4b13      	ldr	r3, [pc, #76]	; (2690 <modemResponseHandler+0x100>)
    2644:	7527      	strb	r7, [r4, #20]
    2646:	82e5      	strh	r5, [r4, #22]
    2648:	4798      	blx	r3
    264a:	61a0      	str	r0, [r4, #24]
    264c:	b188      	cbz	r0, 2672 <modemResponseHandler+0xe2>
    264e:	462a      	mov	r2, r5
    2650:	4631      	mov	r1, r6
    2652:	4b0c      	ldr	r3, [pc, #48]	; (2684 <modemResponseHandler+0xf4>)
    2654:	4798      	blx	r3
    2656:	f104 0114 	add.w	r1, r4, #20
    265a:	464b      	mov	r3, r9
    265c:	2264      	movs	r2, #100	; 0x64
    265e:	f8d8 0000 	ldr.w	r0, [r8]
    2662:	4c0c      	ldr	r4, [pc, #48]	; (2694 <modemResponseHandler+0x104>)
    2664:	47a0      	blx	r4
    2666:	2801      	cmp	r0, #1
    2668:	d003      	beq.n	2672 <modemResponseHandler+0xe2>
    266a:	480e      	ldr	r0, [pc, #56]	; (26a4 <modemResponseHandler+0x114>)
    266c:	e7d9      	b.n	2622 <modemResponseHandler+0x92>
    266e:	480e      	ldr	r0, [pc, #56]	; (26a8 <modemResponseHandler+0x118>)
    2670:	e7d7      	b.n	2622 <modemResponseHandler+0x92>
    2672:	e8bd 87f0 	ldmia.w	sp!, {r4, r5, r6, r7, r8, r9, sl, pc}
    2676:	bf00      	nop
    2678:	20000330 	.word	0x20000330
    267c:	00000f4d 	.word	0x00000f4d
    2680:	000059bf 	.word	0x000059bf
    2684:	00005975 	.word	0x00005975
    2688:	000021ed 	.word	0x000021ed
    268c:	000049b9 	.word	0x000049b9
    2690:	00004015 	.word	0x00004015
    2694:	000043dd 	.word	0x000043dd
    2698:	00007eb9 	.word	0x00007eb9
    269c:	000028a5 	.word	0x000028a5
    26a0:	00007ee9 	.word	0x00007ee9
    26a4:	00007f15 	.word	0x00007f15
    26a8:	00007f4a 	.word	0x00007f4a
    26ac:	20003554 	.word	0x20003554
    26b0:	20003584 	.word	0x20003584

000026b4 <ModemRxTask>:
    26b4:	b5f0      	push	{r4, r5, r6, r7, lr}
    26b6:	4d10      	ldr	r5, [pc, #64]	; (26f8 <ModemRxTask+0x44>)
    26b8:	4e10      	ldr	r6, [pc, #64]	; (26fc <ModemRxTask+0x48>)
    26ba:	4f11      	ldr	r7, [pc, #68]	; (2700 <ModemRxTask+0x4c>)
    26bc:	b087      	sub	sp, #28
    26be:	f04f 33ff 	mov.w	r3, #4294967295
    26c2:	f10d 0203 	add.w	r2, sp, #3
    26c6:	4619      	mov	r1, r3
    26c8:	2000      	movs	r0, #0
    26ca:	47a8      	blx	r5
    26cc:	2801      	cmp	r0, #1
    26ce:	d110      	bne.n	26f2 <ModemRxTask+0x3e>
    26d0:	f89d 0003 	ldrb.w	r0, [sp, #3]
    26d4:	a901      	add	r1, sp, #4
    26d6:	47b0      	blx	r6
    26d8:	f89d 0004 	ldrb.w	r0, [sp, #4]
    26dc:	47b8      	blx	r7
    26de:	b940      	cbnz	r0, 26f2 <ModemRxTask+0x3e>
    26e0:	4c08      	ldr	r4, [pc, #32]	; (2704 <ModemRxTask+0x50>)
    26e2:	4809      	ldr	r0, [pc, #36]	; (2708 <ModemRxTask+0x54>)
    26e4:	47a0      	blx	r4
    26e6:	4809      	ldr	r0, [pc, #36]	; (270c <ModemRxTask+0x58>)
    26e8:	47a0      	blx	r4
    26ea:	4809      	ldr	r0, [pc, #36]	; (2710 <ModemRxTask+0x5c>)
    26ec:	47a0      	blx	r4
    26ee:	4b09      	ldr	r3, [pc, #36]	; (2714 <ModemRxTask+0x60>)
    26f0:	4798      	blx	r3
    26f2:	4b09      	ldr	r3, [pc, #36]	; (2718 <ModemRxTask+0x64>)
    26f4:	4798      	blx	r3
    26f6:	e7e2      	b.n	26be <ModemRxTask+0xa>
    26f8:	00005369 	.word	0x00005369
    26fc:	00000f4d 	.word	0x00000f4d
    2700:	00001035 	.word	0x00001035
    2704:	000028a5 	.word	0x000028a5
    2708:	00007f8f 	.word	0x00007f8f
    270c:	00007fad 	.word	0x00007fad
    2710:	00008026 	.word	0x00008026
    2714:	00002a85 	.word	0x00002a85
    2718:	00002a65 	.word	0x00002a65

0000271c <ModemTxTask>:
    271c:	e92d 47f0 	stmdb	sp!, {r4, r5, r6, r7, r8, r9, sl, lr}
    2720:	4c1e      	ldr	r4, [pc, #120]	; (279c <ModemTxTask+0x80>)
    2722:	4d1f      	ldr	r5, [pc, #124]	; (27a0 <ModemTxTask+0x84>)
    2724:	6820      	ldr	r0, [r4, #0]
    2726:	f8df 90a8 	ldr.w	r9, [pc, #168]	; 27d0 <ModemTxTask+0xb4>
    272a:	4e1e      	ldr	r6, [pc, #120]	; (27a4 <ModemTxTask+0x88>)
    272c:	f8df a0a4 	ldr.w	sl, [pc, #164]	; 27d4 <ModemTxTask+0xb8>
    2730:	2300      	movs	r3, #0
    2732:	461a      	mov	r2, r3
    2734:	4619      	mov	r1, r3
    2736:	47a8      	blx	r5
    2738:	46a8      	mov	r8, r5
    273a:	47c8      	blx	r9
    273c:	2804      	cmp	r0, #4
    273e:	d1fc      	bne.n	273a <ModemTxTask+0x1e>
    2740:	6830      	ldr	r0, [r6, #0]
    2742:	47d0      	blx	sl
    2744:	b320      	cbz	r0, 2790 <ModemTxTask+0x74>
    2746:	2100      	movs	r1, #0
    2748:	6820      	ldr	r0, [r4, #0]
    274a:	4b17      	ldr	r3, [pc, #92]	; (27a8 <ModemTxTask+0x8c>)
    274c:	4798      	blx	r3
    274e:	2801      	cmp	r0, #1
    2750:	d11e      	bne.n	2790 <ModemTxTask+0x74>
    2752:	4d16      	ldr	r5, [pc, #88]	; (27ac <ModemTxTask+0x90>)
    2754:	6830      	ldr	r0, [r6, #0]
    2756:	4b16      	ldr	r3, [pc, #88]	; (27b0 <ModemTxTask+0x94>)
    2758:	2264      	movs	r2, #100	; 0x64
    275a:	4629      	mov	r1, r5
    275c:	4798      	blx	r3
    275e:	2801      	cmp	r0, #1
    2760:	d116      	bne.n	2790 <ModemTxTask+0x74>
    2762:	786f      	ldrb	r7, [r5, #1]
    2764:	4b13      	ldr	r3, [pc, #76]	; (27b4 <ModemTxTask+0x98>)
    2766:	f105 0108 	add.w	r1, r5, #8
    276a:	4638      	mov	r0, r7
    276c:	4798      	blx	r3
    276e:	4b12      	ldr	r3, [pc, #72]	; (27b8 <ModemTxTask+0x9c>)
    2770:	4798      	blx	r3
    2772:	7c29      	ldrb	r1, [r5, #16]
    2774:	4b11      	ldr	r3, [pc, #68]	; (27bc <ModemTxTask+0xa0>)
    2776:	68e8      	ldr	r0, [r5, #12]
    2778:	4798      	blx	r3
    277a:	4b11      	ldr	r3, [pc, #68]	; (27c0 <ModemTxTask+0xa4>)
    277c:	4638      	mov	r0, r7
    277e:	4798      	blx	r3
    2780:	4b10      	ldr	r3, [pc, #64]	; (27c4 <ModemTxTask+0xa8>)
    2782:	2000      	movs	r0, #0
    2784:	4798      	blx	r3
    2786:	2300      	movs	r3, #0
    2788:	461a      	mov	r2, r3
    278a:	4619      	mov	r1, r3
    278c:	6820      	ldr	r0, [r4, #0]
    278e:	47c0      	blx	r8
    2790:	4b0d      	ldr	r3, [pc, #52]	; (27c8 <ModemTxTask+0xac>)
    2792:	4798      	blx	r3
    2794:	2064      	movs	r0, #100	; 0x64
    2796:	4b0d      	ldr	r3, [pc, #52]	; (27cc <ModemTxTask+0xb0>)
    2798:	4798      	blx	r3
    279a:	e7ce      	b.n	273a <ModemTxTask+0x1e>
    279c:	2000358c 	.word	0x2000358c
    27a0:	000043dd 	.word	0x000043dd
    27a4:	20003578 	.word	0x20003578
    27a8:	00004805 	.word	0x00004805
    27ac:	2000060c 	.word	0x2000060c
    27b0:	00004699 	.word	0x00004699
    27b4:	00000f4d 	.word	0x00000f4d
    27b8:	00002051 	.word	0x00002051
    27bc:	00001fe1 	.word	0x00001fe1
    27c0:	0000111d 	.word	0x0000111d
    27c4:	00001111 	.word	0x00001111
    27c8:	00002a65 	.word	0x00002a65
    27cc:	00004f09 	.word	0x00004f09
    27d0:	000022e5 	.word	0x000022e5
    27d4:	000049b9 	.word	0x000049b9

000027d8 <usart_async_write>:
    27d8:	e92d 47f0 	stmdb	sp!, {r4, r5, r6, r7, r8, r9, sl, lr}
    27dc:	4c0f      	ldr	r4, [pc, #60]	; (281c <usart_async_write+0x44>)
    27de:	4606      	mov	r6, r0
    27e0:	460d      	mov	r5, r1
    27e2:	4617      	mov	r7, r2
    27e4:	46a1      	mov	r9, r4
    27e6:	4630      	mov	r0, r6
    27e8:	47a0      	blx	r4
    27ea:	2800      	cmp	r0, #0
    27ec:	d0fb      	beq.n	27e6 <usart_async_write+0xe>
    27ee:	f8df 8030 	ldr.w	r8, [pc, #48]	; 2820 <usart_async_write+0x48>
    27f2:	f8df a030 	ldr.w	sl, [pc, #48]	; 2824 <usart_async_write+0x4c>
    27f6:	3d01      	subs	r5, #1
    27f8:	2400      	movs	r4, #0
    27fa:	786b      	ldrb	r3, [r5, #1]
    27fc:	f804 3008 	strb.w	r3, [r4, r8]
    2800:	4630      	mov	r0, r6
    2802:	f815 1f01 	ldrb.w	r1, [r5, #1]!
    2806:	47d0      	blx	sl
    2808:	4630      	mov	r0, r6
    280a:	47c8      	blx	r9
    280c:	2800      	cmp	r0, #0
    280e:	d0fb      	beq.n	2808 <usart_async_write+0x30>
    2810:	3401      	adds	r4, #1
    2812:	42bc      	cmp	r4, r7
    2814:	d3f1      	bcc.n	27fa <usart_async_write+0x22>
    2816:	4620      	mov	r0, r4
    2818:	e8bd 87f0 	ldmia.w	sp!, {r4, r5, r6, r7, r8, r9, sl, pc}
    281c:	00003787 	.word	0x00003787
    2820:	20000628 	.word	0x20000628
    2824:	00003779 	.word	0x00003779

00002828 <SerialDebugTxByteSentCallBack>:
    2828:	2302      	movs	r3, #2
    282a:	7603      	strb	r3, [r0, #24]
    282c:	4770      	bx	lr

0000282e <SerialDebugErrorCallBack>:
    282e:	2380      	movs	r3, #128	; 0x80
    2830:	7603      	strb	r3, [r0, #24]
    2832:	4770      	bx	lr

00002834 <SerialDebugPrintInit>:
    2834:	b510      	push	{r4, lr}
    2836:	4c06      	ldr	r4, [pc, #24]	; (2850 <SerialDebugPrintInit+0x1c>)
    2838:	4906      	ldr	r1, [pc, #24]	; (2854 <SerialDebugPrintInit+0x20>)
    283a:	4b07      	ldr	r3, [pc, #28]	; (2858 <SerialDebugPrintInit+0x24>)
    283c:	4620      	mov	r0, r4
    283e:	4798      	blx	r3
    2840:	2201      	movs	r2, #1
    2842:	4620      	mov	r0, r4
    2844:	4611      	mov	r1, r2
    2846:	4b05      	ldr	r3, [pc, #20]	; (285c <SerialDebugPrintInit+0x28>)
    2848:	e8bd 4010 	ldmia.w	sp!, {r4, lr}
    284c:	4718      	bx	r3
    284e:	bf00      	nop
    2850:	20000064 	.word	0x20000064
    2854:	43000400 	.word	0x43000400
    2858:	00003705 	.word	0x00003705
    285c:	0000379b 	.word	0x0000379b

00002860 <SerialDebugPrint>:
    2860:	b570      	push	{r4, r5, r6, lr}
    2862:	4c06      	ldr	r4, [pc, #24]	; (287c <SerialDebugPrint+0x1c>)
    2864:	4b06      	ldr	r3, [pc, #24]	; (2880 <SerialDebugPrint+0x20>)
    2866:	460e      	mov	r6, r1
    2868:	4605      	mov	r5, r0
    286a:	4620      	mov	r0, r4
    286c:	4798      	blx	r3
    286e:	4632      	mov	r2, r6
    2870:	4629      	mov	r1, r5
    2872:	4620      	mov	r0, r4
    2874:	4b03      	ldr	r3, [pc, #12]	; (2884 <SerialDebugPrint+0x24>)
    2876:	e8bd 4070 	ldmia.w	sp!, {r4, r5, r6, lr}
    287a:	4718      	bx	r3
    287c:	20000064 	.word	0x20000064
    2880:	0000375d 	.word	0x0000375d
    2884:	000027d9 	.word	0x000027d9

00002888 <SerialDebugTxDoneCallBack>:
    2888:	b510      	push	{r4, lr}
    288a:	4b04      	ldr	r3, [pc, #16]	; (289c <SerialDebugTxDoneCallBack+0x14>)
    288c:	4604      	mov	r4, r0
    288e:	2116      	movs	r1, #22
    2890:	4803      	ldr	r0, [pc, #12]	; (28a0 <SerialDebugTxDoneCallBack+0x18>)
    2892:	4798      	blx	r3
    2894:	2301      	movs	r3, #1
    2896:	7623      	strb	r3, [r4, #24]
    2898:	bd10      	pop	{r4, pc}
    289a:	bf00      	nop
    289c:	00002861 	.word	0x00002861
    28a0:	00007ff0 	.word	0x00007ff0

000028a4 <SerialStringPrint>:
    28a4:	e92d 41f0 	stmdb	sp!, {r4, r5, r6, r7, r8, lr}
    28a8:	4e18      	ldr	r6, [pc, #96]	; (290c <SerialStringPrint+0x68>)
    28aa:	4f19      	ldr	r7, [pc, #100]	; (2910 <SerialStringPrint+0x6c>)
    28ac:	4680      	mov	r8, r0
    28ae:	47b0      	blx	r6
    28b0:	f44f 71fa 	mov.w	r1, #500	; 0x1f4
    28b4:	4605      	mov	r5, r0
    28b6:	4b17      	ldr	r3, [pc, #92]	; (2914 <SerialStringPrint+0x70>)
    28b8:	6838      	ldr	r0, [r7, #0]
    28ba:	4798      	blx	r3
    28bc:	2801      	cmp	r0, #1
    28be:	d122      	bne.n	2906 <SerialStringPrint+0x62>
    28c0:	b2ed      	uxtb	r5, r5
    28c2:	4628      	mov	r0, r5
    28c4:	4b14      	ldr	r3, [pc, #80]	; (2918 <SerialStringPrint+0x74>)
    28c6:	4798      	blx	r3
    28c8:	4604      	mov	r4, r0
    28ca:	b198      	cbz	r0, 28f4 <SerialStringPrint+0x50>
    28cc:	462a      	mov	r2, r5
    28ce:	2100      	movs	r1, #0
    28d0:	4b12      	ldr	r3, [pc, #72]	; (291c <SerialStringPrint+0x78>)
    28d2:	4d13      	ldr	r5, [pc, #76]	; (2920 <SerialStringPrint+0x7c>)
    28d4:	4798      	blx	r3
    28d6:	4b13      	ldr	r3, [pc, #76]	; (2924 <SerialStringPrint+0x80>)
    28d8:	4641      	mov	r1, r8
    28da:	4620      	mov	r0, r4
    28dc:	4798      	blx	r3
    28de:	4620      	mov	r0, r4
    28e0:	47b0      	blx	r6
    28e2:	b281      	uxth	r1, r0
    28e4:	4620      	mov	r0, r4
    28e6:	47a8      	blx	r5
    28e8:	480f      	ldr	r0, [pc, #60]	; (2928 <SerialStringPrint+0x84>)
    28ea:	2102      	movs	r1, #2
    28ec:	47a8      	blx	r5
    28ee:	4620      	mov	r0, r4
    28f0:	4b0e      	ldr	r3, [pc, #56]	; (292c <SerialStringPrint+0x88>)
    28f2:	4798      	blx	r3
    28f4:	4c0e      	ldr	r4, [pc, #56]	; (2930 <SerialStringPrint+0x8c>)
    28f6:	6838      	ldr	r0, [r7, #0]
    28f8:	2300      	movs	r3, #0
    28fa:	46a4      	mov	ip, r4
    28fc:	461a      	mov	r2, r3
    28fe:	4619      	mov	r1, r3
    2900:	e8bd 41f0 	ldmia.w	sp!, {r4, r5, r6, r7, r8, lr}
    2904:	4760      	bx	ip
    2906:	e8bd 81f0 	ldmia.w	sp!, {r4, r5, r6, r7, r8, pc}
    290a:	bf00      	nop
    290c:	00005bbf 	.word	0x00005bbf
    2910:	20003580 	.word	0x20003580
    2914:	00004805 	.word	0x00004805
    2918:	00004015 	.word	0x00004015
    291c:	000059bf 	.word	0x000059bf
    2920:	00002861 	.word	0x00002861
    2924:	00005baf 	.word	0x00005baf
    2928:	00008026 	.word	0x00008026
    292c:	000040e1 	.word	0x000040e1
    2930:	000043dd 	.word	0x000043dd

00002934 <ConsoleDebugPrint>:
    2934:	b570      	push	{r4, r5, r6, lr}
    2936:	4c13      	ldr	r4, [pc, #76]	; (2984 <ConsoleDebugPrint+0x50>)
    2938:	4b13      	ldr	r3, [pc, #76]	; (2988 <ConsoleDebugPrint+0x54>)
    293a:	b09a      	sub	sp, #104	; 0x68
    293c:	4606      	mov	r6, r0
    293e:	460d      	mov	r5, r1
    2940:	6820      	ldr	r0, [r4, #0]
    2942:	f44f 71fa 	mov.w	r1, #500	; 0x1f4
    2946:	4798      	blx	r3
    2948:	2801      	cmp	r0, #1
    294a:	d118      	bne.n	297e <ConsoleDebugPrint+0x4a>
    294c:	2264      	movs	r2, #100	; 0x64
    294e:	2100      	movs	r1, #0
    2950:	a801      	add	r0, sp, #4
    2952:	4b0e      	ldr	r3, [pc, #56]	; (298c <ConsoleDebugPrint+0x58>)
    2954:	4798      	blx	r3
    2956:	b165      	cbz	r5, 2972 <ConsoleDebugPrint+0x3e>
    2958:	462b      	mov	r3, r5
    295a:	490d      	ldr	r1, [pc, #52]	; (2990 <ConsoleDebugPrint+0x5c>)
    295c:	4d0d      	ldr	r5, [pc, #52]	; (2994 <ConsoleDebugPrint+0x60>)
    295e:	4632      	mov	r2, r6
    2960:	a801      	add	r0, sp, #4
    2962:	47a8      	blx	r5
    2964:	4b0c      	ldr	r3, [pc, #48]	; (2998 <ConsoleDebugPrint+0x64>)
    2966:	a801      	add	r0, sp, #4
    2968:	4798      	blx	r3
    296a:	4b0c      	ldr	r3, [pc, #48]	; (299c <ConsoleDebugPrint+0x68>)
    296c:	b281      	uxth	r1, r0
    296e:	a801      	add	r0, sp, #4
    2970:	4798      	blx	r3
    2972:	2300      	movs	r3, #0
    2974:	6820      	ldr	r0, [r4, #0]
    2976:	4c0a      	ldr	r4, [pc, #40]	; (29a0 <ConsoleDebugPrint+0x6c>)
    2978:	461a      	mov	r2, r3
    297a:	4619      	mov	r1, r3
    297c:	47a0      	blx	r4
    297e:	b01a      	add	sp, #104	; 0x68
    2980:	bd70      	pop	{r4, r5, r6, pc}
    2982:	bf00      	nop
    2984:	20003580 	.word	0x20003580
    2988:	00004805 	.word	0x00004805
    298c:	000059bf 	.word	0x000059bf
    2990:	00008011 	.word	0x00008011
    2994:	00005b49 	.word	0x00005b49
    2998:	00005bbf 	.word	0x00005bbf
    299c:	00002861 	.word	0x00002861
    29a0:	000043dd 	.word	0x000043dd

000029a4 <SERCOM5_2_Handler>:
    29a4:	4b0c      	ldr	r3, [pc, #48]	; (29d8 <SERCOM5_2_Handler+0x34>)
    29a6:	b510      	push	{r4, lr}
    29a8:	2204      	movs	r2, #4
    29aa:	4c0c      	ldr	r4, [pc, #48]	; (29dc <SERCOM5_2_Handler+0x38>)
    29ac:	761a      	strb	r2, [r3, #24]
    29ae:	480c      	ldr	r0, [pc, #48]	; (29e0 <SERCOM5_2_Handler+0x3c>)
    29b0:	47a0      	blx	r4
    29b2:	2800      	cmp	r0, #0
    29b4:	d0fb      	beq.n	29ae <SERCOM5_2_Handler+0xa>
    29b6:	4b0b      	ldr	r3, [pc, #44]	; (29e4 <SERCOM5_2_Handler+0x40>)
    29b8:	4809      	ldr	r0, [pc, #36]	; (29e0 <SERCOM5_2_Handler+0x3c>)
    29ba:	4798      	blx	r3
    29bc:	490a      	ldr	r1, [pc, #40]	; (29e8 <SERCOM5_2_Handler+0x44>)
    29be:	2300      	movs	r3, #0
    29c0:	7008      	strb	r0, [r1, #0]
    29c2:	704b      	strb	r3, [r1, #1]
    29c4:	4809      	ldr	r0, [pc, #36]	; (29ec <SERCOM5_2_Handler+0x48>)
    29c6:	4b0a      	ldr	r3, [pc, #40]	; (29f0 <SERCOM5_2_Handler+0x4c>)
    29c8:	4798      	blx	r3
    29ca:	2105      	movs	r1, #5
    29cc:	4807      	ldr	r0, [pc, #28]	; (29ec <SERCOM5_2_Handler+0x48>)
    29ce:	4b09      	ldr	r3, [pc, #36]	; (29f4 <SERCOM5_2_Handler+0x50>)
    29d0:	e8bd 4010 	ldmia.w	sp!, {r4, lr}
    29d4:	4718      	bx	r3
    29d6:	bf00      	nop
    29d8:	43000400 	.word	0x43000400
    29dc:	00003791 	.word	0x00003791
    29e0:	20000064 	.word	0x20000064
    29e4:	0000377f 	.word	0x0000377f
    29e8:	20003da9 	.word	0x20003da9
    29ec:	20003dab 	.word	0x20003dab
    29f0:	00005baf 	.word	0x00005baf
    29f4:	00002861 	.word	0x00002861

000029f8 <configureWatchDogTimeOut>:
    29f8:	4b04      	ldr	r3, [pc, #16]	; (2a0c <configureWatchDogTimeOut+0x14>)
    29fa:	eb03 0080 	add.w	r0, r3, r0, lsl #2
    29fe:	f44f 717a 	mov.w	r1, #1000	; 0x3e8
    2a02:	8842      	ldrh	r2, [r0, #2]
    2a04:	4b02      	ldr	r3, [pc, #8]	; (2a10 <configureWatchDogTimeOut+0x18>)
    2a06:	4803      	ldr	r0, [pc, #12]	; (2a14 <configureWatchDogTimeOut+0x1c>)
    2a08:	4718      	bx	r3
    2a0a:	bf00      	nop
    2a0c:	20000080 	.word	0x20000080
    2a10:	0000395b 	.word	0x0000395b
    2a14:	20003e84 	.word	0x20003e84

00002a18 <enableWatchDogTimer>:
    2a18:	b510      	push	{r4, lr}
    2a1a:	2002      	movs	r0, #2
    2a1c:	4b03      	ldr	r3, [pc, #12]	; (2a2c <enableWatchDogTimer+0x14>)
    2a1e:	4798      	blx	r3
    2a20:	4803      	ldr	r0, [pc, #12]	; (2a30 <enableWatchDogTimer+0x18>)
    2a22:	4b04      	ldr	r3, [pc, #16]	; (2a34 <enableWatchDogTimer+0x1c>)
    2a24:	e8bd 4010 	ldmia.w	sp!, {r4, lr}
    2a28:	4718      	bx	r3
    2a2a:	bf00      	nop
    2a2c:	000029f9 	.word	0x000029f9
    2a30:	20003e84 	.word	0x20003e84
    2a34:	00003a3f 	.word	0x00003a3f

00002a38 <atmel_start_init>:
    2a38:	b510      	push	{r4, lr}
    2a3a:	4b06      	ldr	r3, [pc, #24]	; (2a54 <atmel_start_init+0x1c>)
    2a3c:	4798      	blx	r3
    2a3e:	4b06      	ldr	r3, [pc, #24]	; (2a58 <atmel_start_init+0x20>)
    2a40:	f44f 707a 	mov.w	r0, #1000	; 0x3e8
    2a44:	4798      	blx	r3
    2a46:	4b05      	ldr	r3, [pc, #20]	; (2a5c <atmel_start_init+0x24>)
    2a48:	2201      	movs	r2, #1
    2a4a:	731a      	strb	r2, [r3, #12]
    2a4c:	e8bd 4010 	ldmia.w	sp!, {r4, lr}
    2a50:	4b03      	ldr	r3, [pc, #12]	; (2a60 <atmel_start_init+0x28>)
    2a52:	4718      	bx	r3
    2a54:	00002dd1 	.word	0x00002dd1
    2a58:	00002ed9 	.word	0x00002ed9
    2a5c:	20000080 	.word	0x20000080
    2a60:	00002a19 	.word	0x00002a19

00002a64 <kickWatchDog>:
    2a64:	4b04      	ldr	r3, [pc, #16]	; (2a78 <kickWatchDog+0x14>)
    2a66:	7b1b      	ldrb	r3, [r3, #12]
    2a68:	2b01      	cmp	r3, #1
    2a6a:	d102      	bne.n	2a72 <kickWatchDog+0xe>
    2a6c:	4803      	ldr	r0, [pc, #12]	; (2a7c <kickWatchDog+0x18>)
    2a6e:	4b04      	ldr	r3, [pc, #16]	; (2a80 <kickWatchDog+0x1c>)
    2a70:	4718      	bx	r3
    2a72:	f06f 0010 	mvn.w	r0, #16
    2a76:	4770      	bx	lr
    2a78:	20000080 	.word	0x20000080
    2a7c:	20003e84 	.word	0x20003e84
    2a80:	00003a7b 	.word	0x00003a7b

00002a84 <requestWatchDogForcedReset>:
    2a84:	b570      	push	{r4, r5, r6, lr}
    2a86:	4d0b      	ldr	r5, [pc, #44]	; (2ab4 <requestWatchDogForcedReset+0x30>)
    2a88:	4c0b      	ldr	r4, [pc, #44]	; (2ab8 <requestWatchDogForcedReset+0x34>)
    2a8a:	4628      	mov	r0, r5
    2a8c:	47a0      	blx	r4
    2a8e:	480b      	ldr	r0, [pc, #44]	; (2abc <requestWatchDogForcedReset+0x38>)
    2a90:	47a0      	blx	r4
    2a92:	4628      	mov	r0, r5
    2a94:	47a0      	blx	r4
    2a96:	4c0a      	ldr	r4, [pc, #40]	; (2ac0 <requestWatchDogForcedReset+0x3c>)
    2a98:	4b0a      	ldr	r3, [pc, #40]	; (2ac4 <requestWatchDogForcedReset+0x40>)
    2a9a:	2500      	movs	r5, #0
    2a9c:	731d      	strb	r5, [r3, #12]
    2a9e:	4620      	mov	r0, r4
    2aa0:	4b09      	ldr	r3, [pc, #36]	; (2ac8 <requestWatchDogForcedReset+0x44>)
    2aa2:	4798      	blx	r3
    2aa4:	4628      	mov	r0, r5
    2aa6:	4b09      	ldr	r3, [pc, #36]	; (2acc <requestWatchDogForcedReset+0x48>)
    2aa8:	4798      	blx	r3
    2aaa:	4620      	mov	r0, r4
    2aac:	4b08      	ldr	r3, [pc, #32]	; (2ad0 <requestWatchDogForcedReset+0x4c>)
    2aae:	e8bd 4070 	ldmia.w	sp!, {r4, r5, r6, lr}
    2ab2:	4718      	bx	r3
    2ab4:	00008026 	.word	0x00008026
    2ab8:	000028a5 	.word	0x000028a5
    2abc:	00008029 	.word	0x00008029
    2ac0:	20003e84 	.word	0x20003e84
    2ac4:	20000080 	.word	0x20000080
    2ac8:	00003a53 	.word	0x00003a53
    2acc:	000029f9 	.word	0x000029f9
    2ad0:	00003a3f 	.word	0x00003a3f

00002ad4 <Reset_Handler>:
    2ad4:	b508      	push	{r3, lr}
    2ad6:	4a14      	ldr	r2, [pc, #80]	; (2b28 <Reset_Handler+0x54>)
    2ad8:	4b14      	ldr	r3, [pc, #80]	; (2b2c <Reset_Handler+0x58>)
    2ada:	429a      	cmp	r2, r3
    2adc:	d118      	bne.n	2b10 <Reset_Handler+0x3c>
    2ade:	4b14      	ldr	r3, [pc, #80]	; (2b30 <Reset_Handler+0x5c>)
    2ae0:	4a14      	ldr	r2, [pc, #80]	; (2b34 <Reset_Handler+0x60>)
    2ae2:	2100      	movs	r1, #0
    2ae4:	4293      	cmp	r3, r2
    2ae6:	d31c      	bcc.n	2b22 <Reset_Handler+0x4e>
    2ae8:	4a13      	ldr	r2, [pc, #76]	; (2b38 <Reset_Handler+0x64>)
    2aea:	4b14      	ldr	r3, [pc, #80]	; (2b3c <Reset_Handler+0x68>)
    2aec:	f022 027f 	bic.w	r2, r2, #127	; 0x7f
    2af0:	609a      	str	r2, [r3, #8]
    2af2:	f8d3 2088 	ldr.w	r2, [r3, #136]	; 0x88
    2af6:	f442 0270 	orr.w	r2, r2, #15728640	; 0xf00000
    2afa:	f8c3 2088 	str.w	r2, [r3, #136]	; 0x88
    2afe:	f3bf 8f4f 	dsb	sy
    2b02:	f3bf 8f6f 	isb	sy
    2b06:	4b0e      	ldr	r3, [pc, #56]	; (2b40 <Reset_Handler+0x6c>)
    2b08:	4798      	blx	r3
    2b0a:	4b0e      	ldr	r3, [pc, #56]	; (2b44 <Reset_Handler+0x70>)
    2b0c:	4798      	blx	r3
    2b0e:	e7fe      	b.n	2b0e <Reset_Handler+0x3a>
    2b10:	490d      	ldr	r1, [pc, #52]	; (2b48 <Reset_Handler+0x74>)
    2b12:	3a04      	subs	r2, #4
    2b14:	428b      	cmp	r3, r1
    2b16:	d2e2      	bcs.n	2ade <Reset_Handler+0xa>
    2b18:	f852 0f04 	ldr.w	r0, [r2, #4]!
    2b1c:	f843 0b04 	str.w	r0, [r3], #4
    2b20:	e7f8      	b.n	2b14 <Reset_Handler+0x40>
    2b22:	f843 1b04 	str.w	r1, [r3], #4
    2b26:	e7dd      	b.n	2ae4 <Reset_Handler+0x10>
    2b28:	000084d0 	.word	0x000084d0
    2b2c:	20000000 	.word	0x20000000
    2b30:	20000270 	.word	0x20000270
    2b34:	20003f88 	.word	0x20003f88
    2b38:	00000000 	.word	0x00000000
    2b3c:	e000ed00 	.word	0xe000ed00
    2b40:	000058e5 	.word	0x000058e5
    2b44:	00003b11 	.word	0x00003b11
    2b48:	20000268 	.word	0x20000268

00002b4c <Dummy_Handler>:
    2b4c:	b508      	push	{r3, lr}
    2b4e:	4802      	ldr	r0, [pc, #8]	; (2b58 <Dummy_Handler+0xc>)
    2b50:	4b02      	ldr	r3, [pc, #8]	; (2b5c <Dummy_Handler+0x10>)
    2b52:	4798      	blx	r3
    2b54:	e7fe      	b.n	2b54 <Dummy_Handler+0x8>
    2b56:	bf00      	nop
    2b58:	00008072 	.word	0x00008072
    2b5c:	000028a5 	.word	0x000028a5

00002b60 <_gpio_set_pin_function>:
    2b60:	b530      	push	{r4, r5, lr}
    2b62:	1c4a      	adds	r2, r1, #1
    2b64:	b2c4      	uxtb	r4, r0
    2b66:	f3c0 1247 	ubfx	r2, r0, #5, #8
    2b6a:	4816      	ldr	r0, [pc, #88]	; (2bc4 <_gpio_set_pin_function+0x64>)
    2b6c:	f004 031f 	and.w	r3, r4, #31
    2b70:	eb00 10c2 	add.w	r0, r0, r2, lsl #7
    2b74:	d107      	bne.n	2b86 <_gpio_set_pin_function+0x26>
    2b76:	4418      	add	r0, r3
    2b78:	f890 3040 	ldrb.w	r3, [r0, #64]	; 0x40
    2b7c:	f003 03fe 	and.w	r3, r3, #254	; 0xfe
    2b80:	f880 3040 	strb.w	r3, [r0, #64]	; 0x40
    2b84:	bd30      	pop	{r4, r5, pc}
    2b86:	18c5      	adds	r5, r0, r3
    2b88:	085b      	lsrs	r3, r3, #1
    2b8a:	f895 2040 	ldrb.w	r2, [r5, #64]	; 0x40
    2b8e:	f002 02fe 	and.w	r2, r2, #254	; 0xfe
    2b92:	4418      	add	r0, r3
    2b94:	f042 0201 	orr.w	r2, r2, #1
    2b98:	f885 2040 	strb.w	r2, [r5, #64]	; 0x40
    2b9c:	f890 3030 	ldrb.w	r3, [r0, #48]	; 0x30
    2ba0:	f014 0f01 	tst.w	r4, #1
    2ba4:	bf19      	ittee	ne
    2ba6:	f003 030f 	andne.w	r3, r3, #15
    2baa:	ea43 1101 	orrne.w	r1, r3, r1, lsl #4
    2bae:	f001 010f 	andeq.w	r1, r1, #15
    2bb2:	f003 03f0 	andeq.w	r3, r3, #240	; 0xf0
    2bb6:	bf14      	ite	ne
    2bb8:	b2c9      	uxtbne	r1, r1
    2bba:	4319      	orreq	r1, r3
    2bbc:	f880 1030 	strb.w	r1, [r0, #48]	; 0x30
    2bc0:	bd30      	pop	{r4, r5, pc}
    2bc2:	bf00      	nop
    2bc4:	41008000 	.word	0x41008000

00002bc8 <gpio_set_pin_direction.constprop.0>:
    2bc8:	f000 021f 	and.w	r2, r0, #31
    2bcc:	0940      	lsrs	r0, r0, #5
    2bce:	01c0      	lsls	r0, r0, #7
    2bd0:	f100 4082 	add.w	r0, r0, #1090519040	; 0x41000000
    2bd4:	f500 4000 	add.w	r0, r0, #32768	; 0x8000
    2bd8:	2301      	movs	r3, #1
    2bda:	4093      	lsls	r3, r2
    2bdc:	6043      	str	r3, [r0, #4]
    2bde:	b29a      	uxth	r2, r3
    2be0:	0c1b      	lsrs	r3, r3, #16
    2be2:	f042 4280 	orr.w	r2, r2, #1073741824	; 0x40000000
    2be6:	f043 4340 	orr.w	r3, r3, #3221225472	; 0xc0000000
    2bea:	6282      	str	r2, [r0, #40]	; 0x28
    2bec:	6283      	str	r3, [r0, #40]	; 0x28
    2bee:	4770      	bx	lr

00002bf0 <ADC_0_PORT_init>:
    2bf0:	b570      	push	{r4, r5, r6, lr}
    2bf2:	2002      	movs	r0, #2
    2bf4:	4d15      	ldr	r5, [pc, #84]	; (2c4c <ADC_0_PORT_init+0x5c>)
    2bf6:	4c16      	ldr	r4, [pc, #88]	; (2c50 <ADC_0_PORT_init+0x60>)
    2bf8:	47a8      	blx	r5
    2bfa:	4916      	ldr	r1, [pc, #88]	; (2c54 <ADC_0_PORT_init+0x64>)
    2bfc:	2002      	movs	r0, #2
    2bfe:	47a0      	blx	r4
    2c00:	2003      	movs	r0, #3
    2c02:	47a8      	blx	r5
    2c04:	4914      	ldr	r1, [pc, #80]	; (2c58 <ADC_0_PORT_init+0x68>)
    2c06:	2003      	movs	r0, #3
    2c08:	47a0      	blx	r4
    2c0a:	2028      	movs	r0, #40	; 0x28
    2c0c:	47a8      	blx	r5
    2c0e:	4913      	ldr	r1, [pc, #76]	; (2c5c <ADC_0_PORT_init+0x6c>)
    2c10:	2028      	movs	r0, #40	; 0x28
    2c12:	47a0      	blx	r4
    2c14:	2029      	movs	r0, #41	; 0x29
    2c16:	47a8      	blx	r5
    2c18:	4911      	ldr	r1, [pc, #68]	; (2c60 <ADC_0_PORT_init+0x70>)
    2c1a:	2029      	movs	r0, #41	; 0x29
    2c1c:	47a0      	blx	r4
    2c1e:	2004      	movs	r0, #4
    2c20:	47a8      	blx	r5
    2c22:	4910      	ldr	r1, [pc, #64]	; (2c64 <ADC_0_PORT_init+0x74>)
    2c24:	2004      	movs	r0, #4
    2c26:	47a0      	blx	r4
    2c28:	2005      	movs	r0, #5
    2c2a:	47a8      	blx	r5
    2c2c:	490e      	ldr	r1, [pc, #56]	; (2c68 <ADC_0_PORT_init+0x78>)
    2c2e:	2005      	movs	r0, #5
    2c30:	47a0      	blx	r4
    2c32:	2006      	movs	r0, #6
    2c34:	47a8      	blx	r5
    2c36:	490d      	ldr	r1, [pc, #52]	; (2c6c <ADC_0_PORT_init+0x7c>)
    2c38:	2006      	movs	r0, #6
    2c3a:	47a0      	blx	r4
    2c3c:	2007      	movs	r0, #7
    2c3e:	47a8      	blx	r5
    2c40:	4623      	mov	r3, r4
    2c42:	490b      	ldr	r1, [pc, #44]	; (2c70 <ADC_0_PORT_init+0x80>)
    2c44:	2007      	movs	r0, #7
    2c46:	e8bd 4070 	ldmia.w	sp!, {r4, r5, r6, lr}
    2c4a:	4718      	bx	r3
    2c4c:	00002bc9 	.word	0x00002bc9
    2c50:	00002b61 	.word	0x00002b61
    2c54:	00020001 	.word	0x00020001
    2c58:	00030001 	.word	0x00030001
    2c5c:	00280001 	.word	0x00280001
    2c60:	00290001 	.word	0x00290001
    2c64:	00040001 	.word	0x00040001
    2c68:	00050001 	.word	0x00050001
    2c6c:	00060001 	.word	0x00060001
    2c70:	00070001 	.word	0x00070001

00002c74 <ADC_0_CLOCK_init>:
    2c74:	4a04      	ldr	r2, [pc, #16]	; (2c88 <ADC_0_CLOCK_init+0x14>)
    2c76:	6a13      	ldr	r3, [r2, #32]
    2c78:	f043 0380 	orr.w	r3, r3, #128	; 0x80
    2c7c:	6213      	str	r3, [r2, #32]
    2c7e:	4b03      	ldr	r3, [pc, #12]	; (2c8c <ADC_0_CLOCK_init+0x18>)
    2c80:	2241      	movs	r2, #65	; 0x41
    2c82:	f8c3 2120 	str.w	r2, [r3, #288]	; 0x120
    2c86:	4770      	bx	lr
    2c88:	40000800 	.word	0x40000800
    2c8c:	40001c00 	.word	0x40001c00

00002c90 <ADC_0_init>:
    2c90:	b510      	push	{r4, lr}
    2c92:	4b05      	ldr	r3, [pc, #20]	; (2ca8 <ADC_0_init+0x18>)
    2c94:	4798      	blx	r3
    2c96:	4b05      	ldr	r3, [pc, #20]	; (2cac <ADC_0_init+0x1c>)
    2c98:	4905      	ldr	r1, [pc, #20]	; (2cb0 <ADC_0_init+0x20>)
    2c9a:	4806      	ldr	r0, [pc, #24]	; (2cb4 <ADC_0_init+0x24>)
    2c9c:	2200      	movs	r2, #0
    2c9e:	4798      	blx	r3
    2ca0:	4b05      	ldr	r3, [pc, #20]	; (2cb8 <ADC_0_init+0x28>)
    2ca2:	e8bd 4010 	ldmia.w	sp!, {r4, lr}
    2ca6:	4718      	bx	r3
    2ca8:	00002c75 	.word	0x00002c75
    2cac:	00002e09 	.word	0x00002e09
    2cb0:	43001c00 	.word	0x43001c00
    2cb4:	20003e60 	.word	0x20003e60
    2cb8:	00002bf1 	.word	0x00002bf1

00002cbc <ModemData_PORT_init>:
    2cbc:	b510      	push	{r4, lr}
    2cbe:	4c05      	ldr	r4, [pc, #20]	; (2cd4 <ModemData_PORT_init+0x18>)
    2cc0:	4905      	ldr	r1, [pc, #20]	; (2cd8 <ModemData_PORT_init+0x1c>)
    2cc2:	2011      	movs	r0, #17
    2cc4:	47a0      	blx	r4
    2cc6:	4623      	mov	r3, r4
    2cc8:	4904      	ldr	r1, [pc, #16]	; (2cdc <ModemData_PORT_init+0x20>)
    2cca:	2012      	movs	r0, #18
    2ccc:	e8bd 4010 	ldmia.w	sp!, {r4, lr}
    2cd0:	4718      	bx	r3
    2cd2:	bf00      	nop
    2cd4:	00002b61 	.word	0x00002b61
    2cd8:	00110003 	.word	0x00110003
    2cdc:	00120003 	.word	0x00120003

00002ce0 <ModemData_CLOCK_init>:
    2ce0:	4b06      	ldr	r3, [pc, #24]	; (2cfc <ModemData_CLOCK_init+0x1c>)
    2ce2:	2240      	movs	r2, #64	; 0x40
    2ce4:	f8c3 20e0 	str.w	r2, [r3, #224]	; 0xe0
    2ce8:	224a      	movs	r2, #74	; 0x4a
    2cea:	f8c3 208c 	str.w	r2, [r3, #140]	; 0x8c
    2cee:	4a04      	ldr	r2, [pc, #16]	; (2d00 <ModemData_CLOCK_init+0x20>)
    2cf0:	6993      	ldr	r3, [r2, #24]
    2cf2:	f443 6380 	orr.w	r3, r3, #1024	; 0x400
    2cf6:	6193      	str	r3, [r2, #24]
    2cf8:	4770      	bx	lr
    2cfa:	bf00      	nop
    2cfc:	40001c00 	.word	0x40001c00
    2d00:	40000800 	.word	0x40000800

00002d04 <ModemData_init>:
    2d04:	b510      	push	{r4, lr}
    2d06:	4b04      	ldr	r3, [pc, #16]	; (2d18 <ModemData_init+0x14>)
    2d08:	4798      	blx	r3
    2d0a:	4b04      	ldr	r3, [pc, #16]	; (2d1c <ModemData_init+0x18>)
    2d0c:	4798      	blx	r3
    2d0e:	4b04      	ldr	r3, [pc, #16]	; (2d20 <ModemData_init+0x1c>)
    2d10:	e8bd 4010 	ldmia.w	sp!, {r4, lr}
    2d14:	4718      	bx	r3
    2d16:	bf00      	nop
    2d18:	00002ce1 	.word	0x00002ce1
    2d1c:	00001ed5 	.word	0x00001ed5
    2d20:	00002cbd 	.word	0x00002cbd

00002d24 <SerialDebug_PORT_init>:
    2d24:	b510      	push	{r4, lr}
    2d26:	4c05      	ldr	r4, [pc, #20]	; (2d3c <SerialDebug_PORT_init+0x18>)
    2d28:	4905      	ldr	r1, [pc, #20]	; (2d40 <SerialDebug_PORT_init+0x1c>)
    2d2a:	2017      	movs	r0, #23
    2d2c:	47a0      	blx	r4
    2d2e:	4623      	mov	r3, r4
    2d30:	4904      	ldr	r1, [pc, #16]	; (2d44 <SerialDebug_PORT_init+0x20>)
    2d32:	2037      	movs	r0, #55	; 0x37
    2d34:	e8bd 4010 	ldmia.w	sp!, {r4, lr}
    2d38:	4718      	bx	r3
    2d3a:	bf00      	nop
    2d3c:	00002b61 	.word	0x00002b61
    2d40:	00170003 	.word	0x00170003
    2d44:	00370003 	.word	0x00370003

00002d48 <SerialDebug_CLOCK_init>:
    2d48:	4b06      	ldr	r3, [pc, #24]	; (2d64 <SerialDebug_CLOCK_init+0x1c>)
    2d4a:	2240      	movs	r2, #64	; 0x40
    2d4c:	f8c3 210c 	str.w	r2, [r3, #268]	; 0x10c
    2d50:	224a      	movs	r2, #74	; 0x4a
    2d52:	f8c3 208c 	str.w	r2, [r3, #140]	; 0x8c
    2d56:	4a04      	ldr	r2, [pc, #16]	; (2d68 <SerialDebug_CLOCK_init+0x20>)
    2d58:	6a13      	ldr	r3, [r2, #32]
    2d5a:	f043 0302 	orr.w	r3, r3, #2
    2d5e:	6213      	str	r3, [r2, #32]
    2d60:	4770      	bx	lr
    2d62:	bf00      	nop
    2d64:	40001c00 	.word	0x40001c00
    2d68:	40000800 	.word	0x40000800

00002d6c <SerialDebug_init>:
    2d6c:	b510      	push	{r4, lr}
    2d6e:	4b04      	ldr	r3, [pc, #16]	; (2d80 <SerialDebug_init+0x14>)
    2d70:	4798      	blx	r3
    2d72:	4b04      	ldr	r3, [pc, #16]	; (2d84 <SerialDebug_init+0x18>)
    2d74:	4798      	blx	r3
    2d76:	4b04      	ldr	r3, [pc, #16]	; (2d88 <SerialDebug_init+0x1c>)
    2d78:	e8bd 4010 	ldmia.w	sp!, {r4, lr}
    2d7c:	4718      	bx	r3
    2d7e:	bf00      	nop
    2d80:	00002d49 	.word	0x00002d49
    2d84:	00002835 	.word	0x00002835
    2d88:	00002d25 	.word	0x00002d25

00002d8c <delay_driver_init>:
    2d8c:	4801      	ldr	r0, [pc, #4]	; (2d94 <delay_driver_init+0x8>)
    2d8e:	4b02      	ldr	r3, [pc, #8]	; (2d98 <delay_driver_init+0xc>)
    2d90:	4718      	bx	r3
    2d92:	bf00      	nop
    2d94:	e000e010 	.word	0xe000e010
    2d98:	00002ec9 	.word	0x00002ec9

00002d9c <WDT_0_CLOCK_init>:
    2d9c:	4a02      	ldr	r2, [pc, #8]	; (2da8 <WDT_0_CLOCK_init+0xc>)
    2d9e:	6953      	ldr	r3, [r2, #20]
    2da0:	f443 7380 	orr.w	r3, r3, #256	; 0x100
    2da4:	6153      	str	r3, [r2, #20]
    2da6:	4770      	bx	lr
    2da8:	40000800 	.word	0x40000800

00002dac <WDT_0_init>:
    2dac:	b510      	push	{r4, lr}
    2dae:	4b04      	ldr	r3, [pc, #16]	; (2dc0 <WDT_0_init+0x14>)
    2db0:	4798      	blx	r3
    2db2:	4804      	ldr	r0, [pc, #16]	; (2dc4 <WDT_0_init+0x18>)
    2db4:	4b04      	ldr	r3, [pc, #16]	; (2dc8 <WDT_0_init+0x1c>)
    2db6:	6003      	str	r3, [r0, #0]
    2db8:	e8bd 4010 	ldmia.w	sp!, {r4, lr}
    2dbc:	4b03      	ldr	r3, [pc, #12]	; (2dcc <WDT_0_init+0x20>)
    2dbe:	4718      	bx	r3
    2dc0:	00002d9d 	.word	0x00002d9d
    2dc4:	20003e84 	.word	0x20003e84
    2dc8:	40002000 	.word	0x40002000
    2dcc:	0000391d 	.word	0x0000391d

00002dd0 <system_init>:
    2dd0:	b510      	push	{r4, lr}
    2dd2:	4b07      	ldr	r3, [pc, #28]	; (2df0 <system_init+0x20>)
    2dd4:	4798      	blx	r3
    2dd6:	4b07      	ldr	r3, [pc, #28]	; (2df4 <system_init+0x24>)
    2dd8:	4798      	blx	r3
    2dda:	4b07      	ldr	r3, [pc, #28]	; (2df8 <system_init+0x28>)
    2ddc:	4798      	blx	r3
    2dde:	4b07      	ldr	r3, [pc, #28]	; (2dfc <system_init+0x2c>)
    2de0:	4798      	blx	r3
    2de2:	4b07      	ldr	r3, [pc, #28]	; (2e00 <system_init+0x30>)
    2de4:	4798      	blx	r3
    2de6:	4b07      	ldr	r3, [pc, #28]	; (2e04 <system_init+0x34>)
    2de8:	e8bd 4010 	ldmia.w	sp!, {r4, lr}
    2dec:	4718      	bx	r3
    2dee:	bf00      	nop
    2df0:	00003231 	.word	0x00003231
    2df4:	00002d8d 	.word	0x00002d8d
    2df8:	00002c91 	.word	0x00002c91
    2dfc:	00002d6d 	.word	0x00002d6d
    2e00:	00002d05 	.word	0x00002d05
    2e04:	00002dad 	.word	0x00002dad

00002e08 <adc_sync_init>:
    2e08:	4b00      	ldr	r3, [pc, #0]	; (2e0c <adc_sync_init+0x4>)
    2e0a:	4718      	bx	r3
    2e0c:	0000312d 	.word	0x0000312d

00002e10 <adc_sync_enable_channel>:
    2e10:	b508      	push	{r3, lr}
    2e12:	4b02      	ldr	r3, [pc, #8]	; (2e1c <adc_sync_enable_channel+0xc>)
    2e14:	4798      	blx	r3
    2e16:	2000      	movs	r0, #0
    2e18:	bd08      	pop	{r3, pc}
    2e1a:	bf00      	nop
    2e1c:	000031a9 	.word	0x000031a9

00002e20 <adc_sync_disable_channel>:
    2e20:	b508      	push	{r3, lr}
    2e22:	4b02      	ldr	r3, [pc, #8]	; (2e2c <adc_sync_disable_channel+0xc>)
    2e24:	4798      	blx	r3
    2e26:	2000      	movs	r0, #0
    2e28:	bd08      	pop	{r3, pc}
    2e2a:	bf00      	nop
    2e2c:	000031b5 	.word	0x000031b5

00002e30 <adc_sync_read_channel>:
    2e30:	e92d 4ff8 	stmdb	sp!, {r3, r4, r5, r6, r7, r8, r9, sl, fp, lr}
    2e34:	4698      	mov	r8, r3
    2e36:	4b15      	ldr	r3, [pc, #84]	; (2e8c <adc_sync_read_channel+0x5c>)
    2e38:	f8df 9058 	ldr.w	r9, [pc, #88]	; 2e94 <adc_sync_read_channel+0x64>
    2e3c:	f8df b058 	ldr.w	fp, [pc, #88]	; 2e98 <adc_sync_read_channel+0x68>
    2e40:	4604      	mov	r4, r0
    2e42:	460e      	mov	r6, r1
    2e44:	4617      	mov	r7, r2
    2e46:	4798      	blx	r3
    2e48:	f04f 0a00 	mov.w	sl, #0
    2e4c:	4605      	mov	r5, r0
    2e4e:	4620      	mov	r0, r4
    2e50:	47c8      	blx	r9
    2e52:	4631      	mov	r1, r6
    2e54:	4620      	mov	r0, r4
    2e56:	4b0e      	ldr	r3, [pc, #56]	; (2e90 <adc_sync_read_channel+0x60>)
    2e58:	4798      	blx	r3
    2e5a:	2800      	cmp	r0, #0
    2e5c:	d0f9      	beq.n	2e52 <adc_sync_read_channel+0x22>
    2e5e:	4631      	mov	r1, r6
    2e60:	4620      	mov	r0, r4
    2e62:	47d8      	blx	fp
    2e64:	2d01      	cmp	r5, #1
    2e66:	bf88      	it	hi
    2e68:	eb07 020a 	addhi.w	r2, r7, sl
    2e6c:	eb0a 0305 	add.w	r3, sl, r5
    2e70:	f807 000a 	strb.w	r0, [r7, sl]
    2e74:	bf88      	it	hi
    2e76:	0a00      	lsrhi	r0, r0, #8
    2e78:	fa1f fa83 	uxth.w	sl, r3
    2e7c:	bf88      	it	hi
    2e7e:	7050      	strbhi	r0, [r2, #1]
    2e80:	45d0      	cmp	r8, sl
    2e82:	d8e4      	bhi.n	2e4e <adc_sync_read_channel+0x1e>
    2e84:	4650      	mov	r0, sl
    2e86:	e8bd 8ff8 	ldmia.w	sp!, {r3, r4, r5, r6, r7, r8, r9, sl, fp, pc}
    2e8a:	bf00      	nop
    2e8c:	000031c1 	.word	0x000031c1
    2e90:	000031d3 	.word	0x000031d3
    2e94:	000031e1 	.word	0x000031e1
    2e98:	000031fd 	.word	0x000031fd

00002e9c <adc_sync_set_inputs>:
    2e9c:	b510      	push	{r4, lr}
    2e9e:	4c02      	ldr	r4, [pc, #8]	; (2ea8 <adc_sync_set_inputs+0xc>)
    2ea0:	47a0      	blx	r4
    2ea2:	2000      	movs	r0, #0
    2ea4:	bd10      	pop	{r4, pc}
    2ea6:	bf00      	nop
    2ea8:	00003209 	.word	0x00003209

00002eac <atomic_enter_critical>:
    2eac:	f3ef 8310 	mrs	r3, PRIMASK
    2eb0:	6003      	str	r3, [r0, #0]
    2eb2:	b672      	cpsid	i
    2eb4:	f3bf 8f5f 	dmb	sy
    2eb8:	4770      	bx	lr

00002eba <atomic_leave_critical>:
    2eba:	f3bf 8f5f 	dmb	sy
    2ebe:	6803      	ldr	r3, [r0, #0]
    2ec0:	f383 8810 	msr	PRIMASK, r3
    2ec4:	4770      	bx	lr
	...

00002ec8 <delay_init>:
    2ec8:	4b01      	ldr	r3, [pc, #4]	; (2ed0 <delay_init+0x8>)
    2eca:	6018      	str	r0, [r3, #0]
    2ecc:	4b01      	ldr	r3, [pc, #4]	; (2ed4 <delay_init+0xc>)
    2ece:	4718      	bx	r3
    2ed0:	20000634 	.word	0x20000634
    2ed4:	000037cd 	.word	0x000037cd

00002ed8 <delay_ms>:
    2ed8:	4b05      	ldr	r3, [pc, #20]	; (2ef0 <delay_ms+0x18>)
    2eda:	b510      	push	{r4, lr}
    2edc:	681c      	ldr	r4, [r3, #0]
    2ede:	4b05      	ldr	r3, [pc, #20]	; (2ef4 <delay_ms+0x1c>)
    2ee0:	4798      	blx	r3
    2ee2:	4b05      	ldr	r3, [pc, #20]	; (2ef8 <delay_ms+0x20>)
    2ee4:	4601      	mov	r1, r0
    2ee6:	4620      	mov	r0, r4
    2ee8:	e8bd 4010 	ldmia.w	sp!, {r4, lr}
    2eec:	4718      	bx	r3
    2eee:	bf00      	nop
    2ef0:	20000634 	.word	0x20000634
    2ef4:	00003229 	.word	0x00003229
    2ef8:	000037e1 	.word	0x000037e1

00002efc <ringbuffer_init>:
    2efc:	1e53      	subs	r3, r2, #1
    2efe:	401a      	ands	r2, r3
    2f00:	bf01      	itttt	eq
    2f02:	6043      	streq	r3, [r0, #4]
    2f04:	6082      	streq	r2, [r0, #8]
    2f06:	60c2      	streq	r2, [r0, #12]
    2f08:	6001      	streq	r1, [r0, #0]
    2f0a:	bf0c      	ite	eq
    2f0c:	4610      	moveq	r0, r2
    2f0e:	f06f 000c 	mvnne.w	r0, #12
    2f12:	4770      	bx	lr

00002f14 <ringbuffer_get>:
    2f14:	6883      	ldr	r3, [r0, #8]
    2f16:	68c2      	ldr	r2, [r0, #12]
    2f18:	429a      	cmp	r2, r3
    2f1a:	d009      	beq.n	2f30 <ringbuffer_get+0x1c>
    2f1c:	6842      	ldr	r2, [r0, #4]
    2f1e:	4013      	ands	r3, r2
    2f20:	6802      	ldr	r2, [r0, #0]
    2f22:	5cd3      	ldrb	r3, [r2, r3]
    2f24:	700b      	strb	r3, [r1, #0]
    2f26:	6883      	ldr	r3, [r0, #8]
    2f28:	3301      	adds	r3, #1
    2f2a:	6083      	str	r3, [r0, #8]
    2f2c:	2000      	movs	r0, #0
    2f2e:	4770      	bx	lr
    2f30:	f06f 0009 	mvn.w	r0, #9
    2f34:	4770      	bx	lr

00002f36 <ringbuffer_put>:
    2f36:	68c3      	ldr	r3, [r0, #12]
    2f38:	6842      	ldr	r2, [r0, #4]
    2f3a:	4013      	ands	r3, r2
    2f3c:	6802      	ldr	r2, [r0, #0]
    2f3e:	54d1      	strb	r1, [r2, r3]
    2f40:	68c3      	ldr	r3, [r0, #12]
    2f42:	6881      	ldr	r1, [r0, #8]
    2f44:	6842      	ldr	r2, [r0, #4]
    2f46:	1a59      	subs	r1, r3, r1
    2f48:	4291      	cmp	r1, r2
    2f4a:	bf88      	it	hi
    2f4c:	1a9a      	subhi	r2, r3, r2
    2f4e:	f103 0301 	add.w	r3, r3, #1
    2f52:	bf88      	it	hi
    2f54:	6082      	strhi	r2, [r0, #8]
    2f56:	60c3      	str	r3, [r0, #12]
    2f58:	2000      	movs	r0, #0
    2f5a:	4770      	bx	lr

00002f5c <ringbuffer_num>:
    2f5c:	68c2      	ldr	r2, [r0, #12]
    2f5e:	6880      	ldr	r0, [r0, #8]
    2f60:	1a10      	subs	r0, r2, r0
    2f62:	4770      	bx	lr

00002f64 <ringbuffer_flush>:
    2f64:	68c3      	ldr	r3, [r0, #12]
    2f66:	6083      	str	r3, [r0, #8]
    2f68:	2000      	movs	r0, #0
    2f6a:	4770      	bx	lr

00002f6c <_sbrk>:
    2f6c:	4b04      	ldr	r3, [pc, #16]	; (2f80 <_sbrk+0x14>)
    2f6e:	6819      	ldr	r1, [r3, #0]
    2f70:	4602      	mov	r2, r0
    2f72:	b909      	cbnz	r1, 2f78 <_sbrk+0xc>
    2f74:	4903      	ldr	r1, [pc, #12]	; (2f84 <_sbrk+0x18>)
    2f76:	6019      	str	r1, [r3, #0]
    2f78:	6818      	ldr	r0, [r3, #0]
    2f7a:	4402      	add	r2, r0
    2f7c:	601a      	str	r2, [r3, #0]
    2f7e:	4770      	bx	lr
    2f80:	20000638 	.word	0x20000638
    2f84:	20013f88 	.word	0x20013f88

00002f88 <__NVIC_EnableIRQ>:
    2f88:	2800      	cmp	r0, #0
    2f8a:	db08      	blt.n	2f9e <__NVIC_EnableIRQ+0x16>
    2f8c:	0942      	lsrs	r2, r0, #5
    2f8e:	2301      	movs	r3, #1
    2f90:	f000 001f 	and.w	r0, r0, #31
    2f94:	fa03 f000 	lsl.w	r0, r3, r0
    2f98:	4b01      	ldr	r3, [pc, #4]	; (2fa0 <__NVIC_EnableIRQ+0x18>)
    2f9a:	f843 0022 	str.w	r0, [r3, r2, lsl #2]
    2f9e:	4770      	bx	lr
    2fa0:	e000e100 	.word	0xe000e100

00002fa4 <__NVIC_DisableIRQ>:
    2fa4:	2800      	cmp	r0, #0
    2fa6:	db0d      	blt.n	2fc4 <__NVIC_DisableIRQ+0x20>
    2fa8:	0943      	lsrs	r3, r0, #5
    2faa:	2201      	movs	r2, #1
    2fac:	f000 001f 	and.w	r0, r0, #31
    2fb0:	fa02 f000 	lsl.w	r0, r2, r0
    2fb4:	3320      	adds	r3, #32
    2fb6:	4a04      	ldr	r2, [pc, #16]	; (2fc8 <__NVIC_DisableIRQ+0x24>)
    2fb8:	f842 0023 	str.w	r0, [r2, r3, lsl #2]
    2fbc:	f3bf 8f4f 	dsb	sy
    2fc0:	f3bf 8f6f 	isb	sy
    2fc4:	4770      	bx	lr
    2fc6:	bf00      	nop
    2fc8:	e000e100 	.word	0xe000e100

00002fcc <__NVIC_ClearPendingIRQ>:
    2fcc:	2800      	cmp	r0, #0
    2fce:	db09      	blt.n	2fe4 <__NVIC_ClearPendingIRQ+0x18>
    2fd0:	0943      	lsrs	r3, r0, #5
    2fd2:	2201      	movs	r2, #1
    2fd4:	f000 001f 	and.w	r0, r0, #31
    2fd8:	fa02 f000 	lsl.w	r0, r2, r0
    2fdc:	3360      	adds	r3, #96	; 0x60
    2fde:	4a02      	ldr	r2, [pc, #8]	; (2fe8 <__NVIC_ClearPendingIRQ+0x1c>)
    2fe0:	f842 0023 	str.w	r0, [r2, r3, lsl #2]
    2fe4:	4770      	bx	lr
    2fe6:	bf00      	nop
    2fe8:	e000e100 	.word	0xe000e100

00002fec <hri_adc_wait_for_sync>:
    2fec:	6b03      	ldr	r3, [r0, #48]	; 0x30
    2fee:	420b      	tst	r3, r1
    2ff0:	d1fc      	bne.n	2fec <hri_adc_wait_for_sync>
    2ff2:	4770      	bx	lr

00002ff4 <hri_adc_set_CTRLA_SWRST_bit>:
    2ff4:	b508      	push	{r3, lr}
    2ff6:	2101      	movs	r1, #1
    2ff8:	4b03      	ldr	r3, [pc, #12]	; (3008 <hri_adc_set_CTRLA_SWRST_bit+0x14>)
    2ffa:	4798      	blx	r3
    2ffc:	8803      	ldrh	r3, [r0, #0]
    2ffe:	b29b      	uxth	r3, r3
    3000:	f043 0301 	orr.w	r3, r3, #1
    3004:	8003      	strh	r3, [r0, #0]
    3006:	bd08      	pop	{r3, pc}
    3008:	00002fed 	.word	0x00002fed

0000300c <hri_adc_set_CTRLA_ENABLE_bit>:
    300c:	b508      	push	{r3, lr}
    300e:	2103      	movs	r1, #3
    3010:	4b03      	ldr	r3, [pc, #12]	; (3020 <hri_adc_set_CTRLA_ENABLE_bit+0x14>)
    3012:	4798      	blx	r3
    3014:	8803      	ldrh	r3, [r0, #0]
    3016:	b29b      	uxth	r3, r3
    3018:	f043 0302 	orr.w	r3, r3, #2
    301c:	8003      	strh	r3, [r0, #0]
    301e:	bd08      	pop	{r3, pc}
    3020:	00002fed 	.word	0x00002fed

00003024 <hri_adc_clear_CTRLA_ENABLE_bit>:
    3024:	b508      	push	{r3, lr}
    3026:	2103      	movs	r1, #3
    3028:	4b04      	ldr	r3, [pc, #16]	; (303c <hri_adc_clear_CTRLA_ENABLE_bit+0x18>)
    302a:	4798      	blx	r3
    302c:	8803      	ldrh	r3, [r0, #0]
    302e:	f023 0302 	bic.w	r3, r3, #2
    3032:	041b      	lsls	r3, r3, #16
    3034:	0c1b      	lsrs	r3, r3, #16
    3036:	8003      	strh	r3, [r0, #0]
    3038:	bd08      	pop	{r3, pc}
    303a:	bf00      	nop
    303c:	00002fed 	.word	0x00002fed

00003040 <hri_adc_write_INPUTCTRL_MUXPOS_bf>:
    3040:	460a      	mov	r2, r1
    3042:	4b07      	ldr	r3, [pc, #28]	; (3060 <hri_adc_write_INPUTCTRL_MUXPOS_bf+0x20>)
    3044:	b510      	push	{r4, lr}
    3046:	f640 71ff 	movw	r1, #4095	; 0xfff
    304a:	4798      	blx	r3
    304c:	8883      	ldrh	r3, [r0, #4]
    304e:	f023 031f 	bic.w	r3, r3, #31
    3052:	041b      	lsls	r3, r3, #16
    3054:	0c1b      	lsrs	r3, r3, #16
    3056:	f002 021f 	and.w	r2, r2, #31
    305a:	4313      	orrs	r3, r2
    305c:	8083      	strh	r3, [r0, #4]
    305e:	bd10      	pop	{r4, pc}
    3060:	00002fed 	.word	0x00002fed

00003064 <hri_adc_write_INPUTCTRL_MUXNEG_bf>:
    3064:	460a      	mov	r2, r1
    3066:	4b08      	ldr	r3, [pc, #32]	; (3088 <hri_adc_write_INPUTCTRL_MUXNEG_bf+0x24>)
    3068:	b510      	push	{r4, lr}
    306a:	f640 71ff 	movw	r1, #4095	; 0xfff
    306e:	4798      	blx	r3
    3070:	8883      	ldrh	r3, [r0, #4]
    3072:	f423 53f8 	bic.w	r3, r3, #7936	; 0x1f00
    3076:	041b      	lsls	r3, r3, #16
    3078:	0212      	lsls	r2, r2, #8
    307a:	0c1b      	lsrs	r3, r3, #16
    307c:	f402 52f8 	and.w	r2, r2, #7936	; 0x1f00
    3080:	4313      	orrs	r3, r2
    3082:	8083      	strh	r3, [r0, #4]
    3084:	bd10      	pop	{r4, pc}
    3086:	bf00      	nop
    3088:	00002fed 	.word	0x00002fed

0000308c <_adc_get_regs>:
    308c:	f100 403d 	add.w	r0, r0, #3170893824	; 0xbd000000
    3090:	f5a0 50e0 	sub.w	r0, r0, #7168	; 0x1c00
    3094:	f3c0 2087 	ubfx	r0, r0, #10, #8
    3098:	1e43      	subs	r3, r0, #1
    309a:	4258      	negs	r0, r3
    309c:	4158      	adcs	r0, r3
    309e:	4770      	bx	lr

000030a0 <_adc_init>:
    30a0:	b570      	push	{r4, r5, r6, lr}
    30a2:	4e19      	ldr	r6, [pc, #100]	; (3108 <_adc_init+0x68>)
    30a4:	460c      	mov	r4, r1
    30a6:	2101      	movs	r1, #1
    30a8:	4602      	mov	r2, r0
    30aa:	47b0      	blx	r6
    30ac:	2103      	movs	r1, #3
    30ae:	47b0      	blx	r6
    30b0:	8805      	ldrh	r5, [r0, #0]
    30b2:	f3c5 0540 	ubfx	r5, r5, #1, #1
    30b6:	bb25      	cbnz	r5, 3102 <_adc_init+0x62>
    30b8:	4b14      	ldr	r3, [pc, #80]	; (310c <_adc_init+0x6c>)
    30ba:	4798      	blx	r3
    30bc:	2101      	movs	r1, #1
    30be:	47b0      	blx	r6
    30c0:	4b13      	ldr	r3, [pc, #76]	; (3110 <_adc_init+0x70>)
    30c2:	2101      	movs	r1, #1
    30c4:	80d9      	strh	r1, [r3, #6]
    30c6:	2103      	movs	r1, #3
    30c8:	7219      	strb	r1, [r3, #8]
    30ca:	4912      	ldr	r1, [pc, #72]	; (3114 <_adc_init+0x74>)
    30cc:	2016      	movs	r0, #22
    30ce:	fb00 1104 	mla	r1, r0, r4, r1
    30d2:	79c8      	ldrb	r0, [r1, #7]
    30d4:	7090      	strb	r0, [r2, #2]
    30d6:	f44f 50c0 	mov.w	r0, #6144	; 0x1800
    30da:	8098      	strh	r0, [r3, #4]
    30dc:	2049      	movs	r0, #73	; 0x49
    30de:	7298      	strb	r0, [r3, #10]
    30e0:	2006      	movs	r0, #6
    30e2:	72d8      	strb	r0, [r3, #11]
    30e4:	8988      	ldrh	r0, [r1, #12]
    30e6:	8190      	strh	r0, [r2, #12]
    30e8:	89c8      	ldrh	r0, [r1, #14]
    30ea:	81d0      	strh	r0, [r2, #14]
    30ec:	8a08      	ldrh	r0, [r1, #16]
    30ee:	8210      	strh	r0, [r2, #16]
    30f0:	8a48      	ldrh	r0, [r1, #18]
    30f2:	7d09      	ldrb	r1, [r1, #20]
    30f4:	8250      	strh	r0, [r2, #18]
    30f6:	70d1      	strb	r1, [r2, #3]
    30f8:	f248 52c2 	movw	r2, #34242	; 0x85c2
    30fc:	801a      	strh	r2, [r3, #0]
    30fe:	4628      	mov	r0, r5
    3100:	bd70      	pop	{r4, r5, r6, pc}
    3102:	f06f 0010 	mvn.w	r0, #16
    3106:	bd70      	pop	{r4, r5, r6, pc}
    3108:	00002fed 	.word	0x00002fed
    310c:	00002ff5 	.word	0x00002ff5
    3110:	43001c00 	.word	0x43001c00
    3114:	000080b4 	.word	0x000080b4

00003118 <_adc_get_irq_num.isra.0>:
    3118:	f100 403d 	add.w	r0, r0, #3170893824	; 0xbd000000
    311c:	f5a0 50e0 	sub.w	r0, r0, #7168	; 0x1c00
    3120:	0a80      	lsrs	r0, r0, #10
    3122:	0040      	lsls	r0, r0, #1
    3124:	3076      	adds	r0, #118	; 0x76
    3126:	f000 00fe 	and.w	r0, r0, #254	; 0xfe
    312a:	4770      	bx	lr

0000312c <_adc_sync_init>:
    312c:	e92d 41f0 	stmdb	sp!, {r4, r5, r6, r7, r8, lr}
    3130:	4b17      	ldr	r3, [pc, #92]	; (3190 <_adc_sync_init+0x64>)
    3132:	4604      	mov	r4, r0
    3134:	4608      	mov	r0, r1
    3136:	460d      	mov	r5, r1
    3138:	4798      	blx	r3
    313a:	4b16      	ldr	r3, [pc, #88]	; (3194 <_adc_sync_init+0x68>)
    313c:	4601      	mov	r1, r0
    313e:	4628      	mov	r0, r5
    3140:	4798      	blx	r3
    3142:	4606      	mov	r6, r0
    3144:	bb00      	cbnz	r0, 3188 <_adc_sync_init+0x5c>
    3146:	4914      	ldr	r1, [pc, #80]	; (3198 <_adc_sync_init+0x6c>)
    3148:	6025      	str	r5, [r4, #0]
    314a:	6960      	ldr	r0, [r4, #20]
    314c:	f8df 8054 	ldr.w	r8, [pc, #84]	; 31a4 <_adc_sync_init+0x78>
    3150:	4f12      	ldr	r7, [pc, #72]	; (319c <_adc_sync_init+0x70>)
    3152:	4d13      	ldr	r5, [pc, #76]	; (31a0 <_adc_sync_init+0x74>)
    3154:	4788      	blx	r1
    3156:	b200      	sxth	r0, r0
    3158:	47c0      	blx	r8
    315a:	6960      	ldr	r0, [r4, #20]
    315c:	4788      	blx	r1
    315e:	b200      	sxth	r0, r0
    3160:	47b8      	blx	r7
    3162:	6960      	ldr	r0, [r4, #20]
    3164:	4788      	blx	r1
    3166:	b200      	sxth	r0, r0
    3168:	47a8      	blx	r5
    316a:	6960      	ldr	r0, [r4, #20]
    316c:	4788      	blx	r1
    316e:	3001      	adds	r0, #1
    3170:	b200      	sxth	r0, r0
    3172:	47c0      	blx	r8
    3174:	6960      	ldr	r0, [r4, #20]
    3176:	4788      	blx	r1
    3178:	3001      	adds	r0, #1
    317a:	b200      	sxth	r0, r0
    317c:	47b8      	blx	r7
    317e:	6960      	ldr	r0, [r4, #20]
    3180:	4788      	blx	r1
    3182:	3001      	adds	r0, #1
    3184:	b200      	sxth	r0, r0
    3186:	47a8      	blx	r5
    3188:	4630      	mov	r0, r6
    318a:	e8bd 81f0 	ldmia.w	sp!, {r4, r5, r6, r7, r8, pc}
    318e:	bf00      	nop
    3190:	0000308d 	.word	0x0000308d
    3194:	000030a1 	.word	0x000030a1
    3198:	00003119 	.word	0x00003119
    319c:	00002fcd 	.word	0x00002fcd
    31a0:	00002f89 	.word	0x00002f89
    31a4:	00002fa5 	.word	0x00002fa5

000031a8 <_adc_sync_enable_channel>:
    31a8:	6800      	ldr	r0, [r0, #0]
    31aa:	4b01      	ldr	r3, [pc, #4]	; (31b0 <_adc_sync_enable_channel+0x8>)
    31ac:	4718      	bx	r3
    31ae:	bf00      	nop
    31b0:	0000300d 	.word	0x0000300d

000031b4 <_adc_sync_disable_channel>:
    31b4:	6800      	ldr	r0, [r0, #0]
    31b6:	4b01      	ldr	r3, [pc, #4]	; (31bc <_adc_sync_disable_channel+0x8>)
    31b8:	4718      	bx	r3
    31ba:	bf00      	nop
    31bc:	00003025 	.word	0x00003025

000031c0 <_adc_sync_get_data_size>:
    31c0:	6803      	ldr	r3, [r0, #0]
    31c2:	88db      	ldrh	r3, [r3, #6]
    31c4:	f3c3 03c1 	ubfx	r3, r3, #3, #2
    31c8:	2b03      	cmp	r3, #3
    31ca:	bf0c      	ite	eq
    31cc:	2001      	moveq	r0, #1
    31ce:	2002      	movne	r0, #2
    31d0:	4770      	bx	lr

000031d2 <_adc_sync_is_channel_conversion_done>:
    31d2:	6803      	ldr	r3, [r0, #0]
    31d4:	f893 002e 	ldrb.w	r0, [r3, #46]	; 0x2e
    31d8:	f000 0001 	and.w	r0, r0, #1
    31dc:	4770      	bx	lr
	...

000031e0 <_adc_sync_convert>:
    31e0:	6802      	ldr	r2, [r0, #0]
    31e2:	b508      	push	{r3, lr}
    31e4:	f640 71ff 	movw	r1, #4095	; 0xfff
    31e8:	4b03      	ldr	r3, [pc, #12]	; (31f8 <_adc_sync_convert+0x18>)
    31ea:	4610      	mov	r0, r2
    31ec:	4798      	blx	r3
    31ee:	7d13      	ldrb	r3, [r2, #20]
    31f0:	f043 0302 	orr.w	r3, r3, #2
    31f4:	7513      	strb	r3, [r2, #20]
    31f6:	bd08      	pop	{r3, pc}
    31f8:	00002fed 	.word	0x00002fed

000031fc <_adc_sync_read_channel_data>:
    31fc:	6803      	ldr	r3, [r0, #0]
    31fe:	f8b3 0040 	ldrh.w	r0, [r3, #64]	; 0x40
    3202:	b280      	uxth	r0, r0
    3204:	4770      	bx	lr
	...

00003208 <_adc_sync_set_inputs>:
    3208:	b570      	push	{r4, r5, r6, lr}
    320a:	4604      	mov	r4, r0
    320c:	4615      	mov	r5, r2
    320e:	6800      	ldr	r0, [r0, #0]
    3210:	4b03      	ldr	r3, [pc, #12]	; (3220 <_adc_sync_set_inputs+0x18>)
    3212:	4798      	blx	r3
    3214:	4629      	mov	r1, r5
    3216:	6820      	ldr	r0, [r4, #0]
    3218:	4b02      	ldr	r3, [pc, #8]	; (3224 <_adc_sync_set_inputs+0x1c>)
    321a:	e8bd 4070 	ldmia.w	sp!, {r4, r5, r6, lr}
    321e:	4718      	bx	r3
    3220:	00003041 	.word	0x00003041
    3224:	00003065 	.word	0x00003065

00003228 <_get_cycles_for_ms>:
    3228:	f64b 3380 	movw	r3, #48000	; 0xbb80
    322c:	4358      	muls	r0, r3
    322e:	4770      	bx	lr

00003230 <_init_chip>:
    3230:	b510      	push	{r4, lr}
    3232:	4a0d      	ldr	r2, [pc, #52]	; (3268 <_init_chip+0x38>)
    3234:	4c0d      	ldr	r4, [pc, #52]	; (326c <_init_chip+0x3c>)
    3236:	8813      	ldrh	r3, [r2, #0]
    3238:	b29b      	uxth	r3, r3
    323a:	8013      	strh	r3, [r2, #0]
    323c:	4b0c      	ldr	r3, [pc, #48]	; (3270 <_init_chip+0x40>)
    323e:	4798      	blx	r3
    3240:	4b0c      	ldr	r3, [pc, #48]	; (3274 <_init_chip+0x44>)
    3242:	4798      	blx	r3
    3244:	f44f 6000 	mov.w	r0, #2048	; 0x800
    3248:	47a0      	blx	r4
    324a:	4b0b      	ldr	r3, [pc, #44]	; (3278 <_init_chip+0x48>)
    324c:	4798      	blx	r3
    324e:	f240 70ff 	movw	r0, #2047	; 0x7ff
    3252:	47a0      	blx	r4
    3254:	4a09      	ldr	r2, [pc, #36]	; (327c <_init_chip+0x4c>)
    3256:	6913      	ldr	r3, [r2, #16]
    3258:	f443 7300 	orr.w	r3, r3, #512	; 0x200
    325c:	6113      	str	r3, [r2, #16]
    325e:	e8bd 4010 	ldmia.w	sp!, {r4, lr}
    3262:	4b07      	ldr	r3, [pc, #28]	; (3280 <_init_chip+0x50>)
    3264:	4718      	bx	r3
    3266:	bf00      	nop
    3268:	41004000 	.word	0x41004000
    326c:	000033c5 	.word	0x000033c5
    3270:	00003495 	.word	0x00003495
    3274:	00003455 	.word	0x00003455
    3278:	000034b9 	.word	0x000034b9
    327c:	40000800 	.word	0x40000800
    3280:	000032d5 	.word	0x000032d5

00003284 <_dmac_handler>:
    3284:	b410      	push	{r4}
    3286:	4b11      	ldr	r3, [pc, #68]	; (32cc <_dmac_handler+0x48>)
    3288:	4c11      	ldr	r4, [pc, #68]	; (32d0 <_dmac_handler+0x4c>)
    328a:	8c19      	ldrh	r1, [r3, #32]
    328c:	f001 011f 	and.w	r1, r1, #31
    3290:	eb03 1301 	add.w	r3, r3, r1, lsl #4
    3294:	220c      	movs	r2, #12
    3296:	434a      	muls	r2, r1
    3298:	f893 104e 	ldrb.w	r1, [r3, #78]	; 0x4e
    329c:	07c9      	lsls	r1, r1, #31
    329e:	eb04 0002 	add.w	r0, r4, r2
    32a2:	d506      	bpl.n	32b2 <_dmac_handler+0x2e>
    32a4:	2201      	movs	r2, #1
    32a6:	f883 204e 	strb.w	r2, [r3, #78]	; 0x4e
    32aa:	6843      	ldr	r3, [r0, #4]
    32ac:	f85d 4b04 	ldr.w	r4, [sp], #4
    32b0:	4718      	bx	r3
    32b2:	f893 104e 	ldrb.w	r1, [r3, #78]	; 0x4e
    32b6:	0789      	lsls	r1, r1, #30
    32b8:	d504      	bpl.n	32c4 <_dmac_handler+0x40>
    32ba:	2102      	movs	r1, #2
    32bc:	f883 104e 	strb.w	r1, [r3, #78]	; 0x4e
    32c0:	58a3      	ldr	r3, [r4, r2]
    32c2:	e7f3      	b.n	32ac <_dmac_handler+0x28>
    32c4:	f85d 4b04 	ldr.w	r4, [sp], #4
    32c8:	4770      	bx	lr
    32ca:	bf00      	nop
    32cc:	4100a000 	.word	0x4100a000
    32d0:	20000640 	.word	0x20000640

000032d4 <_dma_init>:
    32d4:	b530      	push	{r4, r5, lr}
    32d6:	4b2e      	ldr	r3, [pc, #184]	; (3390 <_dma_init+0xbc>)
    32d8:	881a      	ldrh	r2, [r3, #0]
    32da:	f022 0202 	bic.w	r2, r2, #2
    32de:	0412      	lsls	r2, r2, #16
    32e0:	0c12      	lsrs	r2, r2, #16
    32e2:	801a      	strh	r2, [r3, #0]
    32e4:	885a      	ldrh	r2, [r3, #2]
    32e6:	f422 527c 	bic.w	r2, r2, #16128	; 0x3f00
    32ea:	0412      	lsls	r2, r2, #16
    32ec:	0c12      	lsrs	r2, r2, #16
    32ee:	805a      	strh	r2, [r3, #2]
    32f0:	881a      	ldrh	r2, [r3, #0]
    32f2:	b292      	uxth	r2, r2
    32f4:	f042 0201 	orr.w	r2, r2, #1
    32f8:	801a      	strh	r2, [r3, #0]
    32fa:	881a      	ldrh	r2, [r3, #0]
    32fc:	f012 0201 	ands.w	r2, r2, #1
    3300:	d1fb      	bne.n	32fa <_dma_init+0x26>
    3302:	f44f 6170 	mov.w	r1, #3840	; 0xf00
    3306:	8019      	strh	r1, [r3, #0]
    3308:	7b59      	ldrb	r1, [r3, #13]
    330a:	4822      	ldr	r0, [pc, #136]	; (3394 <_dma_init+0xc0>)
    330c:	f001 01fe 	and.w	r1, r1, #254	; 0xfe
    3310:	7359      	strb	r1, [r3, #13]
    3312:	f500 7100 	add.w	r1, r0, #512	; 0x200
    3316:	615a      	str	r2, [r3, #20]
    3318:	6358      	str	r0, [r3, #52]	; 0x34
    331a:	6399      	str	r1, [r3, #56]	; 0x38
    331c:	491e      	ldr	r1, [pc, #120]	; (3398 <_dma_init+0xc4>)
    331e:	4613      	mov	r3, r2
    3320:	f5a0 70c0 	sub.w	r0, r0, #384	; 0x180
    3324:	011c      	lsls	r4, r3, #4
    3326:	f104 4282 	add.w	r2, r4, #1090519040	; 0x41000000
    332a:	f502 4220 	add.w	r2, r2, #40960	; 0xa000
    332e:	680d      	ldr	r5, [r1, #0]
    3330:	6415      	str	r5, [r2, #64]	; 0x40
    3332:	790d      	ldrb	r5, [r1, #4]
    3334:	f882 5045 	strb.w	r5, [r2, #69]	; 0x45
    3338:	794d      	ldrb	r5, [r1, #5]
    333a:	f882 5046 	strb.w	r5, [r2, #70]	; 0x46
    333e:	4404      	add	r4, r0
    3340:	3301      	adds	r3, #1
    3342:	88ca      	ldrh	r2, [r1, #6]
    3344:	f8a4 2180 	strh.w	r2, [r4, #384]	; 0x180
    3348:	2b20      	cmp	r3, #32
    334a:	f101 0108 	add.w	r1, r1, #8
    334e:	d1e9      	bne.n	3324 <_dma_init+0x50>
    3350:	221f      	movs	r2, #31
    3352:	2001      	movs	r0, #1
    3354:	0953      	lsrs	r3, r2, #5
    3356:	009b      	lsls	r3, r3, #2
    3358:	f103 4360 	add.w	r3, r3, #3758096384	; 0xe0000000
    335c:	f002 011f 	and.w	r1, r2, #31
    3360:	f503 4361 	add.w	r3, r3, #57600	; 0xe100
    3364:	fa00 f101 	lsl.w	r1, r0, r1
    3368:	f8c3 1080 	str.w	r1, [r3, #128]	; 0x80
    336c:	f3bf 8f4f 	dsb	sy
    3370:	f3bf 8f6f 	isb	sy
    3374:	3201      	adds	r2, #1
    3376:	2a24      	cmp	r2, #36	; 0x24
    3378:	f8c3 1180 	str.w	r1, [r3, #384]	; 0x180
    337c:	6019      	str	r1, [r3, #0]
    337e:	d1e9      	bne.n	3354 <_dma_init+0x80>
    3380:	4a03      	ldr	r2, [pc, #12]	; (3390 <_dma_init+0xbc>)
    3382:	8813      	ldrh	r3, [r2, #0]
    3384:	b29b      	uxth	r3, r3
    3386:	f043 0302 	orr.w	r3, r3, #2
    338a:	8013      	strh	r3, [r2, #0]
    338c:	2000      	movs	r0, #0
    338e:	bd30      	pop	{r4, r5, pc}
    3390:	4100a000 	.word	0x4100a000
    3394:	200007c0 	.word	0x200007c0
    3398:	000080e0 	.word	0x000080e0

0000339c <DMAC_0_Handler>:
    339c:	4b00      	ldr	r3, [pc, #0]	; (33a0 <DMAC_0_Handler+0x4>)
    339e:	4718      	bx	r3
    33a0:	00003285 	.word	0x00003285

000033a4 <DMAC_1_Handler>:
    33a4:	4b00      	ldr	r3, [pc, #0]	; (33a8 <DMAC_1_Handler+0x4>)
    33a6:	4718      	bx	r3
    33a8:	00003285 	.word	0x00003285

000033ac <DMAC_2_Handler>:
    33ac:	4b00      	ldr	r3, [pc, #0]	; (33b0 <DMAC_2_Handler+0x4>)
    33ae:	4718      	bx	r3
    33b0:	00003285 	.word	0x00003285

000033b4 <DMAC_3_Handler>:
    33b4:	4b00      	ldr	r3, [pc, #0]	; (33b8 <DMAC_3_Handler+0x4>)
    33b6:	4718      	bx	r3
    33b8:	00003285 	.word	0x00003285

000033bc <DMAC_4_Handler>:
    33bc:	4b00      	ldr	r3, [pc, #0]	; (33c0 <DMAC_4_Handler+0x4>)
    33be:	4718      	bx	r3
    33c0:	00003285 	.word	0x00003285

000033c4 <_gclk_init_generators_by_fref>:
    33c4:	07c1      	lsls	r1, r0, #31
    33c6:	bf42      	ittt	mi
    33c8:	4b1d      	ldrmi	r3, [pc, #116]	; (3440 <_gclk_init_generators_by_fref+0x7c>)
    33ca:	4a1e      	ldrmi	r2, [pc, #120]	; (3444 <_gclk_init_generators_by_fref+0x80>)
    33cc:	621a      	strmi	r2, [r3, #32]
    33ce:	0782      	lsls	r2, r0, #30
    33d0:	bf42      	ittt	mi
    33d2:	4b1b      	ldrmi	r3, [pc, #108]	; (3440 <_gclk_init_generators_by_fref+0x7c>)
    33d4:	4a1c      	ldrmi	r2, [pc, #112]	; (3448 <_gclk_init_generators_by_fref+0x84>)
    33d6:	625a      	strmi	r2, [r3, #36]	; 0x24
    33d8:	0743      	lsls	r3, r0, #29
    33da:	bf42      	ittt	mi
    33dc:	4b18      	ldrmi	r3, [pc, #96]	; (3440 <_gclk_init_generators_by_fref+0x7c>)
    33de:	4a19      	ldrmi	r2, [pc, #100]	; (3444 <_gclk_init_generators_by_fref+0x80>)
    33e0:	629a      	strmi	r2, [r3, #40]	; 0x28
    33e2:	0701      	lsls	r1, r0, #28
    33e4:	bf42      	ittt	mi
    33e6:	4b16      	ldrmi	r3, [pc, #88]	; (3440 <_gclk_init_generators_by_fref+0x7c>)
    33e8:	4a16      	ldrmi	r2, [pc, #88]	; (3444 <_gclk_init_generators_by_fref+0x80>)
    33ea:	62da      	strmi	r2, [r3, #44]	; 0x2c
    33ec:	06c2      	lsls	r2, r0, #27
    33ee:	bf42      	ittt	mi
    33f0:	4b13      	ldrmi	r3, [pc, #76]	; (3440 <_gclk_init_generators_by_fref+0x7c>)
    33f2:	4a14      	ldrmi	r2, [pc, #80]	; (3444 <_gclk_init_generators_by_fref+0x80>)
    33f4:	631a      	strmi	r2, [r3, #48]	; 0x30
    33f6:	0683      	lsls	r3, r0, #26
    33f8:	bf42      	ittt	mi
    33fa:	4b11      	ldrmi	r3, [pc, #68]	; (3440 <_gclk_init_generators_by_fref+0x7c>)
    33fc:	4a11      	ldrmi	r2, [pc, #68]	; (3444 <_gclk_init_generators_by_fref+0x80>)
    33fe:	635a      	strmi	r2, [r3, #52]	; 0x34
    3400:	0641      	lsls	r1, r0, #25
    3402:	bf42      	ittt	mi
    3404:	4b0e      	ldrmi	r3, [pc, #56]	; (3440 <_gclk_init_generators_by_fref+0x7c>)
    3406:	4a0f      	ldrmi	r2, [pc, #60]	; (3444 <_gclk_init_generators_by_fref+0x80>)
    3408:	639a      	strmi	r2, [r3, #56]	; 0x38
    340a:	0602      	lsls	r2, r0, #24
    340c:	bf42      	ittt	mi
    340e:	4b0c      	ldrmi	r3, [pc, #48]	; (3440 <_gclk_init_generators_by_fref+0x7c>)
    3410:	4a0c      	ldrmi	r2, [pc, #48]	; (3444 <_gclk_init_generators_by_fref+0x80>)
    3412:	63da      	strmi	r2, [r3, #60]	; 0x3c
    3414:	05c3      	lsls	r3, r0, #23
    3416:	bf42      	ittt	mi
    3418:	4b09      	ldrmi	r3, [pc, #36]	; (3440 <_gclk_init_generators_by_fref+0x7c>)
    341a:	4a0a      	ldrmi	r2, [pc, #40]	; (3444 <_gclk_init_generators_by_fref+0x80>)
    341c:	641a      	strmi	r2, [r3, #64]	; 0x40
    341e:	0581      	lsls	r1, r0, #22
    3420:	bf42      	ittt	mi
    3422:	4b07      	ldrmi	r3, [pc, #28]	; (3440 <_gclk_init_generators_by_fref+0x7c>)
    3424:	4a07      	ldrmi	r2, [pc, #28]	; (3444 <_gclk_init_generators_by_fref+0x80>)
    3426:	645a      	strmi	r2, [r3, #68]	; 0x44
    3428:	0542      	lsls	r2, r0, #21
    342a:	bf42      	ittt	mi
    342c:	4b04      	ldrmi	r3, [pc, #16]	; (3440 <_gclk_init_generators_by_fref+0x7c>)
    342e:	4a07      	ldrmi	r2, [pc, #28]	; (344c <_gclk_init_generators_by_fref+0x88>)
    3430:	649a      	strmi	r2, [r3, #72]	; 0x48
    3432:	0503      	lsls	r3, r0, #20
    3434:	bf42      	ittt	mi
    3436:	4b02      	ldrmi	r3, [pc, #8]	; (3440 <_gclk_init_generators_by_fref+0x7c>)
    3438:	4a05      	ldrmi	r2, [pc, #20]	; (3450 <_gclk_init_generators_by_fref+0x8c>)
    343a:	64da      	strmi	r2, [r3, #76]	; 0x4c
    343c:	4770      	bx	lr
    343e:	bf00      	nop
    3440:	40001c00 	.word	0x40001c00
    3444:	00012b06 	.word	0x00012b06
    3448:	00012306 	.word	0x00012306
    344c:	00012b05 	.word	0x00012b05
    3450:	00013b05 	.word	0x00013b05

00003454 <_mclk_init>:
    3454:	4b01      	ldr	r3, [pc, #4]	; (345c <_mclk_init+0x8>)
    3456:	2201      	movs	r2, #1
    3458:	715a      	strb	r2, [r3, #5]
    345a:	4770      	bx	lr
    345c:	40000800 	.word	0x40000800

00003460 <NVMCTRL_1_Handler>:
    3460:	4b09      	ldr	r3, [pc, #36]	; (3488 <NVMCTRL_1_Handler+0x28>)
    3462:	6818      	ldr	r0, [r3, #0]
    3464:	6903      	ldr	r3, [r0, #16]
    3466:	8a1a      	ldrh	r2, [r3, #16]
    3468:	07d2      	lsls	r2, r2, #31
    346a:	d504      	bpl.n	3476 <NVMCTRL_1_Handler+0x16>
    346c:	2201      	movs	r2, #1
    346e:	821a      	strh	r2, [r3, #16]
    3470:	6803      	ldr	r3, [r0, #0]
    3472:	b143      	cbz	r3, 3486 <NVMCTRL_1_Handler+0x26>
    3474:	4718      	bx	r3
    3476:	8a1a      	ldrh	r2, [r3, #16]
    3478:	b292      	uxth	r2, r2
    347a:	b122      	cbz	r2, 3486 <NVMCTRL_1_Handler+0x26>
    347c:	f240 225e 	movw	r2, #606	; 0x25e
    3480:	821a      	strh	r2, [r3, #16]
    3482:	6843      	ldr	r3, [r0, #4]
    3484:	e7f5      	b.n	3472 <NVMCTRL_1_Handler+0x12>
    3486:	4770      	bx	lr
    3488:	20000bc0 	.word	0x20000bc0

0000348c <NVMCTRL_0_Handler>:
    348c:	4b00      	ldr	r3, [pc, #0]	; (3490 <NVMCTRL_0_Handler+0x4>)
    348e:	4718      	bx	r3
    3490:	00003461 	.word	0x00003461

00003494 <_osc32kctrl_init_sources>:
    3494:	4b07      	ldr	r3, [pc, #28]	; (34b4 <_osc32kctrl_init_sources+0x20>)
    3496:	f242 024e 	movw	r2, #8270	; 0x204e
    349a:	829a      	strh	r2, [r3, #20]
    349c:	2201      	movs	r2, #1
    349e:	759a      	strb	r2, [r3, #22]
    34a0:	75da      	strb	r2, [r3, #23]
    34a2:	69da      	ldr	r2, [r3, #28]
    34a4:	2200      	movs	r2, #0
    34a6:	61da      	str	r2, [r3, #28]
    34a8:	68da      	ldr	r2, [r3, #12]
    34aa:	07d2      	lsls	r2, r2, #31
    34ac:	d5fc      	bpl.n	34a8 <_osc32kctrl_init_sources+0x14>
    34ae:	2204      	movs	r2, #4
    34b0:	741a      	strb	r2, [r3, #16]
    34b2:	4770      	bx	lr
    34b4:	40001400 	.word	0x40001400

000034b8 <_oscctrl_init_referenced_generators>:
    34b8:	4a24      	ldr	r2, [pc, #144]	; (354c <_oscctrl_init_referenced_generators+0x94>)
    34ba:	6a13      	ldr	r3, [r2, #32]
    34bc:	f023 030f 	bic.w	r3, r3, #15
    34c0:	f043 0304 	orr.w	r3, r3, #4
    34c4:	6213      	str	r3, [r2, #32]
    34c6:	4b22      	ldr	r3, [pc, #136]	; (3550 <_oscctrl_init_referenced_generators+0x98>)
    34c8:	2200      	movs	r2, #0
    34ca:	771a      	strb	r2, [r3, #28]
    34cc:	4a21      	ldr	r2, [pc, #132]	; (3554 <_oscctrl_init_referenced_generators+0x9c>)
    34ce:	629a      	str	r2, [r3, #40]	; 0x28
    34d0:	f893 202c 	ldrb.w	r2, [r3, #44]	; 0x2c
    34d4:	f012 0210 	ands.w	r2, r2, #16
    34d8:	d1fa      	bne.n	34d0 <_oscctrl_init_referenced_generators+0x18>
    34da:	f883 2020 	strb.w	r2, [r3, #32]
    34de:	4a1c      	ldr	r2, [pc, #112]	; (3550 <_oscctrl_init_referenced_generators+0x98>)
    34e0:	4613      	mov	r3, r2
    34e2:	f892 102c 	ldrb.w	r1, [r2, #44]	; 0x2c
    34e6:	0749      	lsls	r1, r1, #29
    34e8:	d4fb      	bmi.n	34e2 <_oscctrl_init_referenced_generators+0x2a>
    34ea:	2142      	movs	r1, #66	; 0x42
    34ec:	7711      	strb	r1, [r2, #28]
    34ee:	f893 202c 	ldrb.w	r2, [r3, #44]	; 0x2c
    34f2:	0792      	lsls	r2, r2, #30
    34f4:	d4fb      	bmi.n	34ee <_oscctrl_init_referenced_generators+0x36>
    34f6:	6a5a      	ldr	r2, [r3, #36]	; 0x24
    34f8:	625a      	str	r2, [r3, #36]	; 0x24
    34fa:	4b15      	ldr	r3, [pc, #84]	; (3550 <_oscctrl_init_referenced_generators+0x98>)
    34fc:	461a      	mov	r2, r3
    34fe:	f893 102c 	ldrb.w	r1, [r3, #44]	; 0x2c
    3502:	0708      	lsls	r0, r1, #28
    3504:	d4fb      	bmi.n	34fe <_oscctrl_init_referenced_generators+0x46>
    3506:	2182      	movs	r1, #130	; 0x82
    3508:	f883 1020 	strb.w	r1, [r3, #32]
    350c:	f892 302c 	ldrb.w	r3, [r2, #44]	; 0x2c
    3510:	0759      	lsls	r1, r3, #29
    3512:	d4fb      	bmi.n	350c <_oscctrl_init_referenced_generators+0x54>
    3514:	f892 3020 	ldrb.w	r3, [r2, #32]
    3518:	4a0d      	ldr	r2, [pc, #52]	; (3550 <_oscctrl_init_referenced_generators+0x98>)
    351a:	f013 0f01 	tst.w	r3, #1
    351e:	d010      	beq.n	3542 <_oscctrl_init_referenced_generators+0x8a>
    3520:	6913      	ldr	r3, [r2, #16]
    3522:	f403 6310 	and.w	r3, r3, #2304	; 0x900
    3526:	f5b3 6f10 	cmp.w	r3, #2304	; 0x900
    352a:	d1f9      	bne.n	3520 <_oscctrl_init_referenced_generators+0x68>
    352c:	4a07      	ldr	r2, [pc, #28]	; (354c <_oscctrl_init_referenced_generators+0x94>)
    352e:	6853      	ldr	r3, [r2, #4]
    3530:	2b00      	cmp	r3, #0
    3532:	d1fc      	bne.n	352e <_oscctrl_init_referenced_generators+0x76>
    3534:	6a13      	ldr	r3, [r2, #32]
    3536:	f023 030f 	bic.w	r3, r3, #15
    353a:	f043 0306 	orr.w	r3, r3, #6
    353e:	6213      	str	r3, [r2, #32]
    3540:	4770      	bx	lr
    3542:	6913      	ldr	r3, [r2, #16]
    3544:	05db      	lsls	r3, r3, #23
    3546:	d5fc      	bpl.n	3542 <_oscctrl_init_referenced_generators+0x8a>
    3548:	e7f0      	b.n	352c <_oscctrl_init_referenced_generators+0x74>
    354a:	bf00      	nop
    354c:	40001c00 	.word	0x40001c00
    3550:	40001000 	.word	0x40001000
    3554:	04010000 	.word	0x04010000

00003558 <RAMECC_Handler>:
    3558:	b507      	push	{r0, r1, r2, lr}
    355a:	4a0c      	ldr	r2, [pc, #48]	; (358c <RAMECC_Handler+0x34>)
    355c:	7893      	ldrb	r3, [r2, #2]
    355e:	b2db      	uxtb	r3, r3
    3560:	9301      	str	r3, [sp, #4]
    3562:	9b01      	ldr	r3, [sp, #4]
    3564:	0799      	lsls	r1, r3, #30
    3566:	d507      	bpl.n	3578 <RAMECC_Handler+0x20>
    3568:	4b09      	ldr	r3, [pc, #36]	; (3590 <RAMECC_Handler+0x38>)
    356a:	681b      	ldr	r3, [r3, #0]
    356c:	b123      	cbz	r3, 3578 <RAMECC_Handler+0x20>
    356e:	6850      	ldr	r0, [r2, #4]
    3570:	4798      	blx	r3
    3572:	b003      	add	sp, #12
    3574:	f85d fb04 	ldr.w	pc, [sp], #4
    3578:	9b01      	ldr	r3, [sp, #4]
    357a:	07db      	lsls	r3, r3, #31
    357c:	d5f9      	bpl.n	3572 <RAMECC_Handler+0x1a>
    357e:	4b04      	ldr	r3, [pc, #16]	; (3590 <RAMECC_Handler+0x38>)
    3580:	685b      	ldr	r3, [r3, #4]
    3582:	2b00      	cmp	r3, #0
    3584:	d0f5      	beq.n	3572 <RAMECC_Handler+0x1a>
    3586:	4a01      	ldr	r2, [pc, #4]	; (358c <RAMECC_Handler+0x34>)
    3588:	e7f1      	b.n	356e <RAMECC_Handler+0x16>
    358a:	bf00      	nop
    358c:	41020000 	.word	0x41020000
    3590:	20003f74 	.word	0x20003f74

00003594 <__NVIC_EnableIRQ>:
    3594:	2800      	cmp	r0, #0
    3596:	db08      	blt.n	35aa <__NVIC_EnableIRQ+0x16>
    3598:	0942      	lsrs	r2, r0, #5
    359a:	2301      	movs	r3, #1
    359c:	f000 001f 	and.w	r0, r0, #31
    35a0:	fa03 f000 	lsl.w	r0, r3, r0
    35a4:	4b01      	ldr	r3, [pc, #4]	; (35ac <__NVIC_EnableIRQ+0x18>)
    35a6:	f843 0022 	str.w	r0, [r3, r2, lsl #2]
    35aa:	4770      	bx	lr
    35ac:	e000e100 	.word	0xe000e100

000035b0 <__NVIC_DisableIRQ>:
    35b0:	2800      	cmp	r0, #0
    35b2:	db0d      	blt.n	35d0 <__NVIC_DisableIRQ+0x20>
    35b4:	0943      	lsrs	r3, r0, #5
    35b6:	2201      	movs	r2, #1
    35b8:	f000 001f 	and.w	r0, r0, #31
    35bc:	fa02 f000 	lsl.w	r0, r2, r0
    35c0:	3320      	adds	r3, #32
    35c2:	4a04      	ldr	r2, [pc, #16]	; (35d4 <__NVIC_DisableIRQ+0x24>)
    35c4:	f842 0023 	str.w	r0, [r2, r3, lsl #2]
    35c8:	f3bf 8f4f 	dsb	sy
    35cc:	f3bf 8f6f 	isb	sy
    35d0:	4770      	bx	lr
    35d2:	bf00      	nop
    35d4:	e000e100 	.word	0xe000e100

000035d8 <__NVIC_ClearPendingIRQ>:
    35d8:	2800      	cmp	r0, #0
    35da:	db09      	blt.n	35f0 <__NVIC_ClearPendingIRQ+0x18>
    35dc:	0943      	lsrs	r3, r0, #5
    35de:	2201      	movs	r2, #1
    35e0:	f000 001f 	and.w	r0, r0, #31
    35e4:	fa02 f000 	lsl.w	r0, r2, r0
    35e8:	3360      	adds	r3, #96	; 0x60
    35ea:	4a02      	ldr	r2, [pc, #8]	; (35f4 <__NVIC_ClearPendingIRQ+0x1c>)
    35ec:	f842 0023 	str.w	r0, [r2, r3, lsl #2]
    35f0:	4770      	bx	lr
    35f2:	bf00      	nop
    35f4:	e000e100 	.word	0xe000e100

000035f8 <hri_sercomusart_wait_for_sync>:
    35f8:	69c3      	ldr	r3, [r0, #28]
    35fa:	420b      	tst	r3, r1
    35fc:	d1fc      	bne.n	35f8 <hri_sercomusart_wait_for_sync>
    35fe:	4770      	bx	lr

00003600 <hri_sercomusart_get_CTRLA_ENABLE_bit>:
    3600:	b508      	push	{r3, lr}
    3602:	2103      	movs	r1, #3
    3604:	4b02      	ldr	r3, [pc, #8]	; (3610 <hri_sercomusart_get_CTRLA_ENABLE_bit+0x10>)
    3606:	4798      	blx	r3
    3608:	6800      	ldr	r0, [r0, #0]
    360a:	f3c0 0040 	ubfx	r0, r0, #1, #1
    360e:	bd08      	pop	{r3, pc}
    3610:	000035f9 	.word	0x000035f9

00003614 <_sercom_get_hardware_index>:
    3614:	b570      	push	{r4, r5, r6, lr}
    3616:	4d0b      	ldr	r5, [pc, #44]	; (3644 <_sercom_get_hardware_index+0x30>)
    3618:	4606      	mov	r6, r0
    361a:	cd0f      	ldmia	r5!, {r0, r1, r2, r3}
    361c:	b086      	sub	sp, #24
    361e:	466c      	mov	r4, sp
    3620:	c40f      	stmia	r4!, {r0, r1, r2, r3}
    3622:	e895 0003 	ldmia.w	r5, {r0, r1}
    3626:	e884 0003 	stmia.w	r4, {r0, r1}
    362a:	2000      	movs	r0, #0
    362c:	f85d 3020 	ldr.w	r3, [sp, r0, lsl #2]
    3630:	42b3      	cmp	r3, r6
    3632:	d102      	bne.n	363a <_sercom_get_hardware_index+0x26>
    3634:	b2c0      	uxtb	r0, r0
    3636:	b006      	add	sp, #24
    3638:	bd70      	pop	{r4, r5, r6, pc}
    363a:	3001      	adds	r0, #1
    363c:	2806      	cmp	r0, #6
    363e:	d1f5      	bne.n	362c <_sercom_get_hardware_index+0x18>
    3640:	2000      	movs	r0, #0
    3642:	e7f8      	b.n	3636 <_sercom_get_hardware_index+0x22>
    3644:	000081e0 	.word	0x000081e0

00003648 <_usart_init>:
    3648:	b538      	push	{r3, r4, r5, lr}
    364a:	4b25      	ldr	r3, [pc, #148]	; (36e0 <_usart_init+0x98>)
    364c:	4604      	mov	r4, r0
    364e:	4798      	blx	r3
    3650:	2803      	cmp	r0, #3
    3652:	d03e      	beq.n	36d2 <_usart_init+0x8a>
    3654:	2804      	cmp	r0, #4
    3656:	d03e      	beq.n	36d6 <_usart_init+0x8e>
    3658:	2805      	cmp	r0, #5
    365a:	bf14      	ite	ne
    365c:	2200      	movne	r2, #0
    365e:	2202      	moveq	r2, #2
    3660:	4620      	mov	r0, r4
    3662:	2101      	movs	r1, #1
    3664:	4d1f      	ldr	r5, [pc, #124]	; (36e4 <_usart_init+0x9c>)
    3666:	47a8      	blx	r5
    3668:	4620      	mov	r0, r4
    366a:	4b1f      	ldr	r3, [pc, #124]	; (36e8 <_usart_init+0xa0>)
    366c:	4798      	blx	r3
    366e:	2800      	cmp	r0, #0
    3670:	d133      	bne.n	36da <_usart_init+0x92>
    3672:	4620      	mov	r0, r4
    3674:	2101      	movs	r1, #1
    3676:	47a8      	blx	r5
    3678:	6823      	ldr	r3, [r4, #0]
    367a:	f043 0301 	orr.w	r3, r3, #1
    367e:	6023      	str	r3, [r4, #0]
    3680:	4620      	mov	r0, r4
    3682:	2101      	movs	r1, #1
    3684:	47a8      	blx	r5
    3686:	4919      	ldr	r1, [pc, #100]	; (36ec <_usart_init+0xa4>)
    3688:	2318      	movs	r3, #24
    368a:	fb03 1302 	mla	r3, r3, r2, r1
    368e:	69d8      	ldr	r0, [r3, #28]
    3690:	6a1d      	ldr	r5, [r3, #32]
    3692:	6020      	str	r0, [r4, #0]
    3694:	6065      	str	r5, [r4, #4]
    3696:	6a5d      	ldr	r5, [r3, #36]	; 0x24
    3698:	60a5      	str	r5, [r4, #8]
    369a:	f410 4fc0 	tst.w	r0, #24576	; 0x6000
    369e:	bf1b      	ittet	ne
    36a0:	89a0      	ldrhne	r0, [r4, #12]
    36a2:	8d1d      	ldrhne	r5, [r3, #40]	; 0x28
    36a4:	8d1b      	ldrheq	r3, [r3, #40]	; 0x28
    36a6:	f365 000c 	bfine	r0, r5, #0, #13
    36aa:	bf1f      	itttt	ne
    36ac:	81a0      	strhne	r0, [r4, #12]
    36ae:	f893 002a 	ldrbne.w	r0, [r3, #42]	; 0x2a
    36b2:	89a3      	ldrhne	r3, [r4, #12]
    36b4:	f360 334f 	bfine	r3, r0, #13, #3
    36b8:	81a3      	strh	r3, [r4, #12]
    36ba:	2318      	movs	r3, #24
    36bc:	fb03 1202 	mla	r2, r3, r2, r1
    36c0:	2000      	movs	r0, #0
    36c2:	f892 302b 	ldrb.w	r3, [r2, #43]	; 0x2b
    36c6:	73a3      	strb	r3, [r4, #14]
    36c8:	f892 302c 	ldrb.w	r3, [r2, #44]	; 0x2c
    36cc:	f884 3030 	strb.w	r3, [r4, #48]	; 0x30
    36d0:	bd38      	pop	{r3, r4, r5, pc}
    36d2:	2200      	movs	r2, #0
    36d4:	e7c4      	b.n	3660 <_usart_init+0x18>
    36d6:	2201      	movs	r2, #1
    36d8:	e7c2      	b.n	3660 <_usart_init+0x18>
    36da:	f06f 0010 	mvn.w	r0, #16
    36de:	bd38      	pop	{r3, r4, r5, pc}
    36e0:	00003615 	.word	0x00003615
    36e4:	000035f9 	.word	0x000035f9
    36e8:	00003601 	.word	0x00003601
    36ec:	000081e0 	.word	0x000081e0

000036f0 <_sercom_get_irq_num>:
    36f0:	b508      	push	{r3, lr}
    36f2:	4b03      	ldr	r3, [pc, #12]	; (3700 <_sercom_get_irq_num+0x10>)
    36f4:	4798      	blx	r3
    36f6:	0080      	lsls	r0, r0, #2
    36f8:	302e      	adds	r0, #46	; 0x2e
    36fa:	f000 00fe 	and.w	r0, r0, #254	; 0xfe
    36fe:	bd08      	pop	{r3, pc}
    3700:	00003615 	.word	0x00003615

00003704 <_usart_async_init>:
    3704:	b570      	push	{r4, r5, r6, lr}
    3706:	4b10      	ldr	r3, [pc, #64]	; (3748 <_usart_async_init+0x44>)
    3708:	4606      	mov	r6, r0
    370a:	4608      	mov	r0, r1
    370c:	460c      	mov	r4, r1
    370e:	4798      	blx	r3
    3710:	4605      	mov	r5, r0
    3712:	b9b0      	cbnz	r0, 3742 <_usart_async_init+0x3e>
    3714:	61b4      	str	r4, [r6, #24]
    3716:	4620      	mov	r0, r4
    3718:	4b0c      	ldr	r3, [pc, #48]	; (374c <_usart_async_init+0x48>)
    371a:	4798      	blx	r3
    371c:	3002      	adds	r0, #2
    371e:	b2c1      	uxtb	r1, r0
    3720:	b20c      	sxth	r4, r1
    3722:	4620      	mov	r0, r4
    3724:	4b0a      	ldr	r3, [pc, #40]	; (3750 <_usart_async_init+0x4c>)
    3726:	4798      	blx	r3
    3728:	4620      	mov	r0, r4
    372a:	4b0a      	ldr	r3, [pc, #40]	; (3754 <_usart_async_init+0x50>)
    372c:	4798      	blx	r3
    372e:	f101 4060 	add.w	r0, r1, #3758096384	; 0xe0000000
    3732:	f500 4061 	add.w	r0, r0, #57600	; 0xe100
    3736:	23e0      	movs	r3, #224	; 0xe0
    3738:	f880 3300 	strb.w	r3, [r0, #768]	; 0x300
    373c:	4620      	mov	r0, r4
    373e:	4b06      	ldr	r3, [pc, #24]	; (3758 <_usart_async_init+0x54>)
    3740:	4798      	blx	r3
    3742:	4628      	mov	r0, r5
    3744:	bd70      	pop	{r4, r5, r6, pc}
    3746:	bf00      	nop
    3748:	00003649 	.word	0x00003649
    374c:	000036f1 	.word	0x000036f1
    3750:	000035b1 	.word	0x000035b1
    3754:	000035d9 	.word	0x000035d9
    3758:	00003595 	.word	0x00003595

0000375c <_usart_async_enable>:
    375c:	6982      	ldr	r2, [r0, #24]
    375e:	b508      	push	{r3, lr}
    3760:	2103      	movs	r1, #3
    3762:	4b04      	ldr	r3, [pc, #16]	; (3774 <_usart_async_enable+0x18>)
    3764:	4610      	mov	r0, r2
    3766:	4798      	blx	r3
    3768:	6813      	ldr	r3, [r2, #0]
    376a:	f043 0302 	orr.w	r3, r3, #2
    376e:	6013      	str	r3, [r2, #0]
    3770:	bd08      	pop	{r3, pc}
    3772:	bf00      	nop
    3774:	000035f9 	.word	0x000035f9

00003778 <_usart_async_write_byte>:
    3778:	6983      	ldr	r3, [r0, #24]
    377a:	6299      	str	r1, [r3, #40]	; 0x28
    377c:	4770      	bx	lr

0000377e <_usart_async_read_byte>:
    377e:	6983      	ldr	r3, [r0, #24]
    3780:	6a98      	ldr	r0, [r3, #40]	; 0x28
    3782:	b2c0      	uxtb	r0, r0
    3784:	4770      	bx	lr

00003786 <_usart_async_is_byte_sent>:
    3786:	6983      	ldr	r3, [r0, #24]
    3788:	7e18      	ldrb	r0, [r3, #24]
    378a:	f000 0001 	and.w	r0, r0, #1
    378e:	4770      	bx	lr

00003790 <_usart_async_is_byte_received>:
    3790:	6983      	ldr	r3, [r0, #24]
    3792:	7e18      	ldrb	r0, [r3, #24]
    3794:	f3c0 0080 	ubfx	r0, r0, #2, #1
    3798:	4770      	bx	lr

0000379a <_usart_async_set_irq_state>:
    379a:	f011 0ffd 	tst.w	r1, #253	; 0xfd
    379e:	d109      	bne.n	37b4 <_usart_async_set_irq_state+0x1a>
    37a0:	6983      	ldr	r3, [r0, #24]
    37a2:	2102      	movs	r1, #2
    37a4:	2001      	movs	r0, #1
    37a6:	b912      	cbnz	r2, 37ae <_usart_async_set_irq_state+0x14>
    37a8:	7518      	strb	r0, [r3, #20]
    37aa:	7519      	strb	r1, [r3, #20]
    37ac:	4770      	bx	lr
    37ae:	7598      	strb	r0, [r3, #22]
    37b0:	7599      	strb	r1, [r3, #22]
    37b2:	4770      	bx	lr
    37b4:	2901      	cmp	r1, #1
    37b6:	d104      	bne.n	37c2 <_usart_async_set_irq_state+0x28>
    37b8:	6983      	ldr	r3, [r0, #24]
    37ba:	2104      	movs	r1, #4
    37bc:	2a00      	cmp	r2, #0
    37be:	d1f7      	bne.n	37b0 <_usart_async_set_irq_state+0x16>
    37c0:	e7f3      	b.n	37aa <_usart_async_set_irq_state+0x10>
    37c2:	2903      	cmp	r1, #3
    37c4:	d1f5      	bne.n	37b2 <_usart_async_set_irq_state+0x18>
    37c6:	6983      	ldr	r3, [r0, #24]
    37c8:	2180      	movs	r1, #128	; 0x80
    37ca:	e7f7      	b.n	37bc <_usart_async_set_irq_state+0x22>

000037cc <_delay_init>:
    37cc:	4b03      	ldr	r3, [pc, #12]	; (37dc <_delay_init+0x10>)
    37ce:	f06f 427f 	mvn.w	r2, #4278190080	; 0xff000000
    37d2:	605a      	str	r2, [r3, #4]
    37d4:	2205      	movs	r2, #5
    37d6:	601a      	str	r2, [r3, #0]
    37d8:	4770      	bx	lr
    37da:	bf00      	nop
    37dc:	e000e010 	.word	0xe000e010

000037e0 <_delay_cycles>:
    37e0:	0e0b      	lsrs	r3, r1, #24
    37e2:	4a0c      	ldr	r2, [pc, #48]	; (3814 <_delay_cycles+0x34>)
    37e4:	b530      	push	{r4, r5, lr}
    37e6:	b2d8      	uxtb	r0, r3
    37e8:	f06f 447f 	mvn.w	r4, #4278190080	; 0xff000000
    37ec:	3801      	subs	r0, #1
    37ee:	b2c0      	uxtb	r0, r0
    37f0:	28ff      	cmp	r0, #255	; 0xff
    37f2:	d108      	bne.n	3806 <_delay_cycles+0x26>
    37f4:	eba3 6303 	sub.w	r3, r3, r3, lsl #24
    37f8:	4419      	add	r1, r3
    37fa:	6051      	str	r1, [r2, #4]
    37fc:	6091      	str	r1, [r2, #8]
    37fe:	6813      	ldr	r3, [r2, #0]
    3800:	03db      	lsls	r3, r3, #15
    3802:	d5fc      	bpl.n	37fe <_delay_cycles+0x1e>
    3804:	bd30      	pop	{r4, r5, pc}
    3806:	6054      	str	r4, [r2, #4]
    3808:	6094      	str	r4, [r2, #8]
    380a:	6815      	ldr	r5, [r2, #0]
    380c:	03ed      	lsls	r5, r5, #15
    380e:	d5fc      	bpl.n	380a <_delay_cycles+0x2a>
    3810:	e7ec      	b.n	37ec <_delay_cycles+0xc>
    3812:	bf00      	nop
    3814:	e000e010 	.word	0xe000e010

00003818 <tcc_interrupt_handler>:
    3818:	68c2      	ldr	r2, [r0, #12]
    381a:	6ad1      	ldr	r1, [r2, #44]	; 0x2c
    381c:	07c9      	lsls	r1, r1, #31
    381e:	d503      	bpl.n	3828 <tcc_interrupt_handler+0x10>
    3820:	2101      	movs	r1, #1
    3822:	62d1      	str	r1, [r2, #44]	; 0x2c
    3824:	6803      	ldr	r3, [r0, #0]
    3826:	4718      	bx	r3
    3828:	4770      	bx	lr
	...

0000382c <TCC0_0_Handler>:
    382c:	4b01      	ldr	r3, [pc, #4]	; (3834 <TCC0_0_Handler+0x8>)
    382e:	6818      	ldr	r0, [r3, #0]
    3830:	4b01      	ldr	r3, [pc, #4]	; (3838 <TCC0_0_Handler+0xc>)
    3832:	4718      	bx	r3
    3834:	20000bc4 	.word	0x20000bc4
    3838:	00003819 	.word	0x00003819

0000383c <TCC1_0_Handler>:
    383c:	4b01      	ldr	r3, [pc, #4]	; (3844 <TCC1_0_Handler+0x8>)
    383e:	6858      	ldr	r0, [r3, #4]
    3840:	4b01      	ldr	r3, [pc, #4]	; (3848 <TCC1_0_Handler+0xc>)
    3842:	4718      	bx	r3
    3844:	20000bc4 	.word	0x20000bc4
    3848:	00003819 	.word	0x00003819

0000384c <TCC2_0_Handler>:
    384c:	4b01      	ldr	r3, [pc, #4]	; (3854 <TCC2_0_Handler+0x8>)
    384e:	6898      	ldr	r0, [r3, #8]
    3850:	4b01      	ldr	r3, [pc, #4]	; (3858 <TCC2_0_Handler+0xc>)
    3852:	4718      	bx	r3
    3854:	20000bc4 	.word	0x20000bc4
    3858:	00003819 	.word	0x00003819

0000385c <TCC3_0_Handler>:
    385c:	4b01      	ldr	r3, [pc, #4]	; (3864 <TCC3_0_Handler+0x8>)
    385e:	68d8      	ldr	r0, [r3, #12]
    3860:	4b01      	ldr	r3, [pc, #4]	; (3868 <TCC3_0_Handler+0xc>)
    3862:	4718      	bx	r3
    3864:	20000bc4 	.word	0x20000bc4
    3868:	00003819 	.word	0x00003819

0000386c <TCC4_0_Handler>:
    386c:	4b01      	ldr	r3, [pc, #4]	; (3874 <TCC4_0_Handler+0x8>)
    386e:	6918      	ldr	r0, [r3, #16]
    3870:	4b01      	ldr	r3, [pc, #4]	; (3878 <TCC4_0_Handler+0xc>)
    3872:	4718      	bx	r3
    3874:	20000bc4 	.word	0x20000bc4
    3878:	00003819 	.word	0x00003819

0000387c <tc_interrupt_handler>:
    387c:	68c2      	ldr	r2, [r0, #12]
    387e:	7a91      	ldrb	r1, [r2, #10]
    3880:	07c9      	lsls	r1, r1, #31
    3882:	d503      	bpl.n	388c <tc_interrupt_handler+0x10>
    3884:	2101      	movs	r1, #1
    3886:	7291      	strb	r1, [r2, #10]
    3888:	6803      	ldr	r3, [r0, #0]
    388a:	4718      	bx	r3
    388c:	4770      	bx	lr

0000388e <tc_pwm_interrupt_handler>:
    388e:	b570      	push	{r4, r5, r6, lr}
    3890:	6905      	ldr	r5, [r0, #16]
    3892:	7aab      	ldrb	r3, [r5, #10]
    3894:	07da      	lsls	r2, r3, #31
    3896:	4604      	mov	r4, r0
    3898:	d504      	bpl.n	38a4 <tc_pwm_interrupt_handler+0x16>
    389a:	2301      	movs	r3, #1
    389c:	72ab      	strb	r3, [r5, #10]
    389e:	6803      	ldr	r3, [r0, #0]
    38a0:	b103      	cbz	r3, 38a4 <tc_pwm_interrupt_handler+0x16>
    38a2:	4798      	blx	r3
    38a4:	7a6b      	ldrb	r3, [r5, #9]
    38a6:	079b      	lsls	r3, r3, #30
    38a8:	d507      	bpl.n	38ba <tc_pwm_interrupt_handler+0x2c>
    38aa:	2302      	movs	r3, #2
    38ac:	72ab      	strb	r3, [r5, #10]
    38ae:	6863      	ldr	r3, [r4, #4]
    38b0:	b11b      	cbz	r3, 38ba <tc_pwm_interrupt_handler+0x2c>
    38b2:	4620      	mov	r0, r4
    38b4:	e8bd 4070 	ldmia.w	sp!, {r4, r5, r6, lr}
    38b8:	4718      	bx	r3
    38ba:	bd70      	pop	{r4, r5, r6, pc}

000038bc <TC0_Handler>:
    38bc:	4b01      	ldr	r3, [pc, #4]	; (38c4 <TC0_Handler+0x8>)
    38be:	6818      	ldr	r0, [r3, #0]
    38c0:	4b01      	ldr	r3, [pc, #4]	; (38c8 <TC0_Handler+0xc>)
    38c2:	4718      	bx	r3
    38c4:	20000bd8 	.word	0x20000bd8
    38c8:	0000388f 	.word	0x0000388f

000038cc <TC1_Handler>:
    38cc:	4b01      	ldr	r3, [pc, #4]	; (38d4 <TC1_Handler+0x8>)
    38ce:	6858      	ldr	r0, [r3, #4]
    38d0:	4b01      	ldr	r3, [pc, #4]	; (38d8 <TC1_Handler+0xc>)
    38d2:	4718      	bx	r3
    38d4:	20000bd8 	.word	0x20000bd8
    38d8:	0000388f 	.word	0x0000388f

000038dc <TC2_Handler>:
    38dc:	4b01      	ldr	r3, [pc, #4]	; (38e4 <TC2_Handler+0x8>)
    38de:	6898      	ldr	r0, [r3, #8]
    38e0:	4b01      	ldr	r3, [pc, #4]	; (38e8 <TC2_Handler+0xc>)
    38e2:	4718      	bx	r3
    38e4:	20000bd8 	.word	0x20000bd8
    38e8:	0000388f 	.word	0x0000388f

000038ec <TC3_Handler>:
    38ec:	4b01      	ldr	r3, [pc, #4]	; (38f4 <TC3_Handler+0x8>)
    38ee:	68d8      	ldr	r0, [r3, #12]
    38f0:	4b01      	ldr	r3, [pc, #4]	; (38f8 <TC3_Handler+0xc>)
    38f2:	4718      	bx	r3
    38f4:	20000bd8 	.word	0x20000bd8
    38f8:	0000387d 	.word	0x0000387d

000038fc <TC4_Handler>:
    38fc:	4b01      	ldr	r3, [pc, #4]	; (3904 <TC4_Handler+0x8>)
    38fe:	6918      	ldr	r0, [r3, #16]
    3900:	4b01      	ldr	r3, [pc, #4]	; (3908 <TC4_Handler+0xc>)
    3902:	4718      	bx	r3
    3904:	20000bd8 	.word	0x20000bd8
    3908:	0000387d 	.word	0x0000387d

0000390c <TC5_Handler>:
    390c:	4b01      	ldr	r3, [pc, #4]	; (3914 <TC5_Handler+0x8>)
    390e:	6958      	ldr	r0, [r3, #20]
    3910:	4b01      	ldr	r3, [pc, #4]	; (3918 <TC5_Handler+0xc>)
    3912:	4718      	bx	r3
    3914:	20000bd8 	.word	0x20000bd8
    3918:	0000387d 	.word	0x0000387d

0000391c <_wdt_init>:
    391c:	6803      	ldr	r3, [r0, #0]
    391e:	689a      	ldr	r2, [r3, #8]
    3920:	f012 0f0e 	tst.w	r2, #14
    3924:	d1fb      	bne.n	391e <_wdt_init+0x2>
    3926:	781a      	ldrb	r2, [r3, #0]
    3928:	09d2      	lsrs	r2, r2, #7
    392a:	d113      	bne.n	3954 <_wdt_init+0x38>
    392c:	689a      	ldr	r2, [r3, #8]
    392e:	f012 0f0e 	tst.w	r2, #14
    3932:	d1fb      	bne.n	392c <_wdt_init+0x10>
    3934:	781a      	ldrb	r2, [r3, #0]
    3936:	0792      	lsls	r2, r2, #30
    3938:	d40c      	bmi.n	3954 <_wdt_init+0x38>
    393a:	6898      	ldr	r0, [r3, #8]
    393c:	f010 000e 	ands.w	r0, r0, #14
    3940:	d1fb      	bne.n	393a <_wdt_init+0x1e>
    3942:	781a      	ldrb	r2, [r3, #0]
    3944:	f002 02fb 	and.w	r2, r2, #251	; 0xfb
    3948:	701a      	strb	r2, [r3, #0]
    394a:	785a      	ldrb	r2, [r3, #1]
    394c:	f002 02f0 	and.w	r2, r2, #240	; 0xf0
    3950:	705a      	strb	r2, [r3, #1]
    3952:	4770      	bx	lr
    3954:	f06f 0010 	mvn.w	r0, #16
    3958:	4770      	bx	lr

0000395a <_wdt_set_timeout_period>:
    395a:	b5d0      	push	{r4, r6, r7, lr}
    395c:	6804      	ldr	r4, [r0, #0]
    395e:	68a3      	ldr	r3, [r4, #8]
    3960:	f013 0f0e 	tst.w	r3, #14
    3964:	d1fb      	bne.n	395e <_wdt_set_timeout_period+0x4>
    3966:	7823      	ldrb	r3, [r4, #0]
    3968:	f003 03fd 	and.w	r3, r3, #253	; 0xfd
    396c:	7023      	strb	r3, [r4, #0]
    396e:	68a3      	ldr	r3, [r4, #8]
    3970:	f013 0f0e 	tst.w	r3, #14
    3974:	d1fb      	bne.n	396e <_wdt_set_timeout_period+0x14>
    3976:	7823      	ldrb	r3, [r4, #0]
    3978:	f003 037f 	and.w	r3, r3, #127	; 0x7f
    397c:	7023      	strb	r3, [r4, #0]
    397e:	68a3      	ldr	r3, [r4, #8]
    3980:	f013 0f0e 	tst.w	r3, #14
    3984:	d1fb      	bne.n	397e <_wdt_set_timeout_period+0x24>
    3986:	7823      	ldrb	r3, [r4, #0]
    3988:	09db      	lsrs	r3, r3, #7
    398a:	d155      	bne.n	3a38 <_wdt_set_timeout_period+0xde>
    398c:	68a3      	ldr	r3, [r4, #8]
    398e:	f013 0f0e 	tst.w	r3, #14
    3992:	d1fb      	bne.n	398c <_wdt_set_timeout_period+0x32>
    3994:	7823      	ldrb	r3, [r4, #0]
    3996:	f3c3 0340 	ubfx	r3, r3, #1, #1
    399a:	2b00      	cmp	r3, #0
    399c:	d14c      	bne.n	3a38 <_wdt_set_timeout_period+0xde>
    399e:	fba2 0101 	umull	r0, r1, r2, r1
    39a2:	460e      	mov	r6, r1
    39a4:	461f      	mov	r7, r3
    39a6:	ea56 0207 	orrs.w	r2, r6, r7
    39aa:	d10d      	bne.n	39c8 <_wdt_set_timeout_period+0x6e>
    39ac:	f5b0 3f7a 	cmp.w	r0, #256000	; 0x3e800
    39b0:	d038      	beq.n	3a24 <_wdt_set_timeout_period+0xca>
    39b2:	d814      	bhi.n	39de <_wdt_set_timeout_period+0x84>
    39b4:	f5b0 4ffa 	cmp.w	r0, #32000	; 0x7d00
    39b8:	d030      	beq.n	3a1c <_wdt_set_timeout_period+0xc2>
    39ba:	d808      	bhi.n	39ce <_wdt_set_timeout_period+0x74>
    39bc:	f5b0 5ffa 	cmp.w	r0, #8000	; 0x1f40
    39c0:	d025      	beq.n	3a0e <_wdt_set_timeout_period+0xb4>
    39c2:	f5b0 5f7a 	cmp.w	r0, #16000	; 0x3e80
    39c6:	d021      	beq.n	3a0c <_wdt_set_timeout_period+0xb2>
    39c8:	f06f 000c 	mvn.w	r0, #12
    39cc:	bdd0      	pop	{r4, r6, r7, pc}
    39ce:	f5b0 4f7a 	cmp.w	r0, #64000	; 0xfa00
    39d2:	d025      	beq.n	3a20 <_wdt_set_timeout_period+0xc6>
    39d4:	f5b0 3ffa 	cmp.w	r0, #128000	; 0x1f400
    39d8:	d1f6      	bne.n	39c8 <_wdt_set_timeout_period+0x6e>
    39da:	2304      	movs	r3, #4
    39dc:	e017      	b.n	3a0e <_wdt_set_timeout_period+0xb4>
    39de:	f5b0 1ffa 	cmp.w	r0, #2048000	; 0x1f4000
    39e2:	d023      	beq.n	3a2c <_wdt_set_timeout_period+0xd2>
    39e4:	d807      	bhi.n	39f6 <_wdt_set_timeout_period+0x9c>
    39e6:	f5b0 2ffa 	cmp.w	r0, #512000	; 0x7d000
    39ea:	d01d      	beq.n	3a28 <_wdt_set_timeout_period+0xce>
    39ec:	f5b0 2f7a 	cmp.w	r0, #1024000	; 0xfa000
    39f0:	d1ea      	bne.n	39c8 <_wdt_set_timeout_period+0x6e>
    39f2:	2307      	movs	r3, #7
    39f4:	e00b      	b.n	3a0e <_wdt_set_timeout_period+0xb4>
    39f6:	f5b0 0ffa 	cmp.w	r0, #8192000	; 0x7d0000
    39fa:	d019      	beq.n	3a30 <_wdt_set_timeout_period+0xd6>
    39fc:	f5b0 0f7a 	cmp.w	r0, #16384000	; 0xfa0000
    3a00:	d018      	beq.n	3a34 <_wdt_set_timeout_period+0xda>
    3a02:	f5b0 1f7a 	cmp.w	r0, #4096000	; 0x3e8000
    3a06:	d1df      	bne.n	39c8 <_wdt_set_timeout_period+0x6e>
    3a08:	2309      	movs	r3, #9
    3a0a:	e000      	b.n	3a0e <_wdt_set_timeout_period+0xb4>
    3a0c:	2301      	movs	r3, #1
    3a0e:	7862      	ldrb	r2, [r4, #1]
    3a10:	f002 02f0 	and.w	r2, r2, #240	; 0xf0
    3a14:	4313      	orrs	r3, r2
    3a16:	7063      	strb	r3, [r4, #1]
    3a18:	2000      	movs	r0, #0
    3a1a:	bdd0      	pop	{r4, r6, r7, pc}
    3a1c:	2302      	movs	r3, #2
    3a1e:	e7f6      	b.n	3a0e <_wdt_set_timeout_period+0xb4>
    3a20:	2303      	movs	r3, #3
    3a22:	e7f4      	b.n	3a0e <_wdt_set_timeout_period+0xb4>
    3a24:	2305      	movs	r3, #5
    3a26:	e7f2      	b.n	3a0e <_wdt_set_timeout_period+0xb4>
    3a28:	2306      	movs	r3, #6
    3a2a:	e7f0      	b.n	3a0e <_wdt_set_timeout_period+0xb4>
    3a2c:	2308      	movs	r3, #8
    3a2e:	e7ee      	b.n	3a0e <_wdt_set_timeout_period+0xb4>
    3a30:	230a      	movs	r3, #10
    3a32:	e7ec      	b.n	3a0e <_wdt_set_timeout_period+0xb4>
    3a34:	230b      	movs	r3, #11
    3a36:	e7ea      	b.n	3a0e <_wdt_set_timeout_period+0xb4>
    3a38:	f06f 0010 	mvn.w	r0, #16
    3a3c:	bdd0      	pop	{r4, r6, r7, pc}

00003a3e <_wdt_enable>:
    3a3e:	6803      	ldr	r3, [r0, #0]
    3a40:	6898      	ldr	r0, [r3, #8]
    3a42:	f010 000e 	ands.w	r0, r0, #14
    3a46:	d1fb      	bne.n	3a40 <_wdt_enable+0x2>
    3a48:	781a      	ldrb	r2, [r3, #0]
    3a4a:	f042 0202 	orr.w	r2, r2, #2
    3a4e:	701a      	strb	r2, [r3, #0]
    3a50:	4770      	bx	lr

00003a52 <_wdt_disable>:
    3a52:	6803      	ldr	r3, [r0, #0]
    3a54:	689a      	ldr	r2, [r3, #8]
    3a56:	f012 0f0e 	tst.w	r2, #14
    3a5a:	d1fb      	bne.n	3a54 <_wdt_disable+0x2>
    3a5c:	781a      	ldrb	r2, [r3, #0]
    3a5e:	09d2      	lsrs	r2, r2, #7
    3a60:	d108      	bne.n	3a74 <_wdt_disable+0x22>
    3a62:	6898      	ldr	r0, [r3, #8]
    3a64:	f010 000e 	ands.w	r0, r0, #14
    3a68:	d1fb      	bne.n	3a62 <_wdt_disable+0x10>
    3a6a:	781a      	ldrb	r2, [r3, #0]
    3a6c:	f002 02fd 	and.w	r2, r2, #253	; 0xfd
    3a70:	701a      	strb	r2, [r3, #0]
    3a72:	4770      	bx	lr
    3a74:	f06f 0010 	mvn.w	r0, #16
    3a78:	4770      	bx	lr

00003a7a <_wdt_feed>:
    3a7a:	6803      	ldr	r3, [r0, #0]
    3a7c:	22a5      	movs	r2, #165	; 0xa5
    3a7e:	731a      	strb	r2, [r3, #12]
    3a80:	2000      	movs	r0, #0
    3a82:	4770      	bx	lr

00003a84 <createQueuesAndSemaphores>:
    3a84:	b5f8      	push	{r3, r4, r5, r6, r7, lr}
    3a86:	2200      	movs	r2, #0
    3a88:	4c18      	ldr	r4, [pc, #96]	; (3aec <createQueuesAndSemaphores+0x68>)
    3a8a:	4f19      	ldr	r7, [pc, #100]	; (3af0 <createQueuesAndSemaphores+0x6c>)
    3a8c:	4e19      	ldr	r6, [pc, #100]	; (3af4 <createQueuesAndSemaphores+0x70>)
    3a8e:	4d1a      	ldr	r5, [pc, #104]	; (3af8 <createQueuesAndSemaphores+0x74>)
    3a90:	2108      	movs	r1, #8
    3a92:	2001      	movs	r0, #1
    3a94:	47a0      	blx	r4
    3a96:	2101      	movs	r1, #1
    3a98:	6038      	str	r0, [r7, #0]
    3a9a:	2200      	movs	r2, #0
    3a9c:	4608      	mov	r0, r1
    3a9e:	47a0      	blx	r4
    3aa0:	2200      	movs	r2, #0
    3aa2:	6030      	str	r0, [r6, #0]
    3aa4:	2108      	movs	r1, #8
    3aa6:	2001      	movs	r0, #1
    3aa8:	47a0      	blx	r4
    3aaa:	2200      	movs	r2, #0
    3aac:	6028      	str	r0, [r5, #0]
    3aae:	2108      	movs	r1, #8
    3ab0:	2001      	movs	r0, #1
    3ab2:	47a0      	blx	r4
    3ab4:	4b11      	ldr	r3, [pc, #68]	; (3afc <createQueuesAndSemaphores+0x78>)
    3ab6:	6018      	str	r0, [r3, #0]
    3ab8:	683b      	ldr	r3, [r7, #0]
    3aba:	b1ab      	cbz	r3, 3ae8 <createQueuesAndSemaphores+0x64>
    3abc:	6833      	ldr	r3, [r6, #0]
    3abe:	b19b      	cbz	r3, 3ae8 <createQueuesAndSemaphores+0x64>
    3ac0:	682b      	ldr	r3, [r5, #0]
    3ac2:	b18b      	cbz	r3, 3ae8 <createQueuesAndSemaphores+0x64>
    3ac4:	b180      	cbz	r0, 3ae8 <createQueuesAndSemaphores+0x64>
    3ac6:	2203      	movs	r2, #3
    3ac8:	2100      	movs	r1, #0
    3aca:	2001      	movs	r0, #1
    3acc:	47a0      	blx	r4
    3ace:	4b0c      	ldr	r3, [pc, #48]	; (3b00 <createQueuesAndSemaphores+0x7c>)
    3ad0:	2203      	movs	r2, #3
    3ad2:	6018      	str	r0, [r3, #0]
    3ad4:	2100      	movs	r1, #0
    3ad6:	2001      	movs	r0, #1
    3ad8:	47a0      	blx	r4
    3ada:	4b0a      	ldr	r3, [pc, #40]	; (3b04 <createQueuesAndSemaphores+0x80>)
    3adc:	6018      	str	r0, [r3, #0]
    3ade:	4b0a      	ldr	r3, [pc, #40]	; (3b08 <createQueuesAndSemaphores+0x84>)
    3ae0:	2001      	movs	r0, #1
    3ae2:	4798      	blx	r3
    3ae4:	4b09      	ldr	r3, [pc, #36]	; (3b0c <createQueuesAndSemaphores+0x88>)
    3ae6:	6018      	str	r0, [r3, #0]
    3ae8:	bdf8      	pop	{r3, r4, r5, r6, r7, pc}
    3aea:	bf00      	nop
    3aec:	00004389 	.word	0x00004389
    3af0:	20003578 	.word	0x20003578
    3af4:	20003590 	.word	0x20003590
    3af8:	20003554 	.word	0x20003554
    3afc:	20003584 	.word	0x20003584
    3b00:	2000358c 	.word	0x2000358c
    3b04:	20003588 	.word	0x20003588
    3b08:	00004589 	.word	0x00004589
    3b0c:	20003580 	.word	0x20003580

00003b10 <main>:
    3b10:	b583      	push	{r0, r1, r7, lr}
    3b12:	4b2d      	ldr	r3, [pc, #180]	; (3bc8 <main+0xb8>)
    3b14:	4d2d      	ldr	r5, [pc, #180]	; (3bcc <main+0xbc>)
    3b16:	4c2e      	ldr	r4, [pc, #184]	; (3bd0 <main+0xc0>)
    3b18:	4798      	blx	r3
    3b1a:	2702      	movs	r7, #2
    3b1c:	4b2d      	ldr	r3, [pc, #180]	; (3bd4 <main+0xc4>)
    3b1e:	9301      	str	r3, [sp, #4]
    3b20:	2296      	movs	r2, #150	; 0x96
    3b22:	2300      	movs	r3, #0
    3b24:	492c      	ldr	r1, [pc, #176]	; (3bd8 <main+0xc8>)
    3b26:	9700      	str	r7, [sp, #0]
    3b28:	482c      	ldr	r0, [pc, #176]	; (3bdc <main+0xcc>)
    3b2a:	47a8      	blx	r5
    3b2c:	2601      	movs	r6, #1
    3b2e:	4b2c      	ldr	r3, [pc, #176]	; (3be0 <main+0xd0>)
    3b30:	6020      	str	r0, [r4, #0]
    3b32:	9301      	str	r3, [sp, #4]
    3b34:	2296      	movs	r2, #150	; 0x96
    3b36:	2300      	movs	r3, #0
    3b38:	492a      	ldr	r1, [pc, #168]	; (3be4 <main+0xd4>)
    3b3a:	9600      	str	r6, [sp, #0]
    3b3c:	482a      	ldr	r0, [pc, #168]	; (3be8 <main+0xd8>)
    3b3e:	47a8      	blx	r5
    3b40:	4b2a      	ldr	r3, [pc, #168]	; (3bec <main+0xdc>)
    3b42:	6060      	str	r0, [r4, #4]
    3b44:	9301      	str	r3, [sp, #4]
    3b46:	2296      	movs	r2, #150	; 0x96
    3b48:	2300      	movs	r3, #0
    3b4a:	4929      	ldr	r1, [pc, #164]	; (3bf0 <main+0xe0>)
    3b4c:	9700      	str	r7, [sp, #0]
    3b4e:	4829      	ldr	r0, [pc, #164]	; (3bf4 <main+0xe4>)
    3b50:	47a8      	blx	r5
    3b52:	4b29      	ldr	r3, [pc, #164]	; (3bf8 <main+0xe8>)
    3b54:	60a0      	str	r0, [r4, #8]
    3b56:	9301      	str	r3, [sp, #4]
    3b58:	2296      	movs	r2, #150	; 0x96
    3b5a:	2300      	movs	r3, #0
    3b5c:	4927      	ldr	r1, [pc, #156]	; (3bfc <main+0xec>)
    3b5e:	9600      	str	r6, [sp, #0]
    3b60:	4827      	ldr	r0, [pc, #156]	; (3c00 <main+0xf0>)
    3b62:	47a8      	blx	r5
    3b64:	4b27      	ldr	r3, [pc, #156]	; (3c04 <main+0xf4>)
    3b66:	60e0      	str	r0, [r4, #12]
    3b68:	9301      	str	r3, [sp, #4]
    3b6a:	2296      	movs	r2, #150	; 0x96
    3b6c:	2300      	movs	r3, #0
    3b6e:	4926      	ldr	r1, [pc, #152]	; (3c08 <main+0xf8>)
    3b70:	9600      	str	r6, [sp, #0]
    3b72:	4826      	ldr	r0, [pc, #152]	; (3c0c <main+0xfc>)
    3b74:	47a8      	blx	r5
    3b76:	4b26      	ldr	r3, [pc, #152]	; (3c10 <main+0x100>)
    3b78:	6120      	str	r0, [r4, #16]
    3b7a:	9301      	str	r3, [sp, #4]
    3b7c:	9600      	str	r6, [sp, #0]
    3b7e:	2300      	movs	r3, #0
    3b80:	2296      	movs	r2, #150	; 0x96
    3b82:	4924      	ldr	r1, [pc, #144]	; (3c14 <main+0x104>)
    3b84:	4824      	ldr	r0, [pc, #144]	; (3c18 <main+0x108>)
    3b86:	47a8      	blx	r5
    3b88:	6823      	ldr	r3, [r4, #0]
    3b8a:	4d24      	ldr	r5, [pc, #144]	; (3c1c <main+0x10c>)
    3b8c:	42b3      	cmp	r3, r6
    3b8e:	d118      	bne.n	3bc2 <main+0xb2>
    3b90:	68e3      	ldr	r3, [r4, #12]
    3b92:	42b3      	cmp	r3, r6
    3b94:	d115      	bne.n	3bc2 <main+0xb2>
    3b96:	6863      	ldr	r3, [r4, #4]
    3b98:	42b3      	cmp	r3, r6
    3b9a:	d112      	bne.n	3bc2 <main+0xb2>
    3b9c:	68a3      	ldr	r3, [r4, #8]
    3b9e:	42b3      	cmp	r3, r6
    3ba0:	d10f      	bne.n	3bc2 <main+0xb2>
    3ba2:	6923      	ldr	r3, [r4, #16]
    3ba4:	42b3      	cmp	r3, r6
    3ba6:	d10c      	bne.n	3bc2 <main+0xb2>
    3ba8:	42b0      	cmp	r0, r6
    3baa:	d10a      	bne.n	3bc2 <main+0xb2>
    3bac:	4b1c      	ldr	r3, [pc, #112]	; (3c20 <main+0x110>)
    3bae:	4798      	blx	r3
    3bb0:	b120      	cbz	r0, 3bbc <main+0xac>
    3bb2:	4b1c      	ldr	r3, [pc, #112]	; (3c24 <main+0x114>)
    3bb4:	4798      	blx	r3
    3bb6:	481c      	ldr	r0, [pc, #112]	; (3c28 <main+0x118>)
    3bb8:	47a8      	blx	r5
    3bba:	e7fe      	b.n	3bba <main+0xaa>
    3bbc:	481b      	ldr	r0, [pc, #108]	; (3c2c <main+0x11c>)
    3bbe:	47a8      	blx	r5
    3bc0:	e7f9      	b.n	3bb6 <main+0xa6>
    3bc2:	481b      	ldr	r0, [pc, #108]	; (3c30 <main+0x120>)
    3bc4:	e7fb      	b.n	3bbe <main+0xae>
    3bc6:	bf00      	nop
    3bc8:	00002a39 	.word	0x00002a39
    3bcc:	00004af1 	.word	0x00004af1
    3bd0:	20000bf0 	.word	0x20000bf0
    3bd4:	2000357c 	.word	0x2000357c
    3bd8:	00008258 	.word	0x00008258
    3bdc:	00000ed9 	.word	0x00000ed9
    3be0:	20003558 	.word	0x20003558
    3be4:	00008263 	.word	0x00008263
    3be8:	0000271d 	.word	0x0000271d
    3bec:	20003570 	.word	0x20003570
    3bf0:	0000826f 	.word	0x0000826f
    3bf4:	000026b5 	.word	0x000026b5
    3bf8:	20003564 	.word	0x20003564
    3bfc:	0000827b 	.word	0x0000827b
    3c00:	00002491 	.word	0x00002491
    3c04:	20003568 	.word	0x20003568
    3c08:	0000828c 	.word	0x0000828c
    3c0c:	00002071 	.word	0x00002071
    3c10:	20003560 	.word	0x20003560
    3c14:	0000829a 	.word	0x0000829a
    3c18:	00000545 	.word	0x00000545
    3c1c:	000028a5 	.word	0x000028a5
    3c20:	00003a85 	.word	0x00003a85
    3c24:	00004c91 	.word	0x00004c91
    3c28:	000082dd 	.word	0x000082dd
    3c2c:	000082a6 	.word	0x000082a6
    3c30:	000082c6 	.word	0x000082c6

00003c34 <vListInitialise>:
    3c34:	f100 0308 	add.w	r3, r0, #8
    3c38:	6043      	str	r3, [r0, #4]
    3c3a:	f04f 32ff 	mov.w	r2, #4294967295
    3c3e:	60c3      	str	r3, [r0, #12]
    3c40:	6103      	str	r3, [r0, #16]
    3c42:	2300      	movs	r3, #0
    3c44:	6082      	str	r2, [r0, #8]
    3c46:	6003      	str	r3, [r0, #0]
    3c48:	4770      	bx	lr

00003c4a <vListInitialiseItem>:
    3c4a:	2300      	movs	r3, #0
    3c4c:	6103      	str	r3, [r0, #16]
    3c4e:	4770      	bx	lr

00003c50 <vListInsertEnd>:
    3c50:	6843      	ldr	r3, [r0, #4]
    3c52:	604b      	str	r3, [r1, #4]
    3c54:	689a      	ldr	r2, [r3, #8]
    3c56:	608a      	str	r2, [r1, #8]
    3c58:	689a      	ldr	r2, [r3, #8]
    3c5a:	6051      	str	r1, [r2, #4]
    3c5c:	6099      	str	r1, [r3, #8]
    3c5e:	6803      	ldr	r3, [r0, #0]
    3c60:	6108      	str	r0, [r1, #16]
    3c62:	3301      	adds	r3, #1
    3c64:	6003      	str	r3, [r0, #0]
    3c66:	4770      	bx	lr

00003c68 <vListInsert>:
    3c68:	680a      	ldr	r2, [r1, #0]
    3c6a:	1c53      	adds	r3, r2, #1
    3c6c:	b530      	push	{r4, r5, lr}
    3c6e:	d10a      	bne.n	3c86 <vListInsert+0x1e>
    3c70:	6903      	ldr	r3, [r0, #16]
    3c72:	685a      	ldr	r2, [r3, #4]
    3c74:	604a      	str	r2, [r1, #4]
    3c76:	6091      	str	r1, [r2, #8]
    3c78:	608b      	str	r3, [r1, #8]
    3c7a:	6059      	str	r1, [r3, #4]
    3c7c:	6803      	ldr	r3, [r0, #0]
    3c7e:	6108      	str	r0, [r1, #16]
    3c80:	3301      	adds	r3, #1
    3c82:	6003      	str	r3, [r0, #0]
    3c84:	bd30      	pop	{r4, r5, pc}
    3c86:	f100 0308 	add.w	r3, r0, #8
    3c8a:	685c      	ldr	r4, [r3, #4]
    3c8c:	6825      	ldr	r5, [r4, #0]
    3c8e:	42aa      	cmp	r2, r5
    3c90:	d3ef      	bcc.n	3c72 <vListInsert+0xa>
    3c92:	4623      	mov	r3, r4
    3c94:	e7f9      	b.n	3c8a <vListInsert+0x22>

00003c96 <uxListRemove>:
    3c96:	6841      	ldr	r1, [r0, #4]
    3c98:	6882      	ldr	r2, [r0, #8]
    3c9a:	6903      	ldr	r3, [r0, #16]
    3c9c:	608a      	str	r2, [r1, #8]
    3c9e:	6882      	ldr	r2, [r0, #8]
    3ca0:	6051      	str	r1, [r2, #4]
    3ca2:	6859      	ldr	r1, [r3, #4]
    3ca4:	4288      	cmp	r0, r1
    3ca6:	bf08      	it	eq
    3ca8:	605a      	streq	r2, [r3, #4]
    3caa:	2200      	movs	r2, #0
    3cac:	6102      	str	r2, [r0, #16]
    3cae:	681a      	ldr	r2, [r3, #0]
    3cb0:	3a01      	subs	r2, #1
    3cb2:	601a      	str	r2, [r3, #0]
    3cb4:	6818      	ldr	r0, [r3, #0]
    3cb6:	4770      	bx	lr

00003cb8 <prvTaskExitError>:
    3cb8:	b082      	sub	sp, #8
    3cba:	2300      	movs	r3, #0
    3cbc:	9301      	str	r3, [sp, #4]
    3cbe:	4b0d      	ldr	r3, [pc, #52]	; (3cf4 <prvTaskExitError+0x3c>)
    3cc0:	681b      	ldr	r3, [r3, #0]
    3cc2:	3301      	adds	r3, #1
    3cc4:	d008      	beq.n	3cd8 <prvTaskExitError+0x20>
    3cc6:	f04f 0380 	mov.w	r3, #128	; 0x80
    3cca:	f383 8811 	msr	BASEPRI, r3
    3cce:	f3bf 8f6f 	isb	sy
    3cd2:	f3bf 8f4f 	dsb	sy
    3cd6:	e7fe      	b.n	3cd6 <prvTaskExitError+0x1e>
    3cd8:	f04f 0380 	mov.w	r3, #128	; 0x80
    3cdc:	f383 8811 	msr	BASEPRI, r3
    3ce0:	f3bf 8f6f 	isb	sy
    3ce4:	f3bf 8f4f 	dsb	sy
    3ce8:	9b01      	ldr	r3, [sp, #4]
    3cea:	2b00      	cmp	r3, #0
    3cec:	d0fc      	beq.n	3ce8 <prvTaskExitError+0x30>
    3cee:	b002      	add	sp, #8
    3cf0:	4770      	bx	lr
    3cf2:	bf00      	nop
    3cf4:	20000090 	.word	0x20000090

00003cf8 <prvPortStartFirstTask>:
    3cf8:	4808      	ldr	r0, [pc, #32]	; (3d1c <prvPortStartFirstTask+0x24>)
    3cfa:	6800      	ldr	r0, [r0, #0]
    3cfc:	6800      	ldr	r0, [r0, #0]
    3cfe:	f380 8808 	msr	MSP, r0
    3d02:	f04f 0000 	mov.w	r0, #0
    3d06:	f380 8814 	msr	CONTROL, r0
    3d0a:	b662      	cpsie	i
    3d0c:	b661      	cpsie	f
    3d0e:	f3bf 8f4f 	dsb	sy
    3d12:	f3bf 8f6f 	isb	sy
    3d16:	df00      	svc	0
    3d18:	bf00      	nop
    3d1a:	0000      	.short	0x0000
    3d1c:	e000ed08 	.word	0xe000ed08

00003d20 <vPortEnableVFP>:
    3d20:	f8df 000c 	ldr.w	r0, [pc, #12]	; 3d30 <vPortEnableVFP+0x10>
    3d24:	6801      	ldr	r1, [r0, #0]
    3d26:	f441 0170 	orr.w	r1, r1, #15728640	; 0xf00000
    3d2a:	6001      	str	r1, [r0, #0]
    3d2c:	4770      	bx	lr
    3d2e:	0000      	.short	0x0000
    3d30:	e000ed88 	.word	0xe000ed88

00003d34 <pxPortInitialiseStack>:
    3d34:	f04f 7380 	mov.w	r3, #16777216	; 0x1000000
    3d38:	f840 3c04 	str.w	r3, [r0, #-4]
    3d3c:	4b07      	ldr	r3, [pc, #28]	; (3d5c <pxPortInitialiseStack+0x28>)
    3d3e:	f840 3c0c 	str.w	r3, [r0, #-12]
    3d42:	f021 0101 	bic.w	r1, r1, #1
    3d46:	f06f 0302 	mvn.w	r3, #2
    3d4a:	f840 1c08 	str.w	r1, [r0, #-8]
    3d4e:	f840 2c20 	str.w	r2, [r0, #-32]
    3d52:	f840 3c24 	str.w	r3, [r0, #-36]
    3d56:	3844      	subs	r0, #68	; 0x44
    3d58:	4770      	bx	lr
    3d5a:	bf00      	nop
    3d5c:	00003cb9 	.word	0x00003cb9

00003d60 <SVC_Handler>:
    3d60:	4b07      	ldr	r3, [pc, #28]	; (3d80 <pxCurrentTCBConst2>)
    3d62:	6819      	ldr	r1, [r3, #0]
    3d64:	6808      	ldr	r0, [r1, #0]
    3d66:	e8b0 4ff0 	ldmia.w	r0!, {r4, r5, r6, r7, r8, r9, sl, fp, lr}
    3d6a:	f380 8809 	msr	PSP, r0
    3d6e:	f3bf 8f6f 	isb	sy
    3d72:	f04f 0000 	mov.w	r0, #0
    3d76:	f380 8811 	msr	BASEPRI, r0
    3d7a:	4770      	bx	lr
    3d7c:	f3af 8000 	nop.w

00003d80 <pxCurrentTCBConst2>:
    3d80:	20003490 	.word	0x20003490

00003d84 <vPortEnterCritical>:
    3d84:	f04f 0380 	mov.w	r3, #128	; 0x80
    3d88:	f383 8811 	msr	BASEPRI, r3
    3d8c:	f3bf 8f6f 	isb	sy
    3d90:	f3bf 8f4f 	dsb	sy
    3d94:	4a0a      	ldr	r2, [pc, #40]	; (3dc0 <vPortEnterCritical+0x3c>)
    3d96:	6813      	ldr	r3, [r2, #0]
    3d98:	3301      	adds	r3, #1
    3d9a:	2b01      	cmp	r3, #1
    3d9c:	6013      	str	r3, [r2, #0]
    3d9e:	d10d      	bne.n	3dbc <vPortEnterCritical+0x38>
    3da0:	4b08      	ldr	r3, [pc, #32]	; (3dc4 <vPortEnterCritical+0x40>)
    3da2:	681b      	ldr	r3, [r3, #0]
    3da4:	f013 0fff 	tst.w	r3, #255	; 0xff
    3da8:	d008      	beq.n	3dbc <vPortEnterCritical+0x38>
    3daa:	f04f 0380 	mov.w	r3, #128	; 0x80
    3dae:	f383 8811 	msr	BASEPRI, r3
    3db2:	f3bf 8f6f 	isb	sy
    3db6:	f3bf 8f4f 	dsb	sy
    3dba:	e7fe      	b.n	3dba <vPortEnterCritical+0x36>
    3dbc:	4770      	bx	lr
    3dbe:	bf00      	nop
    3dc0:	20000090 	.word	0x20000090
    3dc4:	e000ed04 	.word	0xe000ed04

00003dc8 <vPortExitCritical>:
    3dc8:	4a08      	ldr	r2, [pc, #32]	; (3dec <vPortExitCritical+0x24>)
    3dca:	6813      	ldr	r3, [r2, #0]
    3dcc:	b943      	cbnz	r3, 3de0 <vPortExitCritical+0x18>
    3dce:	f04f 0380 	mov.w	r3, #128	; 0x80
    3dd2:	f383 8811 	msr	BASEPRI, r3
    3dd6:	f3bf 8f6f 	isb	sy
    3dda:	f3bf 8f4f 	dsb	sy
    3dde:	e7fe      	b.n	3dde <vPortExitCritical+0x16>
    3de0:	3b01      	subs	r3, #1
    3de2:	6013      	str	r3, [r2, #0]
    3de4:	b90b      	cbnz	r3, 3dea <vPortExitCritical+0x22>
    3de6:	f383 8811 	msr	BASEPRI, r3
    3dea:	4770      	bx	lr
    3dec:	20000090 	.word	0x20000090

00003df0 <PendSV_Handler>:
    3df0:	f3ef 8009 	mrs	r0, PSP
    3df4:	f3bf 8f6f 	isb	sy
    3df8:	4b15      	ldr	r3, [pc, #84]	; (3e50 <pxCurrentTCBConst>)
    3dfa:	681a      	ldr	r2, [r3, #0]
    3dfc:	f01e 0f10 	tst.w	lr, #16
    3e00:	bf08      	it	eq
    3e02:	ed20 8a10 	vstmdbeq	r0!, {s16-s31}
    3e06:	e920 4ff0 	stmdb	r0!, {r4, r5, r6, r7, r8, r9, sl, fp, lr}
    3e0a:	6010      	str	r0, [r2, #0]
    3e0c:	e92d 0009 	stmdb	sp!, {r0, r3}
    3e10:	f04f 0080 	mov.w	r0, #128	; 0x80
    3e14:	f380 8811 	msr	BASEPRI, r0
    3e18:	f3bf 8f4f 	dsb	sy
    3e1c:	f3bf 8f6f 	isb	sy
    3e20:	f001 f89e 	bl	4f60 <vTaskSwitchContext>
    3e24:	f04f 0000 	mov.w	r0, #0
    3e28:	f380 8811 	msr	BASEPRI, r0
    3e2c:	bc09      	pop	{r0, r3}
    3e2e:	6819      	ldr	r1, [r3, #0]
    3e30:	6808      	ldr	r0, [r1, #0]
    3e32:	e8b0 4ff0 	ldmia.w	r0!, {r4, r5, r6, r7, r8, r9, sl, fp, lr}
    3e36:	f01e 0f10 	tst.w	lr, #16
    3e3a:	bf08      	it	eq
    3e3c:	ecb0 8a10 	vldmiaeq	r0!, {s16-s31}
    3e40:	f380 8809 	msr	PSP, r0
    3e44:	f3bf 8f6f 	isb	sy
    3e48:	4770      	bx	lr
    3e4a:	bf00      	nop
    3e4c:	f3af 8000 	nop.w

00003e50 <pxCurrentTCBConst>:
    3e50:	20003490 	.word	0x20003490

00003e54 <SysTick_Handler>:
    3e54:	b508      	push	{r3, lr}
    3e56:	f04f 0380 	mov.w	r3, #128	; 0x80
    3e5a:	f383 8811 	msr	BASEPRI, r3
    3e5e:	f3bf 8f6f 	isb	sy
    3e62:	f3bf 8f4f 	dsb	sy
    3e66:	4b05      	ldr	r3, [pc, #20]	; (3e7c <SysTick_Handler+0x28>)
    3e68:	4798      	blx	r3
    3e6a:	b118      	cbz	r0, 3e74 <SysTick_Handler+0x20>
    3e6c:	4b04      	ldr	r3, [pc, #16]	; (3e80 <SysTick_Handler+0x2c>)
    3e6e:	f04f 5280 	mov.w	r2, #268435456	; 0x10000000
    3e72:	601a      	str	r2, [r3, #0]
    3e74:	2300      	movs	r3, #0
    3e76:	f383 8811 	msr	BASEPRI, r3
    3e7a:	bd08      	pop	{r3, pc}
    3e7c:	00004d31 	.word	0x00004d31
    3e80:	e000ed04 	.word	0xe000ed04

00003e84 <vPortSetupTimerInterrupt>:
    3e84:	4b05      	ldr	r3, [pc, #20]	; (3e9c <vPortSetupTimerInterrupt+0x18>)
    3e86:	4906      	ldr	r1, [pc, #24]	; (3ea0 <vPortSetupTimerInterrupt+0x1c>)
    3e88:	2200      	movs	r2, #0
    3e8a:	601a      	str	r2, [r3, #0]
    3e8c:	600a      	str	r2, [r1, #0]
    3e8e:	4a05      	ldr	r2, [pc, #20]	; (3ea4 <vPortSetupTimerInterrupt+0x20>)
    3e90:	f64b 317f 	movw	r1, #47999	; 0xbb7f
    3e94:	6011      	str	r1, [r2, #0]
    3e96:	2207      	movs	r2, #7
    3e98:	601a      	str	r2, [r3, #0]
    3e9a:	4770      	bx	lr
    3e9c:	e000e010 	.word	0xe000e010
    3ea0:	e000e018 	.word	0xe000e018
    3ea4:	e000e014 	.word	0xe000e014

00003ea8 <xPortStartScheduler>:
    3ea8:	4b38      	ldr	r3, [pc, #224]	; (3f8c <xPortStartScheduler+0xe4>)
    3eaa:	4a39      	ldr	r2, [pc, #228]	; (3f90 <xPortStartScheduler+0xe8>)
    3eac:	b513      	push	{r0, r1, r4, lr}
    3eae:	6819      	ldr	r1, [r3, #0]
    3eb0:	4291      	cmp	r1, r2
    3eb2:	d108      	bne.n	3ec6 <xPortStartScheduler+0x1e>
    3eb4:	f04f 0380 	mov.w	r3, #128	; 0x80
    3eb8:	f383 8811 	msr	BASEPRI, r3
    3ebc:	f3bf 8f6f 	isb	sy
    3ec0:	f3bf 8f4f 	dsb	sy
    3ec4:	e7fe      	b.n	3ec4 <xPortStartScheduler+0x1c>
    3ec6:	681a      	ldr	r2, [r3, #0]
    3ec8:	4b32      	ldr	r3, [pc, #200]	; (3f94 <xPortStartScheduler+0xec>)
    3eca:	429a      	cmp	r2, r3
    3ecc:	d108      	bne.n	3ee0 <xPortStartScheduler+0x38>
    3ece:	f04f 0380 	mov.w	r3, #128	; 0x80
    3ed2:	f383 8811 	msr	BASEPRI, r3
    3ed6:	f3bf 8f6f 	isb	sy
    3eda:	f3bf 8f4f 	dsb	sy
    3ede:	e7fe      	b.n	3ede <xPortStartScheduler+0x36>
    3ee0:	4b2d      	ldr	r3, [pc, #180]	; (3f98 <xPortStartScheduler+0xf0>)
    3ee2:	781a      	ldrb	r2, [r3, #0]
    3ee4:	b2d2      	uxtb	r2, r2
    3ee6:	9201      	str	r2, [sp, #4]
    3ee8:	22ff      	movs	r2, #255	; 0xff
    3eea:	701a      	strb	r2, [r3, #0]
    3eec:	781b      	ldrb	r3, [r3, #0]
    3eee:	b2db      	uxtb	r3, r3
    3ef0:	f88d 3003 	strb.w	r3, [sp, #3]
    3ef4:	f89d 2003 	ldrb.w	r2, [sp, #3]
    3ef8:	4b28      	ldr	r3, [pc, #160]	; (3f9c <xPortStartScheduler+0xf4>)
    3efa:	f002 0280 	and.w	r2, r2, #128	; 0x80
    3efe:	701a      	strb	r2, [r3, #0]
    3f00:	2207      	movs	r2, #7
    3f02:	605a      	str	r2, [r3, #4]
    3f04:	2100      	movs	r1, #0
    3f06:	f89d 0003 	ldrb.w	r0, [sp, #3]
    3f0a:	0600      	lsls	r0, r0, #24
    3f0c:	f102 34ff 	add.w	r4, r2, #4294967295
    3f10:	d40d      	bmi.n	3f2e <xPortStartScheduler+0x86>
    3f12:	b101      	cbz	r1, 3f16 <xPortStartScheduler+0x6e>
    3f14:	605a      	str	r2, [r3, #4]
    3f16:	685a      	ldr	r2, [r3, #4]
    3f18:	2a04      	cmp	r2, #4
    3f1a:	d011      	beq.n	3f40 <xPortStartScheduler+0x98>
    3f1c:	f04f 0380 	mov.w	r3, #128	; 0x80
    3f20:	f383 8811 	msr	BASEPRI, r3
    3f24:	f3bf 8f6f 	isb	sy
    3f28:	f3bf 8f4f 	dsb	sy
    3f2c:	e7fe      	b.n	3f2c <xPortStartScheduler+0x84>
    3f2e:	f89d 2003 	ldrb.w	r2, [sp, #3]
    3f32:	0052      	lsls	r2, r2, #1
    3f34:	b2d2      	uxtb	r2, r2
    3f36:	f88d 2003 	strb.w	r2, [sp, #3]
    3f3a:	2101      	movs	r1, #1
    3f3c:	4622      	mov	r2, r4
    3f3e:	e7e2      	b.n	3f06 <xPortStartScheduler+0x5e>
    3f40:	0212      	lsls	r2, r2, #8
    3f42:	f402 62e0 	and.w	r2, r2, #1792	; 0x700
    3f46:	605a      	str	r2, [r3, #4]
    3f48:	9b01      	ldr	r3, [sp, #4]
    3f4a:	4a13      	ldr	r2, [pc, #76]	; (3f98 <xPortStartScheduler+0xf0>)
    3f4c:	b2db      	uxtb	r3, r3
    3f4e:	7013      	strb	r3, [r2, #0]
    3f50:	4b13      	ldr	r3, [pc, #76]	; (3fa0 <xPortStartScheduler+0xf8>)
    3f52:	681a      	ldr	r2, [r3, #0]
    3f54:	f442 0260 	orr.w	r2, r2, #14680064	; 0xe00000
    3f58:	601a      	str	r2, [r3, #0]
    3f5a:	681a      	ldr	r2, [r3, #0]
    3f5c:	f042 4260 	orr.w	r2, r2, #3758096384	; 0xe0000000
    3f60:	601a      	str	r2, [r3, #0]
    3f62:	4b10      	ldr	r3, [pc, #64]	; (3fa4 <xPortStartScheduler+0xfc>)
    3f64:	4798      	blx	r3
    3f66:	4b10      	ldr	r3, [pc, #64]	; (3fa8 <xPortStartScheduler+0x100>)
    3f68:	2400      	movs	r4, #0
    3f6a:	601c      	str	r4, [r3, #0]
    3f6c:	4b0f      	ldr	r3, [pc, #60]	; (3fac <xPortStartScheduler+0x104>)
    3f6e:	4798      	blx	r3
    3f70:	4a0f      	ldr	r2, [pc, #60]	; (3fb0 <xPortStartScheduler+0x108>)
    3f72:	6813      	ldr	r3, [r2, #0]
    3f74:	f043 4340 	orr.w	r3, r3, #3221225472	; 0xc0000000
    3f78:	6013      	str	r3, [r2, #0]
    3f7a:	4b0e      	ldr	r3, [pc, #56]	; (3fb4 <xPortStartScheduler+0x10c>)
    3f7c:	4798      	blx	r3
    3f7e:	4b0e      	ldr	r3, [pc, #56]	; (3fb8 <xPortStartScheduler+0x110>)
    3f80:	4798      	blx	r3
    3f82:	4b0e      	ldr	r3, [pc, #56]	; (3fbc <xPortStartScheduler+0x114>)
    3f84:	4798      	blx	r3
    3f86:	4620      	mov	r0, r4
    3f88:	b002      	add	sp, #8
    3f8a:	bd10      	pop	{r4, pc}
    3f8c:	e000ed00 	.word	0xe000ed00
    3f90:	410fc271 	.word	0x410fc271
    3f94:	410fc270 	.word	0x410fc270
    3f98:	e000e400 	.word	0xe000e400
    3f9c:	20000c04 	.word	0x20000c04
    3fa0:	e000ed20 	.word	0xe000ed20
    3fa4:	00003e85 	.word	0x00003e85
    3fa8:	20000090 	.word	0x20000090
    3fac:	00003d21 	.word	0x00003d21
    3fb0:	e000ef34 	.word	0xe000ef34
    3fb4:	00003cf9 	.word	0x00003cf9
    3fb8:	00004f61 	.word	0x00004f61
    3fbc:	00003cb9 	.word	0x00003cb9

00003fc0 <vPortValidateInterruptPriority>:
    3fc0:	f3ef 8305 	mrs	r3, IPSR
    3fc4:	2b0f      	cmp	r3, #15
    3fc6:	4a10      	ldr	r2, [pc, #64]	; (4008 <vPortValidateInterruptPriority+0x48>)
    3fc8:	d90d      	bls.n	3fe6 <vPortValidateInterruptPriority+0x26>
    3fca:	4910      	ldr	r1, [pc, #64]	; (400c <vPortValidateInterruptPriority+0x4c>)
    3fcc:	5c5b      	ldrb	r3, [r3, r1]
    3fce:	7811      	ldrb	r1, [r2, #0]
    3fd0:	4299      	cmp	r1, r3
    3fd2:	d908      	bls.n	3fe6 <vPortValidateInterruptPriority+0x26>
    3fd4:	f04f 0380 	mov.w	r3, #128	; 0x80
    3fd8:	f383 8811 	msr	BASEPRI, r3
    3fdc:	f3bf 8f6f 	isb	sy
    3fe0:	f3bf 8f4f 	dsb	sy
    3fe4:	e7fe      	b.n	3fe4 <vPortValidateInterruptPriority+0x24>
    3fe6:	4b0a      	ldr	r3, [pc, #40]	; (4010 <vPortValidateInterruptPriority+0x50>)
    3fe8:	6852      	ldr	r2, [r2, #4]
    3fea:	681b      	ldr	r3, [r3, #0]
    3fec:	f403 63e0 	and.w	r3, r3, #1792	; 0x700
    3ff0:	4293      	cmp	r3, r2
    3ff2:	d908      	bls.n	4006 <vPortValidateInterruptPriority+0x46>
    3ff4:	f04f 0380 	mov.w	r3, #128	; 0x80
    3ff8:	f383 8811 	msr	BASEPRI, r3
    3ffc:	f3bf 8f6f 	isb	sy
    4000:	f3bf 8f4f 	dsb	sy
    4004:	e7fe      	b.n	4004 <vPortValidateInterruptPriority+0x44>
    4006:	4770      	bx	lr
    4008:	20000c04 	.word	0x20000c04
    400c:	e000e3f0 	.word	0xe000e3f0
    4010:	e000ed0c 	.word	0xe000ed0c

00004014 <pvPortMalloc>:
    4014:	b570      	push	{r4, r5, r6, lr}
    4016:	4b2b      	ldr	r3, [pc, #172]	; (40c4 <pvPortMalloc+0xb0>)
    4018:	4604      	mov	r4, r0
    401a:	4798      	blx	r3
    401c:	4b2a      	ldr	r3, [pc, #168]	; (40c8 <pvPortMalloc+0xb4>)
    401e:	6898      	ldr	r0, [r3, #8]
    4020:	b990      	cbnz	r0, 4048 <pvPortMalloc+0x34>
    4022:	492a      	ldr	r1, [pc, #168]	; (40cc <pvPortMalloc+0xb8>)
    4024:	6058      	str	r0, [r3, #4]
    4026:	f103 0214 	add.w	r2, r3, #20
    402a:	f022 0207 	bic.w	r2, r2, #7
    402e:	f242 75f8 	movw	r5, #10232	; 0x27f8
    4032:	f8c1 5620 	str.w	r5, [r1, #1568]	; 0x620
    4036:	f8c1 061c 	str.w	r0, [r1, #1564]	; 0x61c
    403a:	f201 611c 	addw	r1, r1, #1564	; 0x61c
    403e:	601a      	str	r2, [r3, #0]
    4040:	6055      	str	r5, [r2, #4]
    4042:	6011      	str	r1, [r2, #0]
    4044:	2201      	movs	r2, #1
    4046:	609a      	str	r2, [r3, #8]
    4048:	b12c      	cbz	r4, 4056 <pvPortMalloc+0x42>
    404a:	3408      	adds	r4, #8
    404c:	0762      	lsls	r2, r4, #29
    404e:	bf1c      	itt	ne
    4050:	f024 0407 	bicne.w	r4, r4, #7
    4054:	3408      	addne	r4, #8
    4056:	1e61      	subs	r1, r4, #1
    4058:	f242 72f6 	movw	r2, #10230	; 0x27f6
    405c:	4291      	cmp	r1, r2
    405e:	d807      	bhi.n	4070 <pvPortMalloc+0x5c>
    4060:	681b      	ldr	r3, [r3, #0]
    4062:	4919      	ldr	r1, [pc, #100]	; (40c8 <pvPortMalloc+0xb4>)
    4064:	685a      	ldr	r2, [r3, #4]
    4066:	4294      	cmp	r4, r2
    4068:	d804      	bhi.n	4074 <pvPortMalloc+0x60>
    406a:	4819      	ldr	r0, [pc, #100]	; (40d0 <pvPortMalloc+0xbc>)
    406c:	4283      	cmp	r3, r0
    406e:	d107      	bne.n	4080 <pvPortMalloc+0x6c>
    4070:	2500      	movs	r5, #0
    4072:	e01d      	b.n	40b0 <pvPortMalloc+0x9c>
    4074:	6818      	ldr	r0, [r3, #0]
    4076:	2800      	cmp	r0, #0
    4078:	d0f7      	beq.n	406a <pvPortMalloc+0x56>
    407a:	4619      	mov	r1, r3
    407c:	4603      	mov	r3, r0
    407e:	e7f1      	b.n	4064 <pvPortMalloc+0x50>
    4080:	680d      	ldr	r5, [r1, #0]
    4082:	6818      	ldr	r0, [r3, #0]
    4084:	6008      	str	r0, [r1, #0]
    4086:	1b12      	subs	r2, r2, r4
    4088:	2a10      	cmp	r2, #16
    408a:	f105 0508 	add.w	r5, r5, #8
    408e:	d90a      	bls.n	40a6 <pvPortMalloc+0x92>
    4090:	1919      	adds	r1, r3, r4
    4092:	604a      	str	r2, [r1, #4]
    4094:	605c      	str	r4, [r3, #4]
    4096:	684e      	ldr	r6, [r1, #4]
    4098:	4a0b      	ldr	r2, [pc, #44]	; (40c8 <pvPortMalloc+0xb4>)
    409a:	6810      	ldr	r0, [r2, #0]
    409c:	6844      	ldr	r4, [r0, #4]
    409e:	42a6      	cmp	r6, r4
    40a0:	d80d      	bhi.n	40be <pvPortMalloc+0xaa>
    40a2:	6008      	str	r0, [r1, #0]
    40a4:	6011      	str	r1, [r2, #0]
    40a6:	490b      	ldr	r1, [pc, #44]	; (40d4 <pvPortMalloc+0xc0>)
    40a8:	685b      	ldr	r3, [r3, #4]
    40aa:	680a      	ldr	r2, [r1, #0]
    40ac:	1ad2      	subs	r2, r2, r3
    40ae:	600a      	str	r2, [r1, #0]
    40b0:	4b09      	ldr	r3, [pc, #36]	; (40d8 <pvPortMalloc+0xc4>)
    40b2:	4798      	blx	r3
    40b4:	b90d      	cbnz	r5, 40ba <pvPortMalloc+0xa6>
    40b6:	4b09      	ldr	r3, [pc, #36]	; (40dc <pvPortMalloc+0xc8>)
    40b8:	4798      	blx	r3
    40ba:	4628      	mov	r0, r5
    40bc:	bd70      	pop	{r4, r5, r6, pc}
    40be:	4602      	mov	r2, r0
    40c0:	e7eb      	b.n	409a <pvPortMalloc+0x86>
    40c2:	bf00      	nop
    40c4:	00004d11 	.word	0x00004d11
    40c8:	20000c0c 	.word	0x20000c0c
    40cc:	20002dfc 	.word	0x20002dfc
    40d0:	20003418 	.word	0x20003418
    40d4:	20000094 	.word	0x20000094
    40d8:	00004e1d 	.word	0x00004e1d
    40dc:	0000033d 	.word	0x0000033d

000040e0 <vPortFree>:
    40e0:	b570      	push	{r4, r5, r6, lr}
    40e2:	4604      	mov	r4, r0
    40e4:	b1b8      	cbz	r0, 4116 <vPortFree+0x36>
    40e6:	4b0c      	ldr	r3, [pc, #48]	; (4118 <vPortFree+0x38>)
    40e8:	f1a0 0508 	sub.w	r5, r0, #8
    40ec:	4798      	blx	r3
    40ee:	f854 0c04 	ldr.w	r0, [r4, #-4]
    40f2:	4a0a      	ldr	r2, [pc, #40]	; (411c <vPortFree+0x3c>)
    40f4:	6811      	ldr	r1, [r2, #0]
    40f6:	684b      	ldr	r3, [r1, #4]
    40f8:	4298      	cmp	r0, r3
    40fa:	d80a      	bhi.n	4112 <vPortFree+0x32>
    40fc:	f844 1c08 	str.w	r1, [r4, #-8]
    4100:	6015      	str	r5, [r2, #0]
    4102:	4a07      	ldr	r2, [pc, #28]	; (4120 <vPortFree+0x40>)
    4104:	6813      	ldr	r3, [r2, #0]
    4106:	4403      	add	r3, r0
    4108:	6013      	str	r3, [r2, #0]
    410a:	e8bd 4070 	ldmia.w	sp!, {r4, r5, r6, lr}
    410e:	4b05      	ldr	r3, [pc, #20]	; (4124 <vPortFree+0x44>)
    4110:	4718      	bx	r3
    4112:	460a      	mov	r2, r1
    4114:	e7ee      	b.n	40f4 <vPortFree+0x14>
    4116:	bd70      	pop	{r4, r5, r6, pc}
    4118:	00004d11 	.word	0x00004d11
    411c:	20000c0c 	.word	0x20000c0c
    4120:	20000094 	.word	0x20000094
    4124:	00004e1d 	.word	0x00004e1d

00004128 <prvIsQueueEmpty>:
    4128:	b510      	push	{r4, lr}
    412a:	4604      	mov	r4, r0
    412c:	4b04      	ldr	r3, [pc, #16]	; (4140 <prvIsQueueEmpty+0x18>)
    412e:	4798      	blx	r3
    4130:	6ba4      	ldr	r4, [r4, #56]	; 0x38
    4132:	4b04      	ldr	r3, [pc, #16]	; (4144 <prvIsQueueEmpty+0x1c>)
    4134:	4798      	blx	r3
    4136:	fab4 f084 	clz	r0, r4
    413a:	0940      	lsrs	r0, r0, #5
    413c:	bd10      	pop	{r4, pc}
    413e:	bf00      	nop
    4140:	00003d85 	.word	0x00003d85
    4144:	00003dc9 	.word	0x00003dc9

00004148 <prvCopyDataToQueue>:
    4148:	b570      	push	{r4, r5, r6, lr}
    414a:	4615      	mov	r5, r2
    414c:	6c02      	ldr	r2, [r0, #64]	; 0x40
    414e:	6b86      	ldr	r6, [r0, #56]	; 0x38
    4150:	4604      	mov	r4, r0
    4152:	b942      	cbnz	r2, 4166 <prvCopyDataToQueue+0x1e>
    4154:	6805      	ldr	r5, [r0, #0]
    4156:	b99d      	cbnz	r5, 4180 <prvCopyDataToQueue+0x38>
    4158:	6840      	ldr	r0, [r0, #4]
    415a:	4b14      	ldr	r3, [pc, #80]	; (41ac <prvCopyDataToQueue+0x64>)
    415c:	4798      	blx	r3
    415e:	6065      	str	r5, [r4, #4]
    4160:	3601      	adds	r6, #1
    4162:	63a6      	str	r6, [r4, #56]	; 0x38
    4164:	bd70      	pop	{r4, r5, r6, pc}
    4166:	4b12      	ldr	r3, [pc, #72]	; (41b0 <prvCopyDataToQueue+0x68>)
    4168:	b965      	cbnz	r5, 4184 <prvCopyDataToQueue+0x3c>
    416a:	6880      	ldr	r0, [r0, #8]
    416c:	4798      	blx	r3
    416e:	68a3      	ldr	r3, [r4, #8]
    4170:	6c22      	ldr	r2, [r4, #64]	; 0x40
    4172:	4413      	add	r3, r2
    4174:	6862      	ldr	r2, [r4, #4]
    4176:	60a3      	str	r3, [r4, #8]
    4178:	4293      	cmp	r3, r2
    417a:	d301      	bcc.n	4180 <prvCopyDataToQueue+0x38>
    417c:	6823      	ldr	r3, [r4, #0]
    417e:	60a3      	str	r3, [r4, #8]
    4180:	2000      	movs	r0, #0
    4182:	e7ed      	b.n	4160 <prvCopyDataToQueue+0x18>
    4184:	68c0      	ldr	r0, [r0, #12]
    4186:	4798      	blx	r3
    4188:	6c23      	ldr	r3, [r4, #64]	; 0x40
    418a:	68e2      	ldr	r2, [r4, #12]
    418c:	6821      	ldr	r1, [r4, #0]
    418e:	425b      	negs	r3, r3
    4190:	441a      	add	r2, r3
    4192:	428a      	cmp	r2, r1
    4194:	60e2      	str	r2, [r4, #12]
    4196:	bf3e      	ittt	cc
    4198:	6862      	ldrcc	r2, [r4, #4]
    419a:	189b      	addcc	r3, r3, r2
    419c:	60e3      	strcc	r3, [r4, #12]
    419e:	2d02      	cmp	r5, #2
    41a0:	d1ee      	bne.n	4180 <prvCopyDataToQueue+0x38>
    41a2:	b10e      	cbz	r6, 41a8 <prvCopyDataToQueue+0x60>
    41a4:	3e01      	subs	r6, #1
    41a6:	e7eb      	b.n	4180 <prvCopyDataToQueue+0x38>
    41a8:	4630      	mov	r0, r6
    41aa:	e7d9      	b.n	4160 <prvCopyDataToQueue+0x18>
    41ac:	00005231 	.word	0x00005231
    41b0:	00005975 	.word	0x00005975

000041b4 <prvCopyDataFromQueue>:
    41b4:	4603      	mov	r3, r0
    41b6:	b410      	push	{r4}
    41b8:	6c1a      	ldr	r2, [r3, #64]	; 0x40
    41ba:	4608      	mov	r0, r1
    41bc:	b162      	cbz	r2, 41d8 <prvCopyDataFromQueue+0x24>
    41be:	68d9      	ldr	r1, [r3, #12]
    41c0:	685c      	ldr	r4, [r3, #4]
    41c2:	4411      	add	r1, r2
    41c4:	42a1      	cmp	r1, r4
    41c6:	60d9      	str	r1, [r3, #12]
    41c8:	bf24      	itt	cs
    41ca:	6819      	ldrcs	r1, [r3, #0]
    41cc:	60d9      	strcs	r1, [r3, #12]
    41ce:	68d9      	ldr	r1, [r3, #12]
    41d0:	f85d 4b04 	ldr.w	r4, [sp], #4
    41d4:	4b02      	ldr	r3, [pc, #8]	; (41e0 <prvCopyDataFromQueue+0x2c>)
    41d6:	4718      	bx	r3
    41d8:	f85d 4b04 	ldr.w	r4, [sp], #4
    41dc:	4770      	bx	lr
    41de:	bf00      	nop
    41e0:	00005975 	.word	0x00005975

000041e4 <prvNotifyQueueSetContainer.part.0>:
    41e4:	f04f 0380 	mov.w	r3, #128	; 0x80
    41e8:	f383 8811 	msr	BASEPRI, r3
    41ec:	f3bf 8f6f 	isb	sy
    41f0:	f3bf 8f4f 	dsb	sy
    41f4:	e7fe      	b.n	41f4 <prvNotifyQueueSetContainer.part.0+0x10>
	...

000041f8 <prvNotifyQueueSetContainer>:
    41f8:	b573      	push	{r0, r1, r4, r5, r6, lr}
    41fa:	6c84      	ldr	r4, [r0, #72]	; 0x48
    41fc:	9001      	str	r0, [sp, #4]
    41fe:	460a      	mov	r2, r1
    4200:	b90c      	cbnz	r4, 4206 <prvNotifyQueueSetContainer+0xe>
    4202:	4b17      	ldr	r3, [pc, #92]	; (4260 <prvNotifyQueueSetContainer+0x68>)
    4204:	4798      	blx	r3
    4206:	6ba1      	ldr	r1, [r4, #56]	; 0x38
    4208:	6be3      	ldr	r3, [r4, #60]	; 0x3c
    420a:	4299      	cmp	r1, r3
    420c:	d308      	bcc.n	4220 <prvNotifyQueueSetContainer+0x28>
    420e:	f04f 0380 	mov.w	r3, #128	; 0x80
    4212:	f383 8811 	msr	BASEPRI, r3
    4216:	f3bf 8f6f 	isb	sy
    421a:	f3bf 8f4f 	dsb	sy
    421e:	e7fe      	b.n	421e <prvNotifyQueueSetContainer+0x26>
    4220:	6ba1      	ldr	r1, [r4, #56]	; 0x38
    4222:	428b      	cmp	r3, r1
    4224:	d91a      	bls.n	425c <prvNotifyQueueSetContainer+0x64>
    4226:	f894 5045 	ldrb.w	r5, [r4, #69]	; 0x45
    422a:	4b0e      	ldr	r3, [pc, #56]	; (4264 <prvNotifyQueueSetContainer+0x6c>)
    422c:	a901      	add	r1, sp, #4
    422e:	4620      	mov	r0, r4
    4230:	4798      	blx	r3
    4232:	b26d      	sxtb	r5, r5
    4234:	1c6b      	adds	r3, r5, #1
    4236:	4606      	mov	r6, r0
    4238:	d10b      	bne.n	4252 <prvNotifyQueueSetContainer+0x5a>
    423a:	6a63      	ldr	r3, [r4, #36]	; 0x24
    423c:	b133      	cbz	r3, 424c <prvNotifyQueueSetContainer+0x54>
    423e:	f104 0024 	add.w	r0, r4, #36	; 0x24
    4242:	4b09      	ldr	r3, [pc, #36]	; (4268 <prvNotifyQueueSetContainer+0x70>)
    4244:	4798      	blx	r3
    4246:	2800      	cmp	r0, #0
    4248:	bf18      	it	ne
    424a:	2601      	movne	r6, #1
    424c:	4630      	mov	r0, r6
    424e:	b002      	add	sp, #8
    4250:	bd70      	pop	{r4, r5, r6, pc}
    4252:	3501      	adds	r5, #1
    4254:	b26d      	sxtb	r5, r5
    4256:	f884 5045 	strb.w	r5, [r4, #69]	; 0x45
    425a:	e7f7      	b.n	424c <prvNotifyQueueSetContainer+0x54>
    425c:	2600      	movs	r6, #0
    425e:	e7f5      	b.n	424c <prvNotifyQueueSetContainer+0x54>
    4260:	000041e5 	.word	0x000041e5
    4264:	00004149 	.word	0x00004149
    4268:	00005065 	.word	0x00005065

0000426c <prvUnlockQueue>:
    426c:	e92d 47f0 	stmdb	sp!, {r4, r5, r6, r7, r8, r9, sl, lr}
    4270:	4604      	mov	r4, r0
    4272:	4f1f      	ldr	r7, [pc, #124]	; (42f0 <prvUnlockQueue+0x84>)
    4274:	4e1f      	ldr	r6, [pc, #124]	; (42f4 <prvUnlockQueue+0x88>)
    4276:	f8df 8084 	ldr.w	r8, [pc, #132]	; 42fc <prvUnlockQueue+0x90>
    427a:	f8df 9084 	ldr.w	r9, [pc, #132]	; 4300 <prvUnlockQueue+0x94>
    427e:	47b8      	blx	r7
    4280:	f894 5045 	ldrb.w	r5, [r4, #69]	; 0x45
    4284:	b26d      	sxtb	r5, r5
    4286:	2d00      	cmp	r5, #0
    4288:	dc17      	bgt.n	42ba <prvUnlockQueue+0x4e>
    428a:	23ff      	movs	r3, #255	; 0xff
    428c:	f884 3045 	strb.w	r3, [r4, #69]	; 0x45
    4290:	4e19      	ldr	r6, [pc, #100]	; (42f8 <prvUnlockQueue+0x8c>)
    4292:	f8df 8060 	ldr.w	r8, [pc, #96]	; 42f4 <prvUnlockQueue+0x88>
    4296:	f8df 9064 	ldr.w	r9, [pc, #100]	; 42fc <prvUnlockQueue+0x90>
    429a:	47b0      	blx	r6
    429c:	47b8      	blx	r7
    429e:	f894 5044 	ldrb.w	r5, [r4, #68]	; 0x44
    42a2:	f104 0710 	add.w	r7, r4, #16
    42a6:	b26d      	sxtb	r5, r5
    42a8:	2d00      	cmp	r5, #0
    42aa:	dc17      	bgt.n	42dc <prvUnlockQueue+0x70>
    42ac:	23ff      	movs	r3, #255	; 0xff
    42ae:	f884 3044 	strb.w	r3, [r4, #68]	; 0x44
    42b2:	4633      	mov	r3, r6
    42b4:	e8bd 47f0 	ldmia.w	sp!, {r4, r5, r6, r7, r8, r9, sl, lr}
    42b8:	4718      	bx	r3
    42ba:	6ca3      	ldr	r3, [r4, #72]	; 0x48
    42bc:	b13b      	cbz	r3, 42ce <prvUnlockQueue+0x62>
    42be:	2100      	movs	r1, #0
    42c0:	4620      	mov	r0, r4
    42c2:	47c8      	blx	r9
    42c4:	b100      	cbz	r0, 42c8 <prvUnlockQueue+0x5c>
    42c6:	47c0      	blx	r8
    42c8:	3d01      	subs	r5, #1
    42ca:	b26d      	sxtb	r5, r5
    42cc:	e7db      	b.n	4286 <prvUnlockQueue+0x1a>
    42ce:	6a63      	ldr	r3, [r4, #36]	; 0x24
    42d0:	2b00      	cmp	r3, #0
    42d2:	d0da      	beq.n	428a <prvUnlockQueue+0x1e>
    42d4:	f104 0024 	add.w	r0, r4, #36	; 0x24
    42d8:	47b0      	blx	r6
    42da:	e7f3      	b.n	42c4 <prvUnlockQueue+0x58>
    42dc:	6923      	ldr	r3, [r4, #16]
    42de:	2b00      	cmp	r3, #0
    42e0:	d0e4      	beq.n	42ac <prvUnlockQueue+0x40>
    42e2:	4638      	mov	r0, r7
    42e4:	47c0      	blx	r8
    42e6:	b100      	cbz	r0, 42ea <prvUnlockQueue+0x7e>
    42e8:	47c8      	blx	r9
    42ea:	3d01      	subs	r5, #1
    42ec:	b26d      	sxtb	r5, r5
    42ee:	e7db      	b.n	42a8 <prvUnlockQueue+0x3c>
    42f0:	00003d85 	.word	0x00003d85
    42f4:	00005065 	.word	0x00005065
    42f8:	00003dc9 	.word	0x00003dc9
    42fc:	0000517d 	.word	0x0000517d
    4300:	000041f9 	.word	0x000041f9

00004304 <xQueueGenericReset>:
    4304:	b538      	push	{r3, r4, r5, lr}
    4306:	460d      	mov	r5, r1
    4308:	4604      	mov	r4, r0
    430a:	b908      	cbnz	r0, 4310 <xQueueGenericReset+0xc>
    430c:	4b18      	ldr	r3, [pc, #96]	; (4370 <xQueueGenericReset+0x6c>)
    430e:	4798      	blx	r3
    4310:	4b18      	ldr	r3, [pc, #96]	; (4374 <xQueueGenericReset+0x70>)
    4312:	4798      	blx	r3
    4314:	6c20      	ldr	r0, [r4, #64]	; 0x40
    4316:	6be3      	ldr	r3, [r4, #60]	; 0x3c
    4318:	6822      	ldr	r2, [r4, #0]
    431a:	60a2      	str	r2, [r4, #8]
    431c:	4343      	muls	r3, r0
    431e:	18d1      	adds	r1, r2, r3
    4320:	1a1b      	subs	r3, r3, r0
    4322:	4413      	add	r3, r2
    4324:	6061      	str	r1, [r4, #4]
    4326:	60e3      	str	r3, [r4, #12]
    4328:	2100      	movs	r1, #0
    432a:	23ff      	movs	r3, #255	; 0xff
    432c:	63a1      	str	r1, [r4, #56]	; 0x38
    432e:	f884 3044 	strb.w	r3, [r4, #68]	; 0x44
    4332:	f884 3045 	strb.w	r3, [r4, #69]	; 0x45
    4336:	b995      	cbnz	r5, 435e <xQueueGenericReset+0x5a>
    4338:	6923      	ldr	r3, [r4, #16]
    433a:	b163      	cbz	r3, 4356 <xQueueGenericReset+0x52>
    433c:	f104 0010 	add.w	r0, r4, #16
    4340:	4b0d      	ldr	r3, [pc, #52]	; (4378 <xQueueGenericReset+0x74>)
    4342:	4798      	blx	r3
    4344:	b138      	cbz	r0, 4356 <xQueueGenericReset+0x52>
    4346:	4b0d      	ldr	r3, [pc, #52]	; (437c <xQueueGenericReset+0x78>)
    4348:	f04f 5280 	mov.w	r2, #268435456	; 0x10000000
    434c:	601a      	str	r2, [r3, #0]
    434e:	f3bf 8f4f 	dsb	sy
    4352:	f3bf 8f6f 	isb	sy
    4356:	4b0a      	ldr	r3, [pc, #40]	; (4380 <xQueueGenericReset+0x7c>)
    4358:	4798      	blx	r3
    435a:	2001      	movs	r0, #1
    435c:	bd38      	pop	{r3, r4, r5, pc}
    435e:	f104 0010 	add.w	r0, r4, #16
    4362:	4d08      	ldr	r5, [pc, #32]	; (4384 <xQueueGenericReset+0x80>)
    4364:	47a8      	blx	r5
    4366:	f104 0024 	add.w	r0, r4, #36	; 0x24
    436a:	47a8      	blx	r5
    436c:	e7f3      	b.n	4356 <xQueueGenericReset+0x52>
    436e:	bf00      	nop
    4370:	000041e5 	.word	0x000041e5
    4374:	00003d85 	.word	0x00003d85
    4378:	00005065 	.word	0x00005065
    437c:	e000ed04 	.word	0xe000ed04
    4380:	00003dc9 	.word	0x00003dc9
    4384:	00003c35 	.word	0x00003c35

00004388 <xQueueGenericCreate>:
    4388:	b5f8      	push	{r3, r4, r5, r6, r7, lr}
    438a:	460d      	mov	r5, r1
    438c:	4617      	mov	r7, r2
    438e:	4606      	mov	r6, r0
    4390:	b940      	cbnz	r0, 43a4 <xQueueGenericCreate+0x1c>
    4392:	f04f 0380 	mov.w	r3, #128	; 0x80
    4396:	f383 8811 	msr	BASEPRI, r3
    439a:	f3bf 8f6f 	isb	sy
    439e:	f3bf 8f4f 	dsb	sy
    43a2:	e7fe      	b.n	43a2 <xQueueGenericCreate+0x1a>
    43a4:	4348      	muls	r0, r1
    43a6:	3054      	adds	r0, #84	; 0x54
    43a8:	4b0a      	ldr	r3, [pc, #40]	; (43d4 <xQueueGenericCreate+0x4c>)
    43aa:	4798      	blx	r3
    43ac:	4604      	mov	r4, r0
    43ae:	b158      	cbz	r0, 43c8 <xQueueGenericCreate+0x40>
    43b0:	b965      	cbnz	r5, 43cc <xQueueGenericCreate+0x44>
    43b2:	6020      	str	r0, [r4, #0]
    43b4:	4b08      	ldr	r3, [pc, #32]	; (43d8 <xQueueGenericCreate+0x50>)
    43b6:	63e6      	str	r6, [r4, #60]	; 0x3c
    43b8:	6425      	str	r5, [r4, #64]	; 0x40
    43ba:	2101      	movs	r1, #1
    43bc:	4620      	mov	r0, r4
    43be:	4798      	blx	r3
    43c0:	2300      	movs	r3, #0
    43c2:	f884 7050 	strb.w	r7, [r4, #80]	; 0x50
    43c6:	64a3      	str	r3, [r4, #72]	; 0x48
    43c8:	4620      	mov	r0, r4
    43ca:	bdf8      	pop	{r3, r4, r5, r6, r7, pc}
    43cc:	f100 0354 	add.w	r3, r0, #84	; 0x54
    43d0:	6003      	str	r3, [r0, #0]
    43d2:	e7ef      	b.n	43b4 <xQueueGenericCreate+0x2c>
    43d4:	00004015 	.word	0x00004015
    43d8:	00004305 	.word	0x00004305

000043dc <xQueueGenericSend>:
    43dc:	e92d 4ff0 	stmdb	sp!, {r4, r5, r6, r7, r8, r9, sl, fp, lr}
    43e0:	b087      	sub	sp, #28
    43e2:	468a      	mov	sl, r1
    43e4:	9203      	str	r2, [sp, #12]
    43e6:	461f      	mov	r7, r3
    43e8:	4604      	mov	r4, r0
    43ea:	b940      	cbnz	r0, 43fe <xQueueGenericSend+0x22>
    43ec:	f04f 0380 	mov.w	r3, #128	; 0x80
    43f0:	f383 8811 	msr	BASEPRI, r3
    43f4:	f3bf 8f6f 	isb	sy
    43f8:	f3bf 8f4f 	dsb	sy
    43fc:	e7fe      	b.n	43fc <xQueueGenericSend+0x20>
    43fe:	2900      	cmp	r1, #0
    4400:	f040 808f 	bne.w	4522 <xQueueGenericSend+0x146>
    4404:	6c03      	ldr	r3, [r0, #64]	; 0x40
    4406:	2b00      	cmp	r3, #0
    4408:	f000 808b 	beq.w	4522 <xQueueGenericSend+0x146>
    440c:	f04f 0380 	mov.w	r3, #128	; 0x80
    4410:	f383 8811 	msr	BASEPRI, r3
    4414:	f3bf 8f6f 	isb	sy
    4418:	f3bf 8f4f 	dsb	sy
    441c:	e7fe      	b.n	441c <xQueueGenericSend+0x40>
    441e:	9b03      	ldr	r3, [sp, #12]
    4420:	2b00      	cmp	r3, #0
    4422:	f000 8089 	beq.w	4538 <xQueueGenericSend+0x15c>
    4426:	f04f 0380 	mov.w	r3, #128	; 0x80
    442a:	f383 8811 	msr	BASEPRI, r3
    442e:	f3bf 8f6f 	isb	sy
    4432:	f3bf 8f4f 	dsb	sy
    4436:	e7fe      	b.n	4436 <xQueueGenericSend+0x5a>
    4438:	6a63      	ldr	r3, [r4, #36]	; 0x24
    443a:	2b00      	cmp	r3, #0
    443c:	d05b      	beq.n	44f6 <xQueueGenericSend+0x11a>
    443e:	f104 0024 	add.w	r0, r4, #36	; 0x24
    4442:	4b44      	ldr	r3, [pc, #272]	; (4554 <xQueueGenericSend+0x178>)
    4444:	4798      	blx	r3
    4446:	e056      	b.n	44f6 <xQueueGenericSend+0x11a>
    4448:	9d03      	ldr	r5, [sp, #12]
    444a:	b915      	cbnz	r5, 4452 <xQueueGenericSend+0x76>
    444c:	47b0      	blx	r6
    444e:	2000      	movs	r0, #0
    4450:	e05c      	b.n	450c <xQueueGenericSend+0x130>
    4452:	b913      	cbnz	r3, 445a <xQueueGenericSend+0x7e>
    4454:	a804      	add	r0, sp, #16
    4456:	4b40      	ldr	r3, [pc, #256]	; (4558 <xQueueGenericSend+0x17c>)
    4458:	4798      	blx	r3
    445a:	47b0      	blx	r6
    445c:	4b3f      	ldr	r3, [pc, #252]	; (455c <xQueueGenericSend+0x180>)
    445e:	f8df b120 	ldr.w	fp, [pc, #288]	; 4580 <xQueueGenericSend+0x1a4>
    4462:	4d3f      	ldr	r5, [pc, #252]	; (4560 <xQueueGenericSend+0x184>)
    4464:	4798      	blx	r3
    4466:	47c0      	blx	r8
    4468:	f894 3044 	ldrb.w	r3, [r4, #68]	; 0x44
    446c:	2bff      	cmp	r3, #255	; 0xff
    446e:	bf04      	itt	eq
    4470:	2300      	moveq	r3, #0
    4472:	f884 3044 	strbeq.w	r3, [r4, #68]	; 0x44
    4476:	f894 3045 	ldrb.w	r3, [r4, #69]	; 0x45
    447a:	2bff      	cmp	r3, #255	; 0xff
    447c:	bf04      	itt	eq
    447e:	2300      	moveq	r3, #0
    4480:	f884 3045 	strbeq.w	r3, [r4, #69]	; 0x45
    4484:	47b0      	blx	r6
    4486:	a903      	add	r1, sp, #12
    4488:	a804      	add	r0, sp, #16
    448a:	4b36      	ldr	r3, [pc, #216]	; (4564 <xQueueGenericSend+0x188>)
    448c:	4798      	blx	r3
    448e:	2800      	cmp	r0, #0
    4490:	d143      	bne.n	451a <xQueueGenericSend+0x13e>
    4492:	47c0      	blx	r8
    4494:	6ba1      	ldr	r1, [r4, #56]	; 0x38
    4496:	6be2      	ldr	r2, [r4, #60]	; 0x3c
    4498:	9102      	str	r1, [sp, #8]
    449a:	9201      	str	r2, [sp, #4]
    449c:	47b0      	blx	r6
    449e:	9a01      	ldr	r2, [sp, #4]
    44a0:	9902      	ldr	r1, [sp, #8]
    44a2:	4291      	cmp	r1, r2
    44a4:	d135      	bne.n	4512 <xQueueGenericSend+0x136>
    44a6:	9903      	ldr	r1, [sp, #12]
    44a8:	4a2f      	ldr	r2, [pc, #188]	; (4568 <xQueueGenericSend+0x18c>)
    44aa:	f104 0010 	add.w	r0, r4, #16
    44ae:	4790      	blx	r2
    44b0:	4620      	mov	r0, r4
    44b2:	47d8      	blx	fp
    44b4:	47a8      	blx	r5
    44b6:	b938      	cbnz	r0, 44c8 <xQueueGenericSend+0xec>
    44b8:	4a2c      	ldr	r2, [pc, #176]	; (456c <xQueueGenericSend+0x190>)
    44ba:	f04f 5380 	mov.w	r3, #268435456	; 0x10000000
    44be:	6013      	str	r3, [r2, #0]
    44c0:	f3bf 8f4f 	dsb	sy
    44c4:	f3bf 8f6f 	isb	sy
    44c8:	2301      	movs	r3, #1
    44ca:	9301      	str	r3, [sp, #4]
    44cc:	47c8      	blx	r9
    44ce:	6ba1      	ldr	r1, [r4, #56]	; 0x38
    44d0:	6be2      	ldr	r2, [r4, #60]	; 0x3c
    44d2:	4e27      	ldr	r6, [pc, #156]	; (4570 <xQueueGenericSend+0x194>)
    44d4:	4291      	cmp	r1, r2
    44d6:	d302      	bcc.n	44de <xQueueGenericSend+0x102>
    44d8:	2f02      	cmp	r7, #2
    44da:	9b01      	ldr	r3, [sp, #4]
    44dc:	d1b4      	bne.n	4448 <xQueueGenericSend+0x6c>
    44de:	4b25      	ldr	r3, [pc, #148]	; (4574 <xQueueGenericSend+0x198>)
    44e0:	463a      	mov	r2, r7
    44e2:	4651      	mov	r1, sl
    44e4:	4620      	mov	r0, r4
    44e6:	4798      	blx	r3
    44e8:	6ca3      	ldr	r3, [r4, #72]	; 0x48
    44ea:	2b00      	cmp	r3, #0
    44ec:	d0a4      	beq.n	4438 <xQueueGenericSend+0x5c>
    44ee:	4639      	mov	r1, r7
    44f0:	4620      	mov	r0, r4
    44f2:	4b21      	ldr	r3, [pc, #132]	; (4578 <xQueueGenericSend+0x19c>)
    44f4:	4798      	blx	r3
    44f6:	b138      	cbz	r0, 4508 <xQueueGenericSend+0x12c>
    44f8:	4b1c      	ldr	r3, [pc, #112]	; (456c <xQueueGenericSend+0x190>)
    44fa:	f04f 5280 	mov.w	r2, #268435456	; 0x10000000
    44fe:	601a      	str	r2, [r3, #0]
    4500:	f3bf 8f4f 	dsb	sy
    4504:	f3bf 8f6f 	isb	sy
    4508:	47b0      	blx	r6
    450a:	2001      	movs	r0, #1
    450c:	b007      	add	sp, #28
    450e:	e8bd 8ff0 	ldmia.w	sp!, {r4, r5, r6, r7, r8, r9, sl, fp, pc}
    4512:	4620      	mov	r0, r4
    4514:	47d8      	blx	fp
    4516:	47a8      	blx	r5
    4518:	e7d6      	b.n	44c8 <xQueueGenericSend+0xec>
    451a:	4620      	mov	r0, r4
    451c:	47d8      	blx	fp
    451e:	47a8      	blx	r5
    4520:	e795      	b.n	444e <xQueueGenericSend+0x72>
    4522:	2f02      	cmp	r7, #2
    4524:	d102      	bne.n	452c <xQueueGenericSend+0x150>
    4526:	6be3      	ldr	r3, [r4, #60]	; 0x3c
    4528:	2b01      	cmp	r3, #1
    452a:	d109      	bne.n	4540 <xQueueGenericSend+0x164>
    452c:	4b13      	ldr	r3, [pc, #76]	; (457c <xQueueGenericSend+0x1a0>)
    452e:	4798      	blx	r3
    4530:	2800      	cmp	r0, #0
    4532:	f43f af74 	beq.w	441e <xQueueGenericSend+0x42>
    4536:	2300      	movs	r3, #0
    4538:	f8df 9048 	ldr.w	r9, [pc, #72]	; 4584 <xQueueGenericSend+0x1a8>
    453c:	46c8      	mov	r8, r9
    453e:	e7c4      	b.n	44ca <xQueueGenericSend+0xee>
    4540:	f04f 0380 	mov.w	r3, #128	; 0x80
    4544:	f383 8811 	msr	BASEPRI, r3
    4548:	f3bf 8f6f 	isb	sy
    454c:	f3bf 8f4f 	dsb	sy
    4550:	e7fe      	b.n	4550 <xQueueGenericSend+0x174>
    4552:	bf00      	nop
    4554:	00005065 	.word	0x00005065
    4558:	000050e9 	.word	0x000050e9
    455c:	00004d11 	.word	0x00004d11
    4560:	00004e1d 	.word	0x00004e1d
    4564:	000050fd 	.word	0x000050fd
    4568:	00004fe5 	.word	0x00004fe5
    456c:	e000ed04 	.word	0xe000ed04
    4570:	00003dc9 	.word	0x00003dc9
    4574:	00004149 	.word	0x00004149
    4578:	000041f9 	.word	0x000041f9
    457c:	0000518d 	.word	0x0000518d
    4580:	0000426d 	.word	0x0000426d
    4584:	00003d85 	.word	0x00003d85

00004588 <xQueueCreateMutex>:
    4588:	b538      	push	{r3, r4, r5, lr}
    458a:	4602      	mov	r2, r0
    458c:	2100      	movs	r1, #0
    458e:	2001      	movs	r0, #1
    4590:	4b06      	ldr	r3, [pc, #24]	; (45ac <xQueueCreateMutex+0x24>)
    4592:	4798      	blx	r3
    4594:	4604      	mov	r4, r0
    4596:	b138      	cbz	r0, 45a8 <xQueueCreateMutex+0x20>
    4598:	2300      	movs	r3, #0
    459a:	6043      	str	r3, [r0, #4]
    459c:	6003      	str	r3, [r0, #0]
    459e:	60c3      	str	r3, [r0, #12]
    45a0:	461a      	mov	r2, r3
    45a2:	4619      	mov	r1, r3
    45a4:	4d02      	ldr	r5, [pc, #8]	; (45b0 <xQueueCreateMutex+0x28>)
    45a6:	47a8      	blx	r5
    45a8:	4620      	mov	r0, r4
    45aa:	bd38      	pop	{r3, r4, r5, pc}
    45ac:	00004389 	.word	0x00004389
    45b0:	000043dd 	.word	0x000043dd

000045b4 <xQueueGenericSendFromISR>:
    45b4:	e92d 43f8 	stmdb	sp!, {r3, r4, r5, r6, r7, r8, r9, lr}
    45b8:	4688      	mov	r8, r1
    45ba:	4691      	mov	r9, r2
    45bc:	461f      	mov	r7, r3
    45be:	4604      	mov	r4, r0
    45c0:	b940      	cbnz	r0, 45d4 <xQueueGenericSendFromISR+0x20>
    45c2:	f04f 0380 	mov.w	r3, #128	; 0x80
    45c6:	f383 8811 	msr	BASEPRI, r3
    45ca:	f3bf 8f6f 	isb	sy
    45ce:	f3bf 8f4f 	dsb	sy
    45d2:	e7fe      	b.n	45d2 <xQueueGenericSendFromISR+0x1e>
    45d4:	bb19      	cbnz	r1, 461e <xQueueGenericSendFromISR+0x6a>
    45d6:	6c03      	ldr	r3, [r0, #64]	; 0x40
    45d8:	b30b      	cbz	r3, 461e <xQueueGenericSendFromISR+0x6a>
    45da:	f04f 0380 	mov.w	r3, #128	; 0x80
    45de:	f383 8811 	msr	BASEPRI, r3
    45e2:	f3bf 8f6f 	isb	sy
    45e6:	f3bf 8f4f 	dsb	sy
    45ea:	e7fe      	b.n	45ea <xQueueGenericSendFromISR+0x36>
    45ec:	f1b9 0f00 	cmp.w	r9, #0
    45f0:	d03f      	beq.n	4672 <xQueueGenericSendFromISR+0xbe>
    45f2:	2001      	movs	r0, #1
    45f4:	f8c9 0000 	str.w	r0, [r9]
    45f8:	f386 8811 	msr	BASEPRI, r6
    45fc:	e8bd 83f8 	ldmia.w	sp!, {r3, r4, r5, r6, r7, r8, r9, pc}
    4600:	6a63      	ldr	r3, [r4, #36]	; 0x24
    4602:	2b00      	cmp	r3, #0
    4604:	d035      	beq.n	4672 <xQueueGenericSendFromISR+0xbe>
    4606:	f104 0024 	add.w	r0, r4, #36	; 0x24
    460a:	4b1f      	ldr	r3, [pc, #124]	; (4688 <xQueueGenericSendFromISR+0xd4>)
    460c:	4798      	blx	r3
    460e:	e02e      	b.n	466e <xQueueGenericSendFromISR+0xba>
    4610:	3501      	adds	r5, #1
    4612:	b26d      	sxtb	r5, r5
    4614:	f884 5045 	strb.w	r5, [r4, #69]	; 0x45
    4618:	e02b      	b.n	4672 <xQueueGenericSendFromISR+0xbe>
    461a:	2000      	movs	r0, #0
    461c:	e7ec      	b.n	45f8 <xQueueGenericSendFromISR+0x44>
    461e:	2f02      	cmp	r7, #2
    4620:	d102      	bne.n	4628 <xQueueGenericSendFromISR+0x74>
    4622:	6be3      	ldr	r3, [r4, #60]	; 0x3c
    4624:	2b01      	cmp	r3, #1
    4626:	d126      	bne.n	4676 <xQueueGenericSendFromISR+0xc2>
    4628:	4b18      	ldr	r3, [pc, #96]	; (468c <xQueueGenericSendFromISR+0xd8>)
    462a:	4798      	blx	r3
    462c:	f3ef 8611 	mrs	r6, BASEPRI
    4630:	f04f 0380 	mov.w	r3, #128	; 0x80
    4634:	f383 8811 	msr	BASEPRI, r3
    4638:	f3bf 8f6f 	isb	sy
    463c:	f3bf 8f4f 	dsb	sy
    4640:	6ba2      	ldr	r2, [r4, #56]	; 0x38
    4642:	6be3      	ldr	r3, [r4, #60]	; 0x3c
    4644:	429a      	cmp	r2, r3
    4646:	d301      	bcc.n	464c <xQueueGenericSendFromISR+0x98>
    4648:	2f02      	cmp	r7, #2
    464a:	d1e6      	bne.n	461a <xQueueGenericSendFromISR+0x66>
    464c:	f894 5045 	ldrb.w	r5, [r4, #69]	; 0x45
    4650:	4b0f      	ldr	r3, [pc, #60]	; (4690 <xQueueGenericSendFromISR+0xdc>)
    4652:	b26d      	sxtb	r5, r5
    4654:	463a      	mov	r2, r7
    4656:	4641      	mov	r1, r8
    4658:	4620      	mov	r0, r4
    465a:	4798      	blx	r3
    465c:	1c6b      	adds	r3, r5, #1
    465e:	d1d7      	bne.n	4610 <xQueueGenericSendFromISR+0x5c>
    4660:	6ca3      	ldr	r3, [r4, #72]	; 0x48
    4662:	2b00      	cmp	r3, #0
    4664:	d0cc      	beq.n	4600 <xQueueGenericSendFromISR+0x4c>
    4666:	4639      	mov	r1, r7
    4668:	4620      	mov	r0, r4
    466a:	4b0a      	ldr	r3, [pc, #40]	; (4694 <xQueueGenericSendFromISR+0xe0>)
    466c:	4798      	blx	r3
    466e:	2800      	cmp	r0, #0
    4670:	d1bc      	bne.n	45ec <xQueueGenericSendFromISR+0x38>
    4672:	2001      	movs	r0, #1
    4674:	e7c0      	b.n	45f8 <xQueueGenericSendFromISR+0x44>
    4676:	f04f 0380 	mov.w	r3, #128	; 0x80
    467a:	f383 8811 	msr	BASEPRI, r3
    467e:	f3bf 8f6f 	isb	sy
    4682:	f3bf 8f4f 	dsb	sy
    4686:	e7fe      	b.n	4686 <xQueueGenericSendFromISR+0xd2>
    4688:	00005065 	.word	0x00005065
    468c:	00003fc1 	.word	0x00003fc1
    4690:	00004149 	.word	0x00004149
    4694:	000041f9 	.word	0x000041f9

00004698 <xQueueReceive>:
    4698:	e92d 4ff0 	stmdb	sp!, {r4, r5, r6, r7, r8, r9, sl, fp, lr}
    469c:	b085      	sub	sp, #20
    469e:	4689      	mov	r9, r1
    46a0:	9201      	str	r2, [sp, #4]
    46a2:	4604      	mov	r4, r0
    46a4:	b940      	cbnz	r0, 46b8 <xQueueReceive+0x20>
    46a6:	f04f 0380 	mov.w	r3, #128	; 0x80
    46aa:	f383 8811 	msr	BASEPRI, r3
    46ae:	f3bf 8f6f 	isb	sy
    46b2:	f3bf 8f4f 	dsb	sy
    46b6:	e7fe      	b.n	46b6 <xQueueReceive+0x1e>
    46b8:	2900      	cmp	r1, #0
    46ba:	d17d      	bne.n	47b8 <xQueueReceive+0x120>
    46bc:	6c03      	ldr	r3, [r0, #64]	; 0x40
    46be:	2b00      	cmp	r3, #0
    46c0:	d07a      	beq.n	47b8 <xQueueReceive+0x120>
    46c2:	f04f 0380 	mov.w	r3, #128	; 0x80
    46c6:	f383 8811 	msr	BASEPRI, r3
    46ca:	f3bf 8f6f 	isb	sy
    46ce:	f3bf 8f4f 	dsb	sy
    46d2:	e7fe      	b.n	46d2 <xQueueReceive+0x3a>
    46d4:	9e01      	ldr	r6, [sp, #4]
    46d6:	2e00      	cmp	r6, #0
    46d8:	d073      	beq.n	47c2 <xQueueReceive+0x12a>
    46da:	f04f 0380 	mov.w	r3, #128	; 0x80
    46de:	f383 8811 	msr	BASEPRI, r3
    46e2:	f3bf 8f6f 	isb	sy
    46e6:	f3bf 8f4f 	dsb	sy
    46ea:	e7fe      	b.n	46ea <xQueueReceive+0x52>
    46ec:	9d01      	ldr	r5, [sp, #4]
    46ee:	b915      	cbnz	r5, 46f6 <xQueueReceive+0x5e>
    46f0:	47b8      	blx	r7
    46f2:	2000      	movs	r0, #0
    46f4:	e051      	b.n	479a <xQueueReceive+0x102>
    46f6:	b916      	cbnz	r6, 46fe <xQueueReceive+0x66>
    46f8:	a802      	add	r0, sp, #8
    46fa:	4b35      	ldr	r3, [pc, #212]	; (47d0 <xQueueReceive+0x138>)
    46fc:	4798      	blx	r3
    46fe:	47b8      	blx	r7
    4700:	4b34      	ldr	r3, [pc, #208]	; (47d4 <xQueueReceive+0x13c>)
    4702:	4e35      	ldr	r6, [pc, #212]	; (47d8 <xQueueReceive+0x140>)
    4704:	4d35      	ldr	r5, [pc, #212]	; (47dc <xQueueReceive+0x144>)
    4706:	4798      	blx	r3
    4708:	47d8      	blx	fp
    470a:	f894 3044 	ldrb.w	r3, [r4, #68]	; 0x44
    470e:	2bff      	cmp	r3, #255	; 0xff
    4710:	bf04      	itt	eq
    4712:	2300      	moveq	r3, #0
    4714:	f884 3044 	strbeq.w	r3, [r4, #68]	; 0x44
    4718:	f894 3045 	ldrb.w	r3, [r4, #69]	; 0x45
    471c:	2bff      	cmp	r3, #255	; 0xff
    471e:	bf04      	itt	eq
    4720:	2300      	moveq	r3, #0
    4722:	f884 3045 	strbeq.w	r3, [r4, #69]	; 0x45
    4726:	47b8      	blx	r7
    4728:	a901      	add	r1, sp, #4
    472a:	a802      	add	r0, sp, #8
    472c:	4b2c      	ldr	r3, [pc, #176]	; (47e0 <xQueueReceive+0x148>)
    472e:	4f2d      	ldr	r7, [pc, #180]	; (47e4 <xQueueReceive+0x14c>)
    4730:	4798      	blx	r3
    4732:	2800      	cmp	r0, #0
    4734:	d138      	bne.n	47a8 <xQueueReceive+0x110>
    4736:	4620      	mov	r0, r4
    4738:	47b8      	blx	r7
    473a:	2800      	cmp	r0, #0
    473c:	d030      	beq.n	47a0 <xQueueReceive+0x108>
    473e:	9901      	ldr	r1, [sp, #4]
    4740:	4b29      	ldr	r3, [pc, #164]	; (47e8 <xQueueReceive+0x150>)
    4742:	f104 0024 	add.w	r0, r4, #36	; 0x24
    4746:	4798      	blx	r3
    4748:	4620      	mov	r0, r4
    474a:	47b0      	blx	r6
    474c:	47a8      	blx	r5
    474e:	b938      	cbnz	r0, 4760 <xQueueReceive+0xc8>
    4750:	f04f 5380 	mov.w	r3, #268435456	; 0x10000000
    4754:	f8ca 3000 	str.w	r3, [sl]
    4758:	f3bf 8f4f 	dsb	sy
    475c:	f3bf 8f6f 	isb	sy
    4760:	2601      	movs	r6, #1
    4762:	47c0      	blx	r8
    4764:	6ba5      	ldr	r5, [r4, #56]	; 0x38
    4766:	4f21      	ldr	r7, [pc, #132]	; (47ec <xQueueReceive+0x154>)
    4768:	2d00      	cmp	r5, #0
    476a:	d0bf      	beq.n	46ec <xQueueReceive+0x54>
    476c:	4b20      	ldr	r3, [pc, #128]	; (47f0 <xQueueReceive+0x158>)
    476e:	4649      	mov	r1, r9
    4770:	4620      	mov	r0, r4
    4772:	3d01      	subs	r5, #1
    4774:	4798      	blx	r3
    4776:	63a5      	str	r5, [r4, #56]	; 0x38
    4778:	6923      	ldr	r3, [r4, #16]
    477a:	b163      	cbz	r3, 4796 <xQueueReceive+0xfe>
    477c:	f104 0010 	add.w	r0, r4, #16
    4780:	4b1c      	ldr	r3, [pc, #112]	; (47f4 <xQueueReceive+0x15c>)
    4782:	4798      	blx	r3
    4784:	b138      	cbz	r0, 4796 <xQueueReceive+0xfe>
    4786:	4b1c      	ldr	r3, [pc, #112]	; (47f8 <xQueueReceive+0x160>)
    4788:	f04f 5280 	mov.w	r2, #268435456	; 0x10000000
    478c:	601a      	str	r2, [r3, #0]
    478e:	f3bf 8f4f 	dsb	sy
    4792:	f3bf 8f6f 	isb	sy
    4796:	47b8      	blx	r7
    4798:	2001      	movs	r0, #1
    479a:	b005      	add	sp, #20
    479c:	e8bd 8ff0 	ldmia.w	sp!, {r4, r5, r6, r7, r8, r9, sl, fp, pc}
    47a0:	4620      	mov	r0, r4
    47a2:	47b0      	blx	r6
    47a4:	47a8      	blx	r5
    47a6:	e7db      	b.n	4760 <xQueueReceive+0xc8>
    47a8:	4620      	mov	r0, r4
    47aa:	47b0      	blx	r6
    47ac:	47a8      	blx	r5
    47ae:	4620      	mov	r0, r4
    47b0:	47b8      	blx	r7
    47b2:	2800      	cmp	r0, #0
    47b4:	d0d4      	beq.n	4760 <xQueueReceive+0xc8>
    47b6:	e79c      	b.n	46f2 <xQueueReceive+0x5a>
    47b8:	4b10      	ldr	r3, [pc, #64]	; (47fc <xQueueReceive+0x164>)
    47ba:	4798      	blx	r3
    47bc:	2800      	cmp	r0, #0
    47be:	d089      	beq.n	46d4 <xQueueReceive+0x3c>
    47c0:	2600      	movs	r6, #0
    47c2:	f8df 803c 	ldr.w	r8, [pc, #60]	; 4800 <xQueueReceive+0x168>
    47c6:	f8df a030 	ldr.w	sl, [pc, #48]	; 47f8 <xQueueReceive+0x160>
    47ca:	46c3      	mov	fp, r8
    47cc:	e7c9      	b.n	4762 <xQueueReceive+0xca>
    47ce:	bf00      	nop
    47d0:	000050e9 	.word	0x000050e9
    47d4:	00004d11 	.word	0x00004d11
    47d8:	0000426d 	.word	0x0000426d
    47dc:	00004e1d 	.word	0x00004e1d
    47e0:	000050fd 	.word	0x000050fd
    47e4:	00004129 	.word	0x00004129
    47e8:	00004fe5 	.word	0x00004fe5
    47ec:	00003dc9 	.word	0x00003dc9
    47f0:	000041b5 	.word	0x000041b5
    47f4:	00005065 	.word	0x00005065
    47f8:	e000ed04 	.word	0xe000ed04
    47fc:	0000518d 	.word	0x0000518d
    4800:	00003d85 	.word	0x00003d85

00004804 <xQueueSemaphoreTake>:
    4804:	e92d 4ff0 	stmdb	sp!, {r4, r5, r6, r7, r8, r9, sl, fp, lr}
    4808:	b085      	sub	sp, #20
    480a:	4604      	mov	r4, r0
    480c:	9101      	str	r1, [sp, #4]
    480e:	b940      	cbnz	r0, 4822 <xQueueSemaphoreTake+0x1e>
    4810:	f04f 0380 	mov.w	r3, #128	; 0x80
    4814:	f383 8811 	msr	BASEPRI, r3
    4818:	f3bf 8f6f 	isb	sy
    481c:	f3bf 8f4f 	dsb	sy
    4820:	e7fe      	b.n	4820 <xQueueSemaphoreTake+0x1c>
    4822:	6c05      	ldr	r5, [r0, #64]	; 0x40
    4824:	b145      	cbz	r5, 4838 <xQueueSemaphoreTake+0x34>
    4826:	f04f 0380 	mov.w	r3, #128	; 0x80
    482a:	f383 8811 	msr	BASEPRI, r3
    482e:	f3bf 8f6f 	isb	sy
    4832:	f3bf 8f4f 	dsb	sy
    4836:	e7fe      	b.n	4836 <xQueueSemaphoreTake+0x32>
    4838:	4b50      	ldr	r3, [pc, #320]	; (497c <xQueueSemaphoreTake+0x178>)
    483a:	4798      	blx	r3
    483c:	b918      	cbnz	r0, 4846 <xQueueSemaphoreTake+0x42>
    483e:	9d01      	ldr	r5, [sp, #4]
    4840:	2d00      	cmp	r5, #0
    4842:	f040 8091 	bne.w	4968 <xQueueSemaphoreTake+0x164>
    4846:	f8df 9164 	ldr.w	r9, [pc, #356]	; 49ac <xQueueSemaphoreTake+0x1a8>
    484a:	f8df a13c 	ldr.w	sl, [pc, #316]	; 4988 <xQueueSemaphoreTake+0x184>
    484e:	462e      	mov	r6, r5
    4850:	464f      	mov	r7, r9
    4852:	47c8      	blx	r9
    4854:	6ba3      	ldr	r3, [r4, #56]	; 0x38
    4856:	b1e3      	cbz	r3, 4892 <xQueueSemaphoreTake+0x8e>
    4858:	3b01      	subs	r3, #1
    485a:	63a3      	str	r3, [r4, #56]	; 0x38
    485c:	6823      	ldr	r3, [r4, #0]
    485e:	b913      	cbnz	r3, 4866 <xQueueSemaphoreTake+0x62>
    4860:	4b47      	ldr	r3, [pc, #284]	; (4980 <xQueueSemaphoreTake+0x17c>)
    4862:	4798      	blx	r3
    4864:	6060      	str	r0, [r4, #4]
    4866:	6923      	ldr	r3, [r4, #16]
    4868:	b163      	cbz	r3, 4884 <xQueueSemaphoreTake+0x80>
    486a:	f104 0010 	add.w	r0, r4, #16
    486e:	4b45      	ldr	r3, [pc, #276]	; (4984 <xQueueSemaphoreTake+0x180>)
    4870:	4798      	blx	r3
    4872:	b138      	cbz	r0, 4884 <xQueueSemaphoreTake+0x80>
    4874:	4b44      	ldr	r3, [pc, #272]	; (4988 <xQueueSemaphoreTake+0x184>)
    4876:	f04f 5280 	mov.w	r2, #268435456	; 0x10000000
    487a:	601a      	str	r2, [r3, #0]
    487c:	f3bf 8f4f 	dsb	sy
    4880:	f3bf 8f6f 	isb	sy
    4884:	4b41      	ldr	r3, [pc, #260]	; (498c <xQueueSemaphoreTake+0x188>)
    4886:	4798      	blx	r3
    4888:	2501      	movs	r5, #1
    488a:	4628      	mov	r0, r5
    488c:	b005      	add	sp, #20
    488e:	e8bd 8ff0 	ldmia.w	sp!, {r4, r5, r6, r7, r8, r9, sl, fp, pc}
    4892:	9b01      	ldr	r3, [sp, #4]
    4894:	b963      	cbnz	r3, 48b0 <xQueueSemaphoreTake+0xac>
    4896:	b145      	cbz	r5, 48aa <xQueueSemaphoreTake+0xa6>
    4898:	f04f 0380 	mov.w	r3, #128	; 0x80
    489c:	f383 8811 	msr	BASEPRI, r3
    48a0:	f3bf 8f6f 	isb	sy
    48a4:	f3bf 8f4f 	dsb	sy
    48a8:	e7fe      	b.n	48a8 <xQueueSemaphoreTake+0xa4>
    48aa:	4b38      	ldr	r3, [pc, #224]	; (498c <xQueueSemaphoreTake+0x188>)
    48ac:	4798      	blx	r3
    48ae:	e7ec      	b.n	488a <xQueueSemaphoreTake+0x86>
    48b0:	b916      	cbnz	r6, 48b8 <xQueueSemaphoreTake+0xb4>
    48b2:	a802      	add	r0, sp, #8
    48b4:	4b36      	ldr	r3, [pc, #216]	; (4990 <xQueueSemaphoreTake+0x18c>)
    48b6:	4798      	blx	r3
    48b8:	4e34      	ldr	r6, [pc, #208]	; (498c <xQueueSemaphoreTake+0x188>)
    48ba:	f8df b0f4 	ldr.w	fp, [pc, #244]	; 49b0 <xQueueSemaphoreTake+0x1ac>
    48be:	f8df 80f4 	ldr.w	r8, [pc, #244]	; 49b4 <xQueueSemaphoreTake+0x1b0>
    48c2:	47b0      	blx	r6
    48c4:	4b33      	ldr	r3, [pc, #204]	; (4994 <xQueueSemaphoreTake+0x190>)
    48c6:	4798      	blx	r3
    48c8:	47b8      	blx	r7
    48ca:	f894 3044 	ldrb.w	r3, [r4, #68]	; 0x44
    48ce:	2bff      	cmp	r3, #255	; 0xff
    48d0:	bf04      	itt	eq
    48d2:	2300      	moveq	r3, #0
    48d4:	f884 3044 	strbeq.w	r3, [r4, #68]	; 0x44
    48d8:	f894 3045 	ldrb.w	r3, [r4, #69]	; 0x45
    48dc:	2bff      	cmp	r3, #255	; 0xff
    48de:	bf04      	itt	eq
    48e0:	2300      	moveq	r3, #0
    48e2:	f884 3045 	strbeq.w	r3, [r4, #69]	; 0x45
    48e6:	47b0      	blx	r6
    48e8:	4b2b      	ldr	r3, [pc, #172]	; (4998 <xQueueSemaphoreTake+0x194>)
    48ea:	a901      	add	r1, sp, #4
    48ec:	a802      	add	r0, sp, #8
    48ee:	4798      	blx	r3
    48f0:	4b2a      	ldr	r3, [pc, #168]	; (499c <xQueueSemaphoreTake+0x198>)
    48f2:	bb08      	cbnz	r0, 4938 <xQueueSemaphoreTake+0x134>
    48f4:	4620      	mov	r0, r4
    48f6:	4798      	blx	r3
    48f8:	b1d0      	cbz	r0, 4930 <xQueueSemaphoreTake+0x12c>
    48fa:	6823      	ldr	r3, [r4, #0]
    48fc:	b92b      	cbnz	r3, 490a <xQueueSemaphoreTake+0x106>
    48fe:	47b8      	blx	r7
    4900:	6860      	ldr	r0, [r4, #4]
    4902:	4b27      	ldr	r3, [pc, #156]	; (49a0 <xQueueSemaphoreTake+0x19c>)
    4904:	4798      	blx	r3
    4906:	4605      	mov	r5, r0
    4908:	47b0      	blx	r6
    490a:	9901      	ldr	r1, [sp, #4]
    490c:	4b25      	ldr	r3, [pc, #148]	; (49a4 <xQueueSemaphoreTake+0x1a0>)
    490e:	f104 0024 	add.w	r0, r4, #36	; 0x24
    4912:	4798      	blx	r3
    4914:	4620      	mov	r0, r4
    4916:	47d8      	blx	fp
    4918:	47c0      	blx	r8
    491a:	b938      	cbnz	r0, 492c <xQueueSemaphoreTake+0x128>
    491c:	f04f 5380 	mov.w	r3, #268435456	; 0x10000000
    4920:	f8ca 3000 	str.w	r3, [sl]
    4924:	f3bf 8f4f 	dsb	sy
    4928:	f3bf 8f6f 	isb	sy
    492c:	2601      	movs	r6, #1
    492e:	e790      	b.n	4852 <xQueueSemaphoreTake+0x4e>
    4930:	4620      	mov	r0, r4
    4932:	47d8      	blx	fp
    4934:	47c0      	blx	r8
    4936:	e7f9      	b.n	492c <xQueueSemaphoreTake+0x128>
    4938:	4620      	mov	r0, r4
    493a:	9300      	str	r3, [sp, #0]
    493c:	47d8      	blx	fp
    493e:	47c0      	blx	r8
    4940:	4620      	mov	r0, r4
    4942:	9b00      	ldr	r3, [sp, #0]
    4944:	4798      	blx	r3
    4946:	2800      	cmp	r0, #0
    4948:	d0f0      	beq.n	492c <xQueueSemaphoreTake+0x128>
    494a:	2d00      	cmp	r5, #0
    494c:	d09d      	beq.n	488a <xQueueSemaphoreTake+0x86>
    494e:	47b8      	blx	r7
    4950:	6a61      	ldr	r1, [r4, #36]	; 0x24
    4952:	b119      	cbz	r1, 495c <xQueueSemaphoreTake+0x158>
    4954:	6b23      	ldr	r3, [r4, #48]	; 0x30
    4956:	6819      	ldr	r1, [r3, #0]
    4958:	f1c1 0105 	rsb	r1, r1, #5
    495c:	6860      	ldr	r0, [r4, #4]
    495e:	4b12      	ldr	r3, [pc, #72]	; (49a8 <xQueueSemaphoreTake+0x1a4>)
    4960:	4798      	blx	r3
    4962:	2500      	movs	r5, #0
    4964:	47b0      	blx	r6
    4966:	e790      	b.n	488a <xQueueSemaphoreTake+0x86>
    4968:	f04f 0380 	mov.w	r3, #128	; 0x80
    496c:	f383 8811 	msr	BASEPRI, r3
    4970:	f3bf 8f6f 	isb	sy
    4974:	f3bf 8f4f 	dsb	sy
    4978:	e7fe      	b.n	4978 <xQueueSemaphoreTake+0x174>
    497a:	bf00      	nop
    497c:	0000518d 	.word	0x0000518d
    4980:	00005351 	.word	0x00005351
    4984:	00005065 	.word	0x00005065
    4988:	e000ed04 	.word	0xe000ed04
    498c:	00003dc9 	.word	0x00003dc9
    4990:	000050e9 	.word	0x000050e9
    4994:	00004d11 	.word	0x00004d11
    4998:	000050fd 	.word	0x000050fd
    499c:	00004129 	.word	0x00004129
    49a0:	000051ad 	.word	0x000051ad
    49a4:	00004fe5 	.word	0x00004fe5
    49a8:	000052b5 	.word	0x000052b5
    49ac:	00003d85 	.word	0x00003d85
    49b0:	0000426d 	.word	0x0000426d
    49b4:	00004e1d 	.word	0x00004e1d

000049b8 <uxQueueMessagesWaiting>:
    49b8:	b510      	push	{r4, lr}
    49ba:	4604      	mov	r4, r0
    49bc:	b940      	cbnz	r0, 49d0 <uxQueueMessagesWaiting+0x18>
    49be:	f04f 0380 	mov.w	r3, #128	; 0x80
    49c2:	f383 8811 	msr	BASEPRI, r3
    49c6:	f3bf 8f6f 	isb	sy
    49ca:	f3bf 8f4f 	dsb	sy
    49ce:	e7fe      	b.n	49ce <uxQueueMessagesWaiting+0x16>
    49d0:	4b03      	ldr	r3, [pc, #12]	; (49e0 <uxQueueMessagesWaiting+0x28>)
    49d2:	4798      	blx	r3
    49d4:	6ba4      	ldr	r4, [r4, #56]	; 0x38
    49d6:	4b03      	ldr	r3, [pc, #12]	; (49e4 <uxQueueMessagesWaiting+0x2c>)
    49d8:	4798      	blx	r3
    49da:	4620      	mov	r0, r4
    49dc:	bd10      	pop	{r4, pc}
    49de:	bf00      	nop
    49e0:	00003d85 	.word	0x00003d85
    49e4:	00003dc9 	.word	0x00003dc9

000049e8 <vQueueWaitForMessageRestricted>:
    49e8:	b570      	push	{r4, r5, r6, lr}
    49ea:	4604      	mov	r4, r0
    49ec:	4b10      	ldr	r3, [pc, #64]	; (4a30 <vQueueWaitForMessageRestricted+0x48>)
    49ee:	460d      	mov	r5, r1
    49f0:	4616      	mov	r6, r2
    49f2:	4798      	blx	r3
    49f4:	f894 3044 	ldrb.w	r3, [r4, #68]	; 0x44
    49f8:	2bff      	cmp	r3, #255	; 0xff
    49fa:	bf04      	itt	eq
    49fc:	2300      	moveq	r3, #0
    49fe:	f884 3044 	strbeq.w	r3, [r4, #68]	; 0x44
    4a02:	f894 3045 	ldrb.w	r3, [r4, #69]	; 0x45
    4a06:	2bff      	cmp	r3, #255	; 0xff
    4a08:	bf04      	itt	eq
    4a0a:	2300      	moveq	r3, #0
    4a0c:	f884 3045 	strbeq.w	r3, [r4, #69]	; 0x45
    4a10:	4b08      	ldr	r3, [pc, #32]	; (4a34 <vQueueWaitForMessageRestricted+0x4c>)
    4a12:	4798      	blx	r3
    4a14:	6ba3      	ldr	r3, [r4, #56]	; 0x38
    4a16:	b92b      	cbnz	r3, 4a24 <vQueueWaitForMessageRestricted+0x3c>
    4a18:	4632      	mov	r2, r6
    4a1a:	4629      	mov	r1, r5
    4a1c:	f104 0024 	add.w	r0, r4, #36	; 0x24
    4a20:	4b05      	ldr	r3, [pc, #20]	; (4a38 <vQueueWaitForMessageRestricted+0x50>)
    4a22:	4798      	blx	r3
    4a24:	4620      	mov	r0, r4
    4a26:	4b05      	ldr	r3, [pc, #20]	; (4a3c <vQueueWaitForMessageRestricted+0x54>)
    4a28:	e8bd 4070 	ldmia.w	sp!, {r4, r5, r6, lr}
    4a2c:	4718      	bx	r3
    4a2e:	bf00      	nop
    4a30:	00003d85 	.word	0x00003d85
    4a34:	00003dc9 	.word	0x00003dc9
    4a38:	00005021 	.word	0x00005021
    4a3c:	0000426d 	.word	0x0000426d

00004a40 <prvIdleTask>:
    4a40:	4906      	ldr	r1, [pc, #24]	; (4a5c <prvIdleTask+0x1c>)
    4a42:	4b07      	ldr	r3, [pc, #28]	; (4a60 <prvIdleTask+0x20>)
    4a44:	f04f 5280 	mov.w	r2, #268435456	; 0x10000000
    4a48:	6808      	ldr	r0, [r1, #0]
    4a4a:	2801      	cmp	r0, #1
    4a4c:	d9fc      	bls.n	4a48 <prvIdleTask+0x8>
    4a4e:	601a      	str	r2, [r3, #0]
    4a50:	f3bf 8f4f 	dsb	sy
    4a54:	f3bf 8f6f 	isb	sy
    4a58:	e7f6      	b.n	4a48 <prvIdleTask+0x8>
    4a5a:	bf00      	nop
    4a5c:	20003420 	.word	0x20003420
    4a60:	e000ed04 	.word	0xe000ed04

00004a64 <prvResetNextTaskUnblockTime>:
    4a64:	4b06      	ldr	r3, [pc, #24]	; (4a80 <prvResetNextTaskUnblockTime+0x1c>)
    4a66:	6e5a      	ldr	r2, [r3, #100]	; 0x64
    4a68:	6812      	ldr	r2, [r2, #0]
    4a6a:	b91a      	cbnz	r2, 4a74 <prvResetNextTaskUnblockTime+0x10>
    4a6c:	f04f 32ff 	mov.w	r2, #4294967295
    4a70:	669a      	str	r2, [r3, #104]	; 0x68
    4a72:	4770      	bx	lr
    4a74:	6e5a      	ldr	r2, [r3, #100]	; 0x64
    4a76:	68d2      	ldr	r2, [r2, #12]
    4a78:	68d2      	ldr	r2, [r2, #12]
    4a7a:	6852      	ldr	r2, [r2, #4]
    4a7c:	e7f8      	b.n	4a70 <prvResetNextTaskUnblockTime+0xc>
    4a7e:	bf00      	nop
    4a80:	20003420 	.word	0x20003420

00004a84 <prvAddCurrentTaskToDelayedList>:
    4a84:	e92d 41f0 	stmdb	sp!, {r4, r5, r6, r7, r8, lr}
    4a88:	4e15      	ldr	r6, [pc, #84]	; (4ae0 <prvAddCurrentTaskToDelayedList+0x5c>)
    4a8a:	4b16      	ldr	r3, [pc, #88]	; (4ae4 <prvAddCurrentTaskToDelayedList+0x60>)
    4a8c:	6ef7      	ldr	r7, [r6, #108]	; 0x6c
    4a8e:	4605      	mov	r5, r0
    4a90:	6f30      	ldr	r0, [r6, #112]	; 0x70
    4a92:	3004      	adds	r0, #4
    4a94:	4688      	mov	r8, r1
    4a96:	4798      	blx	r3
    4a98:	1c6b      	adds	r3, r5, #1
    4a9a:	4634      	mov	r4, r6
    4a9c:	d10a      	bne.n	4ab4 <prvAddCurrentTaskToDelayedList+0x30>
    4a9e:	f1b8 0f00 	cmp.w	r8, #0
    4aa2:	d007      	beq.n	4ab4 <prvAddCurrentTaskToDelayedList+0x30>
    4aa4:	6f31      	ldr	r1, [r6, #112]	; 0x70
    4aa6:	4b10      	ldr	r3, [pc, #64]	; (4ae8 <prvAddCurrentTaskToDelayedList+0x64>)
    4aa8:	3104      	adds	r1, #4
    4aaa:	f106 0074 	add.w	r0, r6, #116	; 0x74
    4aae:	e8bd 41f0 	ldmia.w	sp!, {r4, r5, r6, r7, r8, lr}
    4ab2:	4718      	bx	r3
    4ab4:	443d      	add	r5, r7
    4ab6:	6f23      	ldr	r3, [r4, #112]	; 0x70
    4ab8:	42af      	cmp	r7, r5
    4aba:	605d      	str	r5, [r3, #4]
    4abc:	4b0b      	ldr	r3, [pc, #44]	; (4aec <prvAddCurrentTaskToDelayedList+0x68>)
    4abe:	d904      	bls.n	4aca <prvAddCurrentTaskToDelayedList+0x46>
    4ac0:	f8d4 0088 	ldr.w	r0, [r4, #136]	; 0x88
    4ac4:	6f21      	ldr	r1, [r4, #112]	; 0x70
    4ac6:	3104      	adds	r1, #4
    4ac8:	e7f1      	b.n	4aae <prvAddCurrentTaskToDelayedList+0x2a>
    4aca:	6e60      	ldr	r0, [r4, #100]	; 0x64
    4acc:	6f21      	ldr	r1, [r4, #112]	; 0x70
    4ace:	3104      	adds	r1, #4
    4ad0:	4798      	blx	r3
    4ad2:	6ea3      	ldr	r3, [r4, #104]	; 0x68
    4ad4:	429d      	cmp	r5, r3
    4ad6:	bf38      	it	cc
    4ad8:	66a5      	strcc	r5, [r4, #104]	; 0x68
    4ada:	e8bd 81f0 	ldmia.w	sp!, {r4, r5, r6, r7, r8, pc}
    4ade:	bf00      	nop
    4ae0:	20003420 	.word	0x20003420
    4ae4:	00003c97 	.word	0x00003c97
    4ae8:	00003c51 	.word	0x00003c51
    4aec:	00003c69 	.word	0x00003c69

00004af0 <xTaskCreate>:
    4af0:	e92d 4ff8 	stmdb	sp!, {r3, r4, r5, r6, r7, r8, r9, sl, fp, lr}
    4af4:	0094      	lsls	r4, r2, #2
    4af6:	4680      	mov	r8, r0
    4af8:	4d5a      	ldr	r5, [pc, #360]	; (4c64 <xTaskCreate+0x174>)
    4afa:	4620      	mov	r0, r4
    4afc:	460f      	mov	r7, r1
    4afe:	4699      	mov	r9, r3
    4b00:	47a8      	blx	r5
    4b02:	4606      	mov	r6, r0
    4b04:	2800      	cmp	r0, #0
    4b06:	f000 809e 	beq.w	4c46 <xTaskCreate+0x156>
    4b0a:	2054      	movs	r0, #84	; 0x54
    4b0c:	47a8      	blx	r5
    4b0e:	4605      	mov	r5, r0
    4b10:	2800      	cmp	r0, #0
    4b12:	f000 8095 	beq.w	4c40 <xTaskCreate+0x150>
    4b16:	4622      	mov	r2, r4
    4b18:	6306      	str	r6, [r0, #48]	; 0x30
    4b1a:	4b53      	ldr	r3, [pc, #332]	; (4c68 <xTaskCreate+0x178>)
    4b1c:	21a5      	movs	r1, #165	; 0xa5
    4b1e:	4630      	mov	r0, r6
    4b20:	4798      	blx	r3
    4b22:	6b2b      	ldr	r3, [r5, #48]	; 0x30
    4b24:	3c04      	subs	r4, #4
    4b26:	441c      	add	r4, r3
    4b28:	f024 0a07 	bic.w	sl, r4, #7
    4b2c:	1e7b      	subs	r3, r7, #1
    4b2e:	f105 0234 	add.w	r2, r5, #52	; 0x34
    4b32:	3707      	adds	r7, #7
    4b34:	7859      	ldrb	r1, [r3, #1]
    4b36:	f802 1b01 	strb.w	r1, [r2], #1
    4b3a:	f813 1f01 	ldrb.w	r1, [r3, #1]!
    4b3e:	b109      	cbz	r1, 4b44 <xTaskCreate+0x54>
    4b40:	42bb      	cmp	r3, r7
    4b42:	d1f7      	bne.n	4b34 <xTaskCreate+0x44>
    4b44:	9c0a      	ldr	r4, [sp, #40]	; 0x28
    4b46:	4e49      	ldr	r6, [pc, #292]	; (4c6c <xTaskCreate+0x17c>)
    4b48:	2c04      	cmp	r4, #4
    4b4a:	bf28      	it	cs
    4b4c:	2404      	movcs	r4, #4
    4b4e:	f04f 0b00 	mov.w	fp, #0
    4b52:	1d2f      	adds	r7, r5, #4
    4b54:	62ec      	str	r4, [r5, #44]	; 0x2c
    4b56:	646c      	str	r4, [r5, #68]	; 0x44
    4b58:	4638      	mov	r0, r7
    4b5a:	f885 b03b 	strb.w	fp, [r5, #59]	; 0x3b
    4b5e:	f8c5 b048 	str.w	fp, [r5, #72]	; 0x48
    4b62:	47b0      	blx	r6
    4b64:	f1c4 0405 	rsb	r4, r4, #5
    4b68:	f105 0018 	add.w	r0, r5, #24
    4b6c:	47b0      	blx	r6
    4b6e:	f8c5 b04c 	str.w	fp, [r5, #76]	; 0x4c
    4b72:	4b3f      	ldr	r3, [pc, #252]	; (4c70 <xTaskCreate+0x180>)
    4b74:	612d      	str	r5, [r5, #16]
    4b76:	61ac      	str	r4, [r5, #24]
    4b78:	626d      	str	r5, [r5, #36]	; 0x24
    4b7a:	f885 b050 	strb.w	fp, [r5, #80]	; 0x50
    4b7e:	464a      	mov	r2, r9
    4b80:	4641      	mov	r1, r8
    4b82:	4650      	mov	r0, sl
    4b84:	4798      	blx	r3
    4b86:	9b0b      	ldr	r3, [sp, #44]	; 0x2c
    4b88:	6028      	str	r0, [r5, #0]
    4b8a:	b103      	cbz	r3, 4b8e <xTaskCreate+0x9e>
    4b8c:	601d      	str	r5, [r3, #0]
    4b8e:	4c39      	ldr	r4, [pc, #228]	; (4c74 <xTaskCreate+0x184>)
    4b90:	4b39      	ldr	r3, [pc, #228]	; (4c78 <xTaskCreate+0x188>)
    4b92:	4798      	blx	r3
    4b94:	f8d4 30a0 	ldr.w	r3, [r4, #160]	; 0xa0
    4b98:	3301      	adds	r3, #1
    4b9a:	f8c4 30a0 	str.w	r3, [r4, #160]	; 0xa0
    4b9e:	6f23      	ldr	r3, [r4, #112]	; 0x70
    4ba0:	2b00      	cmp	r3, #0
    4ba2:	d154      	bne.n	4c4e <xTaskCreate+0x15e>
    4ba4:	6725      	str	r5, [r4, #112]	; 0x70
    4ba6:	f8d4 30a0 	ldr.w	r3, [r4, #160]	; 0xa0
    4baa:	2b01      	cmp	r3, #1
    4bac:	d120      	bne.n	4bf0 <xTaskCreate+0x100>
    4bae:	4e33      	ldr	r6, [pc, #204]	; (4c7c <xTaskCreate+0x18c>)
    4bb0:	4620      	mov	r0, r4
    4bb2:	47b0      	blx	r6
    4bb4:	f104 0014 	add.w	r0, r4, #20
    4bb8:	47b0      	blx	r6
    4bba:	f104 0028 	add.w	r0, r4, #40	; 0x28
    4bbe:	47b0      	blx	r6
    4bc0:	f104 003c 	add.w	r0, r4, #60	; 0x3c
    4bc4:	47b0      	blx	r6
    4bc6:	f104 09a4 	add.w	r9, r4, #164	; 0xa4
    4bca:	f104 0050 	add.w	r0, r4, #80	; 0x50
    4bce:	47b0      	blx	r6
    4bd0:	f104 08b8 	add.w	r8, r4, #184	; 0xb8
    4bd4:	4648      	mov	r0, r9
    4bd6:	47b0      	blx	r6
    4bd8:	4640      	mov	r0, r8
    4bda:	47b0      	blx	r6
    4bdc:	f104 008c 	add.w	r0, r4, #140	; 0x8c
    4be0:	47b0      	blx	r6
    4be2:	f104 0074 	add.w	r0, r4, #116	; 0x74
    4be6:	47b0      	blx	r6
    4be8:	f8c4 9064 	str.w	r9, [r4, #100]	; 0x64
    4bec:	f8c4 8088 	str.w	r8, [r4, #136]	; 0x88
    4bf0:	f8d4 30d0 	ldr.w	r3, [r4, #208]	; 0xd0
    4bf4:	f8d4 20d4 	ldr.w	r2, [r4, #212]	; 0xd4
    4bf8:	3301      	adds	r3, #1
    4bfa:	f8c4 30d0 	str.w	r3, [r4, #208]	; 0xd0
    4bfe:	63eb      	str	r3, [r5, #60]	; 0x3c
    4c00:	6aeb      	ldr	r3, [r5, #44]	; 0x2c
    4c02:	2014      	movs	r0, #20
    4c04:	4293      	cmp	r3, r2
    4c06:	bf88      	it	hi
    4c08:	f8c4 30d4 	strhi.w	r3, [r4, #212]	; 0xd4
    4c0c:	fb00 4003 	mla	r0, r0, r3, r4
    4c10:	4639      	mov	r1, r7
    4c12:	4b1b      	ldr	r3, [pc, #108]	; (4c80 <xTaskCreate+0x190>)
    4c14:	4798      	blx	r3
    4c16:	4b1b      	ldr	r3, [pc, #108]	; (4c84 <xTaskCreate+0x194>)
    4c18:	4798      	blx	r3
    4c1a:	f8d4 30cc 	ldr.w	r3, [r4, #204]	; 0xcc
    4c1e:	b163      	cbz	r3, 4c3a <xTaskCreate+0x14a>
    4c20:	6f23      	ldr	r3, [r4, #112]	; 0x70
    4c22:	6ada      	ldr	r2, [r3, #44]	; 0x2c
    4c24:	6aeb      	ldr	r3, [r5, #44]	; 0x2c
    4c26:	429a      	cmp	r2, r3
    4c28:	d207      	bcs.n	4c3a <xTaskCreate+0x14a>
    4c2a:	4b17      	ldr	r3, [pc, #92]	; (4c88 <xTaskCreate+0x198>)
    4c2c:	f04f 5280 	mov.w	r2, #268435456	; 0x10000000
    4c30:	601a      	str	r2, [r3, #0]
    4c32:	f3bf 8f4f 	dsb	sy
    4c36:	f3bf 8f6f 	isb	sy
    4c3a:	2001      	movs	r0, #1
    4c3c:	e8bd 8ff8 	ldmia.w	sp!, {r3, r4, r5, r6, r7, r8, r9, sl, fp, pc}
    4c40:	4630      	mov	r0, r6
    4c42:	4b12      	ldr	r3, [pc, #72]	; (4c8c <xTaskCreate+0x19c>)
    4c44:	4798      	blx	r3
    4c46:	f04f 30ff 	mov.w	r0, #4294967295
    4c4a:	e8bd 8ff8 	ldmia.w	sp!, {r3, r4, r5, r6, r7, r8, r9, sl, fp, pc}
    4c4e:	f8d4 30cc 	ldr.w	r3, [r4, #204]	; 0xcc
    4c52:	2b00      	cmp	r3, #0
    4c54:	d1cc      	bne.n	4bf0 <xTaskCreate+0x100>
    4c56:	6f23      	ldr	r3, [r4, #112]	; 0x70
    4c58:	6ada      	ldr	r2, [r3, #44]	; 0x2c
    4c5a:	6aeb      	ldr	r3, [r5, #44]	; 0x2c
    4c5c:	429a      	cmp	r2, r3
    4c5e:	bf98      	it	ls
    4c60:	6725      	strls	r5, [r4, #112]	; 0x70
    4c62:	e7c5      	b.n	4bf0 <xTaskCreate+0x100>
    4c64:	00004015 	.word	0x00004015
    4c68:	000059bf 	.word	0x000059bf
    4c6c:	00003c4b 	.word	0x00003c4b
    4c70:	00003d35 	.word	0x00003d35
    4c74:	20003420 	.word	0x20003420
    4c78:	00003d85 	.word	0x00003d85
    4c7c:	00003c35 	.word	0x00003c35
    4c80:	00003c51 	.word	0x00003c51
    4c84:	00003dc9 	.word	0x00003dc9
    4c88:	e000ed04 	.word	0xe000ed04
    4c8c:	000040e1 	.word	0x000040e1

00004c90 <vTaskStartScheduler>:
    4c90:	b573      	push	{r0, r1, r4, r5, r6, lr}
    4c92:	4c19      	ldr	r4, [pc, #100]	; (4cf8 <vTaskStartScheduler+0x68>)
    4c94:	4919      	ldr	r1, [pc, #100]	; (4cfc <vTaskStartScheduler+0x6c>)
    4c96:	481a      	ldr	r0, [pc, #104]	; (4d00 <vTaskStartScheduler+0x70>)
    4c98:	4e1a      	ldr	r6, [pc, #104]	; (4d04 <vTaskStartScheduler+0x74>)
    4c9a:	f104 03dc 	add.w	r3, r4, #220	; 0xdc
    4c9e:	2500      	movs	r5, #0
    4ca0:	9301      	str	r3, [sp, #4]
    4ca2:	9500      	str	r5, [sp, #0]
    4ca4:	462b      	mov	r3, r5
    4ca6:	2280      	movs	r2, #128	; 0x80
    4ca8:	47b0      	blx	r6
    4caa:	2801      	cmp	r0, #1
    4cac:	d116      	bne.n	4cdc <vTaskStartScheduler+0x4c>
    4cae:	4b16      	ldr	r3, [pc, #88]	; (4d08 <vTaskStartScheduler+0x78>)
    4cb0:	4798      	blx	r3
    4cb2:	2801      	cmp	r0, #1
    4cb4:	d112      	bne.n	4cdc <vTaskStartScheduler+0x4c>
    4cb6:	f04f 0380 	mov.w	r3, #128	; 0x80
    4cba:	f383 8811 	msr	BASEPRI, r3
    4cbe:	f3bf 8f6f 	isb	sy
    4cc2:	f3bf 8f4f 	dsb	sy
    4cc6:	f04f 33ff 	mov.w	r3, #4294967295
    4cca:	66a3      	str	r3, [r4, #104]	; 0x68
    4ccc:	4b0f      	ldr	r3, [pc, #60]	; (4d0c <vTaskStartScheduler+0x7c>)
    4cce:	f8c4 00cc 	str.w	r0, [r4, #204]	; 0xcc
    4cd2:	66e5      	str	r5, [r4, #108]	; 0x6c
    4cd4:	b002      	add	sp, #8
    4cd6:	e8bd 4070 	ldmia.w	sp!, {r4, r5, r6, lr}
    4cda:	4718      	bx	r3
    4cdc:	3001      	adds	r0, #1
    4cde:	d108      	bne.n	4cf2 <vTaskStartScheduler+0x62>
    4ce0:	f04f 0380 	mov.w	r3, #128	; 0x80
    4ce4:	f383 8811 	msr	BASEPRI, r3
    4ce8:	f3bf 8f6f 	isb	sy
    4cec:	f3bf 8f4f 	dsb	sy
    4cf0:	e7fe      	b.n	4cf0 <vTaskStartScheduler+0x60>
    4cf2:	b002      	add	sp, #8
    4cf4:	bd70      	pop	{r4, r5, r6, pc}
    4cf6:	bf00      	nop
    4cf8:	20003420 	.word	0x20003420
    4cfc:	000082f5 	.word	0x000082f5
    4d00:	00004a41 	.word	0x00004a41
    4d04:	00004af1 	.word	0x00004af1
    4d08:	0000558d 	.word	0x0000558d
    4d0c:	00003ea9 	.word	0x00003ea9

00004d10 <vTaskSuspendAll>:
    4d10:	4a03      	ldr	r2, [pc, #12]	; (4d20 <vTaskSuspendAll+0x10>)
    4d12:	f8d2 30d8 	ldr.w	r3, [r2, #216]	; 0xd8
    4d16:	3301      	adds	r3, #1
    4d18:	f8c2 30d8 	str.w	r3, [r2, #216]	; 0xd8
    4d1c:	4770      	bx	lr
    4d1e:	bf00      	nop
    4d20:	20003420 	.word	0x20003420

00004d24 <xTaskGetTickCount>:
    4d24:	4b01      	ldr	r3, [pc, #4]	; (4d2c <xTaskGetTickCount+0x8>)
    4d26:	6ed8      	ldr	r0, [r3, #108]	; 0x6c
    4d28:	4770      	bx	lr
    4d2a:	bf00      	nop
    4d2c:	20003420 	.word	0x20003420

00004d30 <xTaskIncrementTick>:
    4d30:	e92d 4ff8 	stmdb	sp!, {r3, r4, r5, r6, r7, r8, r9, sl, fp, lr}
    4d34:	4b35      	ldr	r3, [pc, #212]	; (4e0c <xTaskIncrementTick+0xdc>)
    4d36:	f8d3 20d8 	ldr.w	r2, [r3, #216]	; 0xd8
    4d3a:	461c      	mov	r4, r3
    4d3c:	2a00      	cmp	r2, #0
    4d3e:	d13d      	bne.n	4dbc <xTaskIncrementTick+0x8c>
    4d40:	6ede      	ldr	r6, [r3, #108]	; 0x6c
    4d42:	3601      	adds	r6, #1
    4d44:	66de      	str	r6, [r3, #108]	; 0x6c
    4d46:	b9c6      	cbnz	r6, 4d7a <xTaskIncrementTick+0x4a>
    4d48:	6e5b      	ldr	r3, [r3, #100]	; 0x64
    4d4a:	681b      	ldr	r3, [r3, #0]
    4d4c:	b143      	cbz	r3, 4d60 <xTaskIncrementTick+0x30>
    4d4e:	f04f 0380 	mov.w	r3, #128	; 0x80
    4d52:	f383 8811 	msr	BASEPRI, r3
    4d56:	f3bf 8f6f 	isb	sy
    4d5a:	f3bf 8f4f 	dsb	sy
    4d5e:	e7fe      	b.n	4d5e <xTaskIncrementTick+0x2e>
    4d60:	6e63      	ldr	r3, [r4, #100]	; 0x64
    4d62:	f8d4 2088 	ldr.w	r2, [r4, #136]	; 0x88
    4d66:	6662      	str	r2, [r4, #100]	; 0x64
    4d68:	f8c4 3088 	str.w	r3, [r4, #136]	; 0x88
    4d6c:	f8d4 30e0 	ldr.w	r3, [r4, #224]	; 0xe0
    4d70:	3301      	adds	r3, #1
    4d72:	f8c4 30e0 	str.w	r3, [r4, #224]	; 0xe0
    4d76:	4b26      	ldr	r3, [pc, #152]	; (4e10 <xTaskIncrementTick+0xe0>)
    4d78:	4798      	blx	r3
    4d7a:	6ea3      	ldr	r3, [r4, #104]	; 0x68
    4d7c:	429e      	cmp	r6, r3
    4d7e:	f04f 0500 	mov.w	r5, #0
    4d82:	d30b      	bcc.n	4d9c <xTaskIncrementTick+0x6c>
    4d84:	f8df 808c 	ldr.w	r8, [pc, #140]	; 4e14 <xTaskIncrementTick+0xe4>
    4d88:	f8df b08c 	ldr.w	fp, [pc, #140]	; 4e18 <xTaskIncrementTick+0xe8>
    4d8c:	f04f 0a14 	mov.w	sl, #20
    4d90:	6e63      	ldr	r3, [r4, #100]	; 0x64
    4d92:	681b      	ldr	r3, [r3, #0]
    4d94:	b9cb      	cbnz	r3, 4dca <xTaskIncrementTick+0x9a>
    4d96:	f04f 33ff 	mov.w	r3, #4294967295
    4d9a:	66a3      	str	r3, [r4, #104]	; 0x68
    4d9c:	6f23      	ldr	r3, [r4, #112]	; 0x70
    4d9e:	6ada      	ldr	r2, [r3, #44]	; 0x2c
    4da0:	2314      	movs	r3, #20
    4da2:	4353      	muls	r3, r2
    4da4:	58e3      	ldr	r3, [r4, r3]
    4da6:	2b02      	cmp	r3, #2
    4da8:	bf28      	it	cs
    4daa:	2501      	movcs	r5, #1
    4dac:	f8d4 30e8 	ldr.w	r3, [r4, #232]	; 0xe8
    4db0:	2b00      	cmp	r3, #0
    4db2:	bf18      	it	ne
    4db4:	2501      	movne	r5, #1
    4db6:	4628      	mov	r0, r5
    4db8:	e8bd 8ff8 	ldmia.w	sp!, {r3, r4, r5, r6, r7, r8, r9, sl, fp, pc}
    4dbc:	f8d3 30e4 	ldr.w	r3, [r3, #228]	; 0xe4
    4dc0:	3301      	adds	r3, #1
    4dc2:	f8c4 30e4 	str.w	r3, [r4, #228]	; 0xe4
    4dc6:	2500      	movs	r5, #0
    4dc8:	e7f0      	b.n	4dac <xTaskIncrementTick+0x7c>
    4dca:	6e63      	ldr	r3, [r4, #100]	; 0x64
    4dcc:	68db      	ldr	r3, [r3, #12]
    4dce:	68df      	ldr	r7, [r3, #12]
    4dd0:	687b      	ldr	r3, [r7, #4]
    4dd2:	429e      	cmp	r6, r3
    4dd4:	d3e1      	bcc.n	4d9a <xTaskIncrementTick+0x6a>
    4dd6:	f107 0904 	add.w	r9, r7, #4
    4dda:	4648      	mov	r0, r9
    4ddc:	47c0      	blx	r8
    4dde:	6abb      	ldr	r3, [r7, #40]	; 0x28
    4de0:	b113      	cbz	r3, 4de8 <xTaskIncrementTick+0xb8>
    4de2:	f107 0018 	add.w	r0, r7, #24
    4de6:	47c0      	blx	r8
    4de8:	6af8      	ldr	r0, [r7, #44]	; 0x2c
    4dea:	f8d4 30d4 	ldr.w	r3, [r4, #212]	; 0xd4
    4dee:	4298      	cmp	r0, r3
    4df0:	bf88      	it	hi
    4df2:	f8c4 00d4 	strhi.w	r0, [r4, #212]	; 0xd4
    4df6:	4649      	mov	r1, r9
    4df8:	fb0a 4000 	mla	r0, sl, r0, r4
    4dfc:	47d8      	blx	fp
    4dfe:	6f23      	ldr	r3, [r4, #112]	; 0x70
    4e00:	6afa      	ldr	r2, [r7, #44]	; 0x2c
    4e02:	6adb      	ldr	r3, [r3, #44]	; 0x2c
    4e04:	429a      	cmp	r2, r3
    4e06:	bf28      	it	cs
    4e08:	2501      	movcs	r5, #1
    4e0a:	e7c1      	b.n	4d90 <xTaskIncrementTick+0x60>
    4e0c:	20003420 	.word	0x20003420
    4e10:	00004a65 	.word	0x00004a65
    4e14:	00003c97 	.word	0x00003c97
    4e18:	00003c51 	.word	0x00003c51

00004e1c <xTaskResumeAll>:
    4e1c:	e92d 43f8 	stmdb	sp!, {r3, r4, r5, r6, r7, r8, r9, lr}
    4e20:	4c31      	ldr	r4, [pc, #196]	; (4ee8 <xTaskResumeAll+0xcc>)
    4e22:	f8d4 30d8 	ldr.w	r3, [r4, #216]	; 0xd8
    4e26:	b943      	cbnz	r3, 4e3a <xTaskResumeAll+0x1e>
    4e28:	f04f 0380 	mov.w	r3, #128	; 0x80
    4e2c:	f383 8811 	msr	BASEPRI, r3
    4e30:	f3bf 8f6f 	isb	sy
    4e34:	f3bf 8f4f 	dsb	sy
    4e38:	e7fe      	b.n	4e38 <xTaskResumeAll+0x1c>
    4e3a:	4b2c      	ldr	r3, [pc, #176]	; (4eec <xTaskResumeAll+0xd0>)
    4e3c:	4798      	blx	r3
    4e3e:	f8d4 30d8 	ldr.w	r3, [r4, #216]	; 0xd8
    4e42:	3b01      	subs	r3, #1
    4e44:	f8c4 30d8 	str.w	r3, [r4, #216]	; 0xd8
    4e48:	f8d4 50d8 	ldr.w	r5, [r4, #216]	; 0xd8
    4e4c:	b12d      	cbz	r5, 4e5a <xTaskResumeAll+0x3e>
    4e4e:	2400      	movs	r4, #0
    4e50:	4b27      	ldr	r3, [pc, #156]	; (4ef0 <xTaskResumeAll+0xd4>)
    4e52:	4798      	blx	r3
    4e54:	4620      	mov	r0, r4
    4e56:	e8bd 83f8 	ldmia.w	sp!, {r3, r4, r5, r6, r7, r8, r9, pc}
    4e5a:	f8d4 30a0 	ldr.w	r3, [r4, #160]	; 0xa0
    4e5e:	2b00      	cmp	r3, #0
    4e60:	d0f5      	beq.n	4e4e <xTaskResumeAll+0x32>
    4e62:	4f24      	ldr	r7, [pc, #144]	; (4ef4 <xTaskResumeAll+0xd8>)
    4e64:	f8df 909c 	ldr.w	r9, [pc, #156]	; 4f04 <xTaskResumeAll+0xe8>
    4e68:	f04f 0814 	mov.w	r8, #20
    4e6c:	f8d4 308c 	ldr.w	r3, [r4, #140]	; 0x8c
    4e70:	b9eb      	cbnz	r3, 4eae <xTaskResumeAll+0x92>
    4e72:	b10d      	cbz	r5, 4e78 <xTaskResumeAll+0x5c>
    4e74:	4b20      	ldr	r3, [pc, #128]	; (4ef8 <xTaskResumeAll+0xdc>)
    4e76:	4798      	blx	r3
    4e78:	f8d4 50e4 	ldr.w	r5, [r4, #228]	; 0xe4
    4e7c:	b14d      	cbz	r5, 4e92 <xTaskResumeAll+0x76>
    4e7e:	4e1f      	ldr	r6, [pc, #124]	; (4efc <xTaskResumeAll+0xe0>)
    4e80:	2701      	movs	r7, #1
    4e82:	47b0      	blx	r6
    4e84:	b108      	cbz	r0, 4e8a <xTaskResumeAll+0x6e>
    4e86:	f8c4 70e8 	str.w	r7, [r4, #232]	; 0xe8
    4e8a:	3d01      	subs	r5, #1
    4e8c:	d1f9      	bne.n	4e82 <xTaskResumeAll+0x66>
    4e8e:	f8c4 50e4 	str.w	r5, [r4, #228]	; 0xe4
    4e92:	f8d4 30e8 	ldr.w	r3, [r4, #232]	; 0xe8
    4e96:	2b00      	cmp	r3, #0
    4e98:	d0d9      	beq.n	4e4e <xTaskResumeAll+0x32>
    4e9a:	4b19      	ldr	r3, [pc, #100]	; (4f00 <xTaskResumeAll+0xe4>)
    4e9c:	f04f 5280 	mov.w	r2, #268435456	; 0x10000000
    4ea0:	601a      	str	r2, [r3, #0]
    4ea2:	f3bf 8f4f 	dsb	sy
    4ea6:	f3bf 8f6f 	isb	sy
    4eaa:	2401      	movs	r4, #1
    4eac:	e7d0      	b.n	4e50 <xTaskResumeAll+0x34>
    4eae:	f8d4 3098 	ldr.w	r3, [r4, #152]	; 0x98
    4eb2:	68dd      	ldr	r5, [r3, #12]
    4eb4:	1d2e      	adds	r6, r5, #4
    4eb6:	f105 0018 	add.w	r0, r5, #24
    4eba:	47b8      	blx	r7
    4ebc:	4630      	mov	r0, r6
    4ebe:	47b8      	blx	r7
    4ec0:	6ae8      	ldr	r0, [r5, #44]	; 0x2c
    4ec2:	f8d4 30d4 	ldr.w	r3, [r4, #212]	; 0xd4
    4ec6:	4298      	cmp	r0, r3
    4ec8:	bf88      	it	hi
    4eca:	f8c4 00d4 	strhi.w	r0, [r4, #212]	; 0xd4
    4ece:	4631      	mov	r1, r6
    4ed0:	fb08 4000 	mla	r0, r8, r0, r4
    4ed4:	47c8      	blx	r9
    4ed6:	6f23      	ldr	r3, [r4, #112]	; 0x70
    4ed8:	6aea      	ldr	r2, [r5, #44]	; 0x2c
    4eda:	6adb      	ldr	r3, [r3, #44]	; 0x2c
    4edc:	429a      	cmp	r2, r3
    4ede:	bf24      	itt	cs
    4ee0:	2301      	movcs	r3, #1
    4ee2:	f8c4 30e8 	strcs.w	r3, [r4, #232]	; 0xe8
    4ee6:	e7c1      	b.n	4e6c <xTaskResumeAll+0x50>
    4ee8:	20003420 	.word	0x20003420
    4eec:	00003d85 	.word	0x00003d85
    4ef0:	00003dc9 	.word	0x00003dc9
    4ef4:	00003c97 	.word	0x00003c97
    4ef8:	00004a65 	.word	0x00004a65
    4efc:	00004d31 	.word	0x00004d31
    4f00:	e000ed04 	.word	0xe000ed04
    4f04:	00003c51 	.word	0x00003c51

00004f08 <vTaskDelay>:
    4f08:	b508      	push	{r3, lr}
    4f0a:	b940      	cbnz	r0, 4f1e <vTaskDelay+0x16>
    4f0c:	4b0f      	ldr	r3, [pc, #60]	; (4f4c <vTaskDelay+0x44>)
    4f0e:	f04f 5280 	mov.w	r2, #268435456	; 0x10000000
    4f12:	601a      	str	r2, [r3, #0]
    4f14:	f3bf 8f4f 	dsb	sy
    4f18:	f3bf 8f6f 	isb	sy
    4f1c:	bd08      	pop	{r3, pc}
    4f1e:	4b0c      	ldr	r3, [pc, #48]	; (4f50 <vTaskDelay+0x48>)
    4f20:	f8d3 10d8 	ldr.w	r1, [r3, #216]	; 0xd8
    4f24:	b141      	cbz	r1, 4f38 <vTaskDelay+0x30>
    4f26:	f04f 0380 	mov.w	r3, #128	; 0x80
    4f2a:	f383 8811 	msr	BASEPRI, r3
    4f2e:	f3bf 8f6f 	isb	sy
    4f32:	f3bf 8f4f 	dsb	sy
    4f36:	e7fe      	b.n	4f36 <vTaskDelay+0x2e>
    4f38:	4b06      	ldr	r3, [pc, #24]	; (4f54 <vTaskDelay+0x4c>)
    4f3a:	4798      	blx	r3
    4f3c:	4b06      	ldr	r3, [pc, #24]	; (4f58 <vTaskDelay+0x50>)
    4f3e:	4798      	blx	r3
    4f40:	4b06      	ldr	r3, [pc, #24]	; (4f5c <vTaskDelay+0x54>)
    4f42:	4798      	blx	r3
    4f44:	2800      	cmp	r0, #0
    4f46:	d0e1      	beq.n	4f0c <vTaskDelay+0x4>
    4f48:	bd08      	pop	{r3, pc}
    4f4a:	bf00      	nop
    4f4c:	e000ed04 	.word	0xe000ed04
    4f50:	20003420 	.word	0x20003420
    4f54:	00004d11 	.word	0x00004d11
    4f58:	00004a85 	.word	0x00004a85
    4f5c:	00004e1d 	.word	0x00004e1d

00004f60 <vTaskSwitchContext>:
    4f60:	b538      	push	{r3, r4, r5, lr}
    4f62:	4b1e      	ldr	r3, [pc, #120]	; (4fdc <vTaskSwitchContext+0x7c>)
    4f64:	f8d3 20d8 	ldr.w	r2, [r3, #216]	; 0xd8
    4f68:	461c      	mov	r4, r3
    4f6a:	b11a      	cbz	r2, 4f74 <vTaskSwitchContext+0x14>
    4f6c:	2201      	movs	r2, #1
    4f6e:	f8c3 20e8 	str.w	r2, [r3, #232]	; 0xe8
    4f72:	bd38      	pop	{r3, r4, r5, pc}
    4f74:	f8c3 20e8 	str.w	r2, [r3, #232]	; 0xe8
    4f78:	6f1a      	ldr	r2, [r3, #112]	; 0x70
    4f7a:	6f1b      	ldr	r3, [r3, #112]	; 0x70
    4f7c:	6812      	ldr	r2, [r2, #0]
    4f7e:	6b1b      	ldr	r3, [r3, #48]	; 0x30
    4f80:	429a      	cmp	r2, r3
    4f82:	d804      	bhi.n	4f8e <vTaskSwitchContext+0x2e>
    4f84:	6f20      	ldr	r0, [r4, #112]	; 0x70
    4f86:	6f21      	ldr	r1, [r4, #112]	; 0x70
    4f88:	4b15      	ldr	r3, [pc, #84]	; (4fe0 <vTaskSwitchContext+0x80>)
    4f8a:	3134      	adds	r1, #52	; 0x34
    4f8c:	4798      	blx	r3
    4f8e:	f8d4 20d4 	ldr.w	r2, [r4, #212]	; 0xd4
    4f92:	2514      	movs	r5, #20
    4f94:	fb05 f302 	mul.w	r3, r5, r2
    4f98:	18e1      	adds	r1, r4, r3
    4f9a:	58e0      	ldr	r0, [r4, r3]
    4f9c:	b188      	cbz	r0, 4fc2 <vTaskSwitchContext+0x62>
    4f9e:	6848      	ldr	r0, [r1, #4]
    4fa0:	3308      	adds	r3, #8
    4fa2:	6840      	ldr	r0, [r0, #4]
    4fa4:	6048      	str	r0, [r1, #4]
    4fa6:	4423      	add	r3, r4
    4fa8:	4298      	cmp	r0, r3
    4faa:	bf04      	itt	eq
    4fac:	6843      	ldreq	r3, [r0, #4]
    4fae:	604b      	streq	r3, [r1, #4]
    4fb0:	2314      	movs	r3, #20
    4fb2:	fb03 4302 	mla	r3, r3, r2, r4
    4fb6:	685b      	ldr	r3, [r3, #4]
    4fb8:	68db      	ldr	r3, [r3, #12]
    4fba:	6723      	str	r3, [r4, #112]	; 0x70
    4fbc:	f8c4 20d4 	str.w	r2, [r4, #212]	; 0xd4
    4fc0:	bd38      	pop	{r3, r4, r5, pc}
    4fc2:	b942      	cbnz	r2, 4fd6 <vTaskSwitchContext+0x76>
    4fc4:	f04f 0380 	mov.w	r3, #128	; 0x80
    4fc8:	f383 8811 	msr	BASEPRI, r3
    4fcc:	f3bf 8f6f 	isb	sy
    4fd0:	f3bf 8f4f 	dsb	sy
    4fd4:	e7fe      	b.n	4fd4 <vTaskSwitchContext+0x74>
    4fd6:	3a01      	subs	r2, #1
    4fd8:	e7dc      	b.n	4f94 <vTaskSwitchContext+0x34>
    4fda:	bf00      	nop
    4fdc:	20003420 	.word	0x20003420
    4fe0:	000002d1 	.word	0x000002d1

00004fe4 <vTaskPlaceOnEventList>:
    4fe4:	b510      	push	{r4, lr}
    4fe6:	460c      	mov	r4, r1
    4fe8:	b940      	cbnz	r0, 4ffc <vTaskPlaceOnEventList+0x18>
    4fea:	f04f 0380 	mov.w	r3, #128	; 0x80
    4fee:	f383 8811 	msr	BASEPRI, r3
    4ff2:	f3bf 8f6f 	isb	sy
    4ff6:	f3bf 8f4f 	dsb	sy
    4ffa:	e7fe      	b.n	4ffa <vTaskPlaceOnEventList+0x16>
    4ffc:	4b05      	ldr	r3, [pc, #20]	; (5014 <vTaskPlaceOnEventList+0x30>)
    4ffe:	6f19      	ldr	r1, [r3, #112]	; 0x70
    5000:	4b05      	ldr	r3, [pc, #20]	; (5018 <vTaskPlaceOnEventList+0x34>)
    5002:	3118      	adds	r1, #24
    5004:	4798      	blx	r3
    5006:	4620      	mov	r0, r4
    5008:	2101      	movs	r1, #1
    500a:	4b04      	ldr	r3, [pc, #16]	; (501c <vTaskPlaceOnEventList+0x38>)
    500c:	e8bd 4010 	ldmia.w	sp!, {r4, lr}
    5010:	4718      	bx	r3
    5012:	bf00      	nop
    5014:	20003420 	.word	0x20003420
    5018:	00003c69 	.word	0x00003c69
    501c:	00004a85 	.word	0x00004a85

00005020 <vTaskPlaceOnEventListRestricted>:
    5020:	b570      	push	{r4, r5, r6, lr}
    5022:	460d      	mov	r5, r1
    5024:	4614      	mov	r4, r2
    5026:	b940      	cbnz	r0, 503a <vTaskPlaceOnEventListRestricted+0x1a>
    5028:	f04f 0380 	mov.w	r3, #128	; 0x80
    502c:	f383 8811 	msr	BASEPRI, r3
    5030:	f3bf 8f6f 	isb	sy
    5034:	f3bf 8f4f 	dsb	sy
    5038:	e7fe      	b.n	5038 <vTaskPlaceOnEventListRestricted+0x18>
    503a:	4b07      	ldr	r3, [pc, #28]	; (5058 <vTaskPlaceOnEventListRestricted+0x38>)
    503c:	6f19      	ldr	r1, [r3, #112]	; 0x70
    503e:	4b07      	ldr	r3, [pc, #28]	; (505c <vTaskPlaceOnEventListRestricted+0x3c>)
    5040:	3118      	adds	r1, #24
    5042:	4798      	blx	r3
    5044:	2c00      	cmp	r4, #0
    5046:	4621      	mov	r1, r4
    5048:	bf0c      	ite	eq
    504a:	4628      	moveq	r0, r5
    504c:	f04f 30ff 	movne.w	r0, #4294967295
    5050:	4b03      	ldr	r3, [pc, #12]	; (5060 <vTaskPlaceOnEventListRestricted+0x40>)
    5052:	e8bd 4070 	ldmia.w	sp!, {r4, r5, r6, lr}
    5056:	4718      	bx	r3
    5058:	20003420 	.word	0x20003420
    505c:	00003c51 	.word	0x00003c51
    5060:	00004a85 	.word	0x00004a85

00005064 <xTaskRemoveFromEventList>:
    5064:	68c3      	ldr	r3, [r0, #12]
    5066:	e92d 41f0 	stmdb	sp!, {r4, r5, r6, r7, r8, lr}
    506a:	f8d3 800c 	ldr.w	r8, [r3, #12]
    506e:	f1b8 0f00 	cmp.w	r8, #0
    5072:	d108      	bne.n	5086 <xTaskRemoveFromEventList+0x22>
    5074:	f04f 0380 	mov.w	r3, #128	; 0x80
    5078:	f383 8811 	msr	BASEPRI, r3
    507c:	f3bf 8f6f 	isb	sy
    5080:	f3bf 8f4f 	dsb	sy
    5084:	e7fe      	b.n	5084 <xTaskRemoveFromEventList+0x20>
    5086:	f108 0618 	add.w	r6, r8, #24
    508a:	4c14      	ldr	r4, [pc, #80]	; (50dc <xTaskRemoveFromEventList+0x78>)
    508c:	4f14      	ldr	r7, [pc, #80]	; (50e0 <xTaskRemoveFromEventList+0x7c>)
    508e:	4d15      	ldr	r5, [pc, #84]	; (50e4 <xTaskRemoveFromEventList+0x80>)
    5090:	4630      	mov	r0, r6
    5092:	47b8      	blx	r7
    5094:	f8d4 30d8 	ldr.w	r3, [r4, #216]	; 0xd8
    5098:	b9e3      	cbnz	r3, 50d4 <xTaskRemoveFromEventList+0x70>
    509a:	f108 0604 	add.w	r6, r8, #4
    509e:	4630      	mov	r0, r6
    50a0:	47b8      	blx	r7
    50a2:	f8d8 302c 	ldr.w	r3, [r8, #44]	; 0x2c
    50a6:	f8d4 20d4 	ldr.w	r2, [r4, #212]	; 0xd4
    50aa:	2014      	movs	r0, #20
    50ac:	4293      	cmp	r3, r2
    50ae:	bf88      	it	hi
    50b0:	f8c4 30d4 	strhi.w	r3, [r4, #212]	; 0xd4
    50b4:	4631      	mov	r1, r6
    50b6:	fb00 4003 	mla	r0, r0, r3, r4
    50ba:	47a8      	blx	r5
    50bc:	6f23      	ldr	r3, [r4, #112]	; 0x70
    50be:	f8d8 202c 	ldr.w	r2, [r8, #44]	; 0x2c
    50c2:	6adb      	ldr	r3, [r3, #44]	; 0x2c
    50c4:	429a      	cmp	r2, r3
    50c6:	bf86      	itte	hi
    50c8:	2001      	movhi	r0, #1
    50ca:	f8c4 00e8 	strhi.w	r0, [r4, #232]	; 0xe8
    50ce:	2000      	movls	r0, #0
    50d0:	e8bd 81f0 	ldmia.w	sp!, {r4, r5, r6, r7, r8, pc}
    50d4:	4631      	mov	r1, r6
    50d6:	f104 008c 	add.w	r0, r4, #140	; 0x8c
    50da:	e7ee      	b.n	50ba <xTaskRemoveFromEventList+0x56>
    50dc:	20003420 	.word	0x20003420
    50e0:	00003c97 	.word	0x00003c97
    50e4:	00003c51 	.word	0x00003c51

000050e8 <vTaskInternalSetTimeOutState>:
    50e8:	4b03      	ldr	r3, [pc, #12]	; (50f8 <vTaskInternalSetTimeOutState+0x10>)
    50ea:	f8d3 20e0 	ldr.w	r2, [r3, #224]	; 0xe0
    50ee:	6edb      	ldr	r3, [r3, #108]	; 0x6c
    50f0:	6002      	str	r2, [r0, #0]
    50f2:	6043      	str	r3, [r0, #4]
    50f4:	4770      	bx	lr
    50f6:	bf00      	nop
    50f8:	20003420 	.word	0x20003420

000050fc <xTaskCheckForTimeOut>:
    50fc:	b570      	push	{r4, r5, r6, lr}
    50fe:	460c      	mov	r4, r1
    5100:	4605      	mov	r5, r0
    5102:	b940      	cbnz	r0, 5116 <xTaskCheckForTimeOut+0x1a>
    5104:	f04f 0380 	mov.w	r3, #128	; 0x80
    5108:	f383 8811 	msr	BASEPRI, r3
    510c:	f3bf 8f6f 	isb	sy
    5110:	f3bf 8f4f 	dsb	sy
    5114:	e7fe      	b.n	5114 <xTaskCheckForTimeOut+0x18>
    5116:	b941      	cbnz	r1, 512a <xTaskCheckForTimeOut+0x2e>
    5118:	f04f 0380 	mov.w	r3, #128	; 0x80
    511c:	f383 8811 	msr	BASEPRI, r3
    5120:	f3bf 8f6f 	isb	sy
    5124:	f3bf 8f4f 	dsb	sy
    5128:	e7fe      	b.n	5128 <xTaskCheckForTimeOut+0x2c>
    512a:	4b10      	ldr	r3, [pc, #64]	; (516c <xTaskCheckForTimeOut+0x70>)
    512c:	4798      	blx	r3
    512e:	6823      	ldr	r3, [r4, #0]
    5130:	480f      	ldr	r0, [pc, #60]	; (5170 <xTaskCheckForTimeOut+0x74>)
    5132:	6869      	ldr	r1, [r5, #4]
    5134:	6ec2      	ldr	r2, [r0, #108]	; 0x6c
    5136:	1c5e      	adds	r6, r3, #1
    5138:	d00e      	beq.n	5158 <xTaskCheckForTimeOut+0x5c>
    513a:	f8d0 00e0 	ldr.w	r0, [r0, #224]	; 0xe0
    513e:	682e      	ldr	r6, [r5, #0]
    5140:	4286      	cmp	r6, r0
    5142:	d001      	beq.n	5148 <xTaskCheckForTimeOut+0x4c>
    5144:	428a      	cmp	r2, r1
    5146:	d20e      	bcs.n	5166 <xTaskCheckForTimeOut+0x6a>
    5148:	1a52      	subs	r2, r2, r1
    514a:	429a      	cmp	r2, r3
    514c:	d209      	bcs.n	5162 <xTaskCheckForTimeOut+0x66>
    514e:	1a9b      	subs	r3, r3, r2
    5150:	6023      	str	r3, [r4, #0]
    5152:	4628      	mov	r0, r5
    5154:	4b07      	ldr	r3, [pc, #28]	; (5174 <xTaskCheckForTimeOut+0x78>)
    5156:	4798      	blx	r3
    5158:	2400      	movs	r4, #0
    515a:	4b07      	ldr	r3, [pc, #28]	; (5178 <xTaskCheckForTimeOut+0x7c>)
    515c:	4798      	blx	r3
    515e:	4620      	mov	r0, r4
    5160:	bd70      	pop	{r4, r5, r6, pc}
    5162:	2300      	movs	r3, #0
    5164:	6023      	str	r3, [r4, #0]
    5166:	2401      	movs	r4, #1
    5168:	e7f7      	b.n	515a <xTaskCheckForTimeOut+0x5e>
    516a:	bf00      	nop
    516c:	00003d85 	.word	0x00003d85
    5170:	20003420 	.word	0x20003420
    5174:	000050e9 	.word	0x000050e9
    5178:	00003dc9 	.word	0x00003dc9

0000517c <vTaskMissedYield>:
    517c:	4b02      	ldr	r3, [pc, #8]	; (5188 <vTaskMissedYield+0xc>)
    517e:	2201      	movs	r2, #1
    5180:	f8c3 20e8 	str.w	r2, [r3, #232]	; 0xe8
    5184:	4770      	bx	lr
    5186:	bf00      	nop
    5188:	20003420 	.word	0x20003420

0000518c <xTaskGetSchedulerState>:
    518c:	4b06      	ldr	r3, [pc, #24]	; (51a8 <xTaskGetSchedulerState+0x1c>)
    518e:	f8d3 20cc 	ldr.w	r2, [r3, #204]	; 0xcc
    5192:	b132      	cbz	r2, 51a2 <xTaskGetSchedulerState+0x16>
    5194:	f8d3 30d8 	ldr.w	r3, [r3, #216]	; 0xd8
    5198:	2b00      	cmp	r3, #0
    519a:	bf0c      	ite	eq
    519c:	2002      	moveq	r0, #2
    519e:	2000      	movne	r0, #0
    51a0:	4770      	bx	lr
    51a2:	2001      	movs	r0, #1
    51a4:	4770      	bx	lr
    51a6:	bf00      	nop
    51a8:	20003420 	.word	0x20003420

000051ac <xTaskPriorityInherit>:
    51ac:	b570      	push	{r4, r5, r6, lr}
    51ae:	4604      	mov	r4, r0
    51b0:	2800      	cmp	r0, #0
    51b2:	d031      	beq.n	5218 <xTaskPriorityInherit+0x6c>
    51b4:	4a1b      	ldr	r2, [pc, #108]	; (5224 <xTaskPriorityInherit+0x78>)
    51b6:	6ac3      	ldr	r3, [r0, #44]	; 0x2c
    51b8:	6f11      	ldr	r1, [r2, #112]	; 0x70
    51ba:	6ac9      	ldr	r1, [r1, #44]	; 0x2c
    51bc:	428b      	cmp	r3, r1
    51be:	4615      	mov	r5, r2
    51c0:	d222      	bcs.n	5208 <xTaskPriorityInherit+0x5c>
    51c2:	6982      	ldr	r2, [r0, #24]
    51c4:	2a00      	cmp	r2, #0
    51c6:	bfa1      	itttt	ge
    51c8:	6f2a      	ldrge	r2, [r5, #112]	; 0x70
    51ca:	6ad2      	ldrge	r2, [r2, #44]	; 0x2c
    51cc:	f1c2 0205 	rsbge	r2, r2, #5
    51d0:	6182      	strge	r2, [r0, #24]
    51d2:	2214      	movs	r2, #20
    51d4:	fb02 5303 	mla	r3, r2, r3, r5
    51d8:	6942      	ldr	r2, [r0, #20]
    51da:	429a      	cmp	r2, r3
    51dc:	d11d      	bne.n	521a <xTaskPriorityInherit+0x6e>
    51de:	1d06      	adds	r6, r0, #4
    51e0:	4b11      	ldr	r3, [pc, #68]	; (5228 <xTaskPriorityInherit+0x7c>)
    51e2:	4630      	mov	r0, r6
    51e4:	4798      	blx	r3
    51e6:	6f2b      	ldr	r3, [r5, #112]	; 0x70
    51e8:	f8d5 20d4 	ldr.w	r2, [r5, #212]	; 0xd4
    51ec:	6adb      	ldr	r3, [r3, #44]	; 0x2c
    51ee:	62e3      	str	r3, [r4, #44]	; 0x2c
    51f0:	4293      	cmp	r3, r2
    51f2:	d901      	bls.n	51f8 <xTaskPriorityInherit+0x4c>
    51f4:	f8c5 30d4 	str.w	r3, [r5, #212]	; 0xd4
    51f8:	2014      	movs	r0, #20
    51fa:	fb00 5003 	mla	r0, r0, r3, r5
    51fe:	4631      	mov	r1, r6
    5200:	4b0a      	ldr	r3, [pc, #40]	; (522c <xTaskPriorityInherit+0x80>)
    5202:	4798      	blx	r3
    5204:	2001      	movs	r0, #1
    5206:	bd70      	pop	{r4, r5, r6, pc}
    5208:	6f13      	ldr	r3, [r2, #112]	; 0x70
    520a:	6c40      	ldr	r0, [r0, #68]	; 0x44
    520c:	6adc      	ldr	r4, [r3, #44]	; 0x2c
    520e:	42a0      	cmp	r0, r4
    5210:	bf2c      	ite	cs
    5212:	2000      	movcs	r0, #0
    5214:	2001      	movcc	r0, #1
    5216:	bd70      	pop	{r4, r5, r6, pc}
    5218:	bd70      	pop	{r4, r5, r6, pc}
    521a:	6f2b      	ldr	r3, [r5, #112]	; 0x70
    521c:	6adb      	ldr	r3, [r3, #44]	; 0x2c
    521e:	62c3      	str	r3, [r0, #44]	; 0x2c
    5220:	e7f0      	b.n	5204 <xTaskPriorityInherit+0x58>
    5222:	bf00      	nop
    5224:	20003420 	.word	0x20003420
    5228:	00003c97 	.word	0x00003c97
    522c:	00003c51 	.word	0x00003c51

00005230 <xTaskPriorityDisinherit>:
    5230:	b570      	push	{r4, r5, r6, lr}
    5232:	4604      	mov	r4, r0
    5234:	b908      	cbnz	r0, 523a <xTaskPriorityDisinherit+0xa>
    5236:	2000      	movs	r0, #0
    5238:	bd70      	pop	{r4, r5, r6, pc}
    523a:	4d1b      	ldr	r5, [pc, #108]	; (52a8 <xTaskPriorityDisinherit+0x78>)
    523c:	6f2b      	ldr	r3, [r5, #112]	; 0x70
    523e:	4298      	cmp	r0, r3
    5240:	d008      	beq.n	5254 <xTaskPriorityDisinherit+0x24>
    5242:	f04f 0380 	mov.w	r3, #128	; 0x80
    5246:	f383 8811 	msr	BASEPRI, r3
    524a:	f3bf 8f6f 	isb	sy
    524e:	f3bf 8f4f 	dsb	sy
    5252:	e7fe      	b.n	5252 <xTaskPriorityDisinherit+0x22>
    5254:	6c83      	ldr	r3, [r0, #72]	; 0x48
    5256:	b943      	cbnz	r3, 526a <xTaskPriorityDisinherit+0x3a>
    5258:	f04f 0380 	mov.w	r3, #128	; 0x80
    525c:	f383 8811 	msr	BASEPRI, r3
    5260:	f3bf 8f6f 	isb	sy
    5264:	f3bf 8f4f 	dsb	sy
    5268:	e7fe      	b.n	5268 <xTaskPriorityDisinherit+0x38>
    526a:	6ac1      	ldr	r1, [r0, #44]	; 0x2c
    526c:	6c42      	ldr	r2, [r0, #68]	; 0x44
    526e:	3b01      	subs	r3, #1
    5270:	4291      	cmp	r1, r2
    5272:	6483      	str	r3, [r0, #72]	; 0x48
    5274:	d0df      	beq.n	5236 <xTaskPriorityDisinherit+0x6>
    5276:	2b00      	cmp	r3, #0
    5278:	d1dd      	bne.n	5236 <xTaskPriorityDisinherit+0x6>
    527a:	1d06      	adds	r6, r0, #4
    527c:	4630      	mov	r0, r6
    527e:	4b0b      	ldr	r3, [pc, #44]	; (52ac <xTaskPriorityDisinherit+0x7c>)
    5280:	4798      	blx	r3
    5282:	6c63      	ldr	r3, [r4, #68]	; 0x44
    5284:	62e3      	str	r3, [r4, #44]	; 0x2c
    5286:	f1c3 0205 	rsb	r2, r3, #5
    528a:	61a2      	str	r2, [r4, #24]
    528c:	f8d5 20d4 	ldr.w	r2, [r5, #212]	; 0xd4
    5290:	2014      	movs	r0, #20
    5292:	4293      	cmp	r3, r2
    5294:	fb00 5003 	mla	r0, r0, r3, r5
    5298:	bf88      	it	hi
    529a:	f8c5 30d4 	strhi.w	r3, [r5, #212]	; 0xd4
    529e:	4631      	mov	r1, r6
    52a0:	4b03      	ldr	r3, [pc, #12]	; (52b0 <xTaskPriorityDisinherit+0x80>)
    52a2:	4798      	blx	r3
    52a4:	2001      	movs	r0, #1
    52a6:	bd70      	pop	{r4, r5, r6, pc}
    52a8:	20003420 	.word	0x20003420
    52ac:	00003c97 	.word	0x00003c97
    52b0:	00003c51 	.word	0x00003c51

000052b4 <vTaskPriorityDisinheritAfterTimeout>:
    52b4:	b570      	push	{r4, r5, r6, lr}
    52b6:	4604      	mov	r4, r0
    52b8:	2800      	cmp	r0, #0
    52ba:	d041      	beq.n	5340 <vTaskPriorityDisinheritAfterTimeout+0x8c>
    52bc:	6c82      	ldr	r2, [r0, #72]	; 0x48
    52be:	b942      	cbnz	r2, 52d2 <vTaskPriorityDisinheritAfterTimeout+0x1e>
    52c0:	f04f 0380 	mov.w	r3, #128	; 0x80
    52c4:	f383 8811 	msr	BASEPRI, r3
    52c8:	f3bf 8f6f 	isb	sy
    52cc:	f3bf 8f4f 	dsb	sy
    52d0:	e7fe      	b.n	52d0 <vTaskPriorityDisinheritAfterTimeout+0x1c>
    52d2:	6c43      	ldr	r3, [r0, #68]	; 0x44
    52d4:	4299      	cmp	r1, r3
    52d6:	bf38      	it	cc
    52d8:	4619      	movcc	r1, r3
    52da:	6ac3      	ldr	r3, [r0, #44]	; 0x2c
    52dc:	428b      	cmp	r3, r1
    52de:	d02f      	beq.n	5340 <vTaskPriorityDisinheritAfterTimeout+0x8c>
    52e0:	2a01      	cmp	r2, #1
    52e2:	d12d      	bne.n	5340 <vTaskPriorityDisinheritAfterTimeout+0x8c>
    52e4:	4d17      	ldr	r5, [pc, #92]	; (5344 <vTaskPriorityDisinheritAfterTimeout+0x90>)
    52e6:	6f2a      	ldr	r2, [r5, #112]	; 0x70
    52e8:	4290      	cmp	r0, r2
    52ea:	d108      	bne.n	52fe <vTaskPriorityDisinheritAfterTimeout+0x4a>
    52ec:	f04f 0380 	mov.w	r3, #128	; 0x80
    52f0:	f383 8811 	msr	BASEPRI, r3
    52f4:	f3bf 8f6f 	isb	sy
    52f8:	f3bf 8f4f 	dsb	sy
    52fc:	e7fe      	b.n	52fc <vTaskPriorityDisinheritAfterTimeout+0x48>
    52fe:	6982      	ldr	r2, [r0, #24]
    5300:	62c1      	str	r1, [r0, #44]	; 0x2c
    5302:	2a00      	cmp	r2, #0
    5304:	f04f 0214 	mov.w	r2, #20
    5308:	fb02 5303 	mla	r3, r2, r3, r5
    530c:	6942      	ldr	r2, [r0, #20]
    530e:	bfa4      	itt	ge
    5310:	f1c1 0105 	rsbge	r1, r1, #5
    5314:	6181      	strge	r1, [r0, #24]
    5316:	429a      	cmp	r2, r3
    5318:	d112      	bne.n	5340 <vTaskPriorityDisinheritAfterTimeout+0x8c>
    531a:	1d06      	adds	r6, r0, #4
    531c:	4b0a      	ldr	r3, [pc, #40]	; (5348 <vTaskPriorityDisinheritAfterTimeout+0x94>)
    531e:	4630      	mov	r0, r6
    5320:	4798      	blx	r3
    5322:	6ae3      	ldr	r3, [r4, #44]	; 0x2c
    5324:	f8d5 20d4 	ldr.w	r2, [r5, #212]	; 0xd4
    5328:	4293      	cmp	r3, r2
    532a:	d901      	bls.n	5330 <vTaskPriorityDisinheritAfterTimeout+0x7c>
    532c:	f8c5 30d4 	str.w	r3, [r5, #212]	; 0xd4
    5330:	2014      	movs	r0, #20
    5332:	fb00 5003 	mla	r0, r0, r3, r5
    5336:	4631      	mov	r1, r6
    5338:	4b04      	ldr	r3, [pc, #16]	; (534c <vTaskPriorityDisinheritAfterTimeout+0x98>)
    533a:	e8bd 4070 	ldmia.w	sp!, {r4, r5, r6, lr}
    533e:	4718      	bx	r3
    5340:	bd70      	pop	{r4, r5, r6, pc}
    5342:	bf00      	nop
    5344:	20003420 	.word	0x20003420
    5348:	00003c97 	.word	0x00003c97
    534c:	00003c51 	.word	0x00003c51

00005350 <pvTaskIncrementMutexHeldCount>:
    5350:	4b04      	ldr	r3, [pc, #16]	; (5364 <pvTaskIncrementMutexHeldCount+0x14>)
    5352:	6f1a      	ldr	r2, [r3, #112]	; 0x70
    5354:	b11a      	cbz	r2, 535e <pvTaskIncrementMutexHeldCount+0xe>
    5356:	6f19      	ldr	r1, [r3, #112]	; 0x70
    5358:	6c8a      	ldr	r2, [r1, #72]	; 0x48
    535a:	3201      	adds	r2, #1
    535c:	648a      	str	r2, [r1, #72]	; 0x48
    535e:	6f18      	ldr	r0, [r3, #112]	; 0x70
    5360:	4770      	bx	lr
    5362:	bf00      	nop
    5364:	20003420 	.word	0x20003420

00005368 <xTaskNotifyWait>:
    5368:	e92d 43f8 	stmdb	sp!, {r3, r4, r5, r6, r7, r8, r9, lr}
    536c:	4c20      	ldr	r4, [pc, #128]	; (53f0 <xTaskNotifyWait+0x88>)
    536e:	4f21      	ldr	r7, [pc, #132]	; (53f4 <xTaskNotifyWait+0x8c>)
    5370:	461d      	mov	r5, r3
    5372:	4681      	mov	r9, r0
    5374:	460e      	mov	r6, r1
    5376:	4690      	mov	r8, r2
    5378:	47b8      	blx	r7
    537a:	6f23      	ldr	r3, [r4, #112]	; 0x70
    537c:	f893 3050 	ldrb.w	r3, [r3, #80]	; 0x50
    5380:	2b02      	cmp	r3, #2
    5382:	d014      	beq.n	53ae <xTaskNotifyWait+0x46>
    5384:	6f23      	ldr	r3, [r4, #112]	; 0x70
    5386:	6cda      	ldr	r2, [r3, #76]	; 0x4c
    5388:	ea22 0209 	bic.w	r2, r2, r9
    538c:	64da      	str	r2, [r3, #76]	; 0x4c
    538e:	6f23      	ldr	r3, [r4, #112]	; 0x70
    5390:	2101      	movs	r1, #1
    5392:	f883 1050 	strb.w	r1, [r3, #80]	; 0x50
    5396:	b155      	cbz	r5, 53ae <xTaskNotifyWait+0x46>
    5398:	4628      	mov	r0, r5
    539a:	4b17      	ldr	r3, [pc, #92]	; (53f8 <xTaskNotifyWait+0x90>)
    539c:	4798      	blx	r3
    539e:	4b17      	ldr	r3, [pc, #92]	; (53fc <xTaskNotifyWait+0x94>)
    53a0:	f04f 5280 	mov.w	r2, #268435456	; 0x10000000
    53a4:	601a      	str	r2, [r3, #0]
    53a6:	f3bf 8f4f 	dsb	sy
    53aa:	f3bf 8f6f 	isb	sy
    53ae:	4d14      	ldr	r5, [pc, #80]	; (5400 <xTaskNotifyWait+0x98>)
    53b0:	47a8      	blx	r5
    53b2:	47b8      	blx	r7
    53b4:	462a      	mov	r2, r5
    53b6:	f1b8 0f00 	cmp.w	r8, #0
    53ba:	d003      	beq.n	53c4 <xTaskNotifyWait+0x5c>
    53bc:	6f23      	ldr	r3, [r4, #112]	; 0x70
    53be:	6cdb      	ldr	r3, [r3, #76]	; 0x4c
    53c0:	f8c8 3000 	str.w	r3, [r8]
    53c4:	6f23      	ldr	r3, [r4, #112]	; 0x70
    53c6:	f893 3050 	ldrb.w	r3, [r3, #80]	; 0x50
    53ca:	2b02      	cmp	r3, #2
    53cc:	bf01      	itttt	eq
    53ce:	6f23      	ldreq	r3, [r4, #112]	; 0x70
    53d0:	6cd9      	ldreq	r1, [r3, #76]	; 0x4c
    53d2:	43b1      	biceq	r1, r6
    53d4:	64d9      	streq	r1, [r3, #76]	; 0x4c
    53d6:	6f23      	ldr	r3, [r4, #112]	; 0x70
    53d8:	f04f 0100 	mov.w	r1, #0
    53dc:	bf0c      	ite	eq
    53de:	2501      	moveq	r5, #1
    53e0:	2500      	movne	r5, #0
    53e2:	f883 1050 	strb.w	r1, [r3, #80]	; 0x50
    53e6:	4790      	blx	r2
    53e8:	4628      	mov	r0, r5
    53ea:	e8bd 83f8 	ldmia.w	sp!, {r3, r4, r5, r6, r7, r8, r9, pc}
    53ee:	bf00      	nop
    53f0:	20003420 	.word	0x20003420
    53f4:	00003d85 	.word	0x00003d85
    53f8:	00004a85 	.word	0x00004a85
    53fc:	e000ed04 	.word	0xe000ed04
    5400:	00003dc9 	.word	0x00003dc9

00005404 <xTaskGenericNotifyFromISR>:
    5404:	e92d 43f8 	stmdb	sp!, {r3, r4, r5, r6, r7, r8, r9, lr}
    5408:	9f08      	ldr	r7, [sp, #32]
    540a:	4688      	mov	r8, r1
    540c:	4615      	mov	r5, r2
    540e:	4699      	mov	r9, r3
    5410:	4604      	mov	r4, r0
    5412:	b940      	cbnz	r0, 5426 <xTaskGenericNotifyFromISR+0x22>
    5414:	f04f 0380 	mov.w	r3, #128	; 0x80
    5418:	f383 8811 	msr	BASEPRI, r3
    541c:	f3bf 8f6f 	isb	sy
    5420:	f3bf 8f4f 	dsb	sy
    5424:	e7fe      	b.n	5424 <xTaskGenericNotifyFromISR+0x20>
    5426:	4b33      	ldr	r3, [pc, #204]	; (54f4 <xTaskGenericNotifyFromISR+0xf0>)
    5428:	4798      	blx	r3
    542a:	f3ef 8611 	mrs	r6, BASEPRI
    542e:	f04f 0380 	mov.w	r3, #128	; 0x80
    5432:	f383 8811 	msr	BASEPRI, r3
    5436:	f3bf 8f6f 	isb	sy
    543a:	f3bf 8f4f 	dsb	sy
    543e:	f1b9 0f00 	cmp.w	r9, #0
    5442:	d002      	beq.n	544a <xTaskGenericNotifyFromISR+0x46>
    5444:	6ce3      	ldr	r3, [r4, #76]	; 0x4c
    5446:	f8c9 3000 	str.w	r3, [r9]
    544a:	f894 3050 	ldrb.w	r3, [r4, #80]	; 0x50
    544e:	2202      	movs	r2, #2
    5450:	f884 2050 	strb.w	r2, [r4, #80]	; 0x50
    5454:	1e6a      	subs	r2, r5, #1
    5456:	b2db      	uxtb	r3, r3
    5458:	2a03      	cmp	r2, #3
    545a:	d807      	bhi.n	546c <xTaskGenericNotifyFromISR+0x68>
    545c:	e8df f002 	tbb	[pc, r2]
    5460:	10120d02 	.word	0x10120d02
    5464:	6ce2      	ldr	r2, [r4, #76]	; 0x4c
    5466:	ea42 0208 	orr.w	r2, r2, r8
    546a:	64e2      	str	r2, [r4, #76]	; 0x4c
    546c:	2b01      	cmp	r3, #1
    546e:	d00c      	beq.n	548a <xTaskGenericNotifyFromISR+0x86>
    5470:	2001      	movs	r0, #1
    5472:	f386 8811 	msr	BASEPRI, r6
    5476:	e8bd 83f8 	ldmia.w	sp!, {r3, r4, r5, r6, r7, r8, r9, pc}
    547a:	6ce2      	ldr	r2, [r4, #76]	; 0x4c
    547c:	3201      	adds	r2, #1
    547e:	e7f4      	b.n	546a <xTaskGenericNotifyFromISR+0x66>
    5480:	2b02      	cmp	r3, #2
    5482:	d035      	beq.n	54f0 <xTaskGenericNotifyFromISR+0xec>
    5484:	f8c4 804c 	str.w	r8, [r4, #76]	; 0x4c
    5488:	e7f0      	b.n	546c <xTaskGenericNotifyFromISR+0x68>
    548a:	6aa3      	ldr	r3, [r4, #40]	; 0x28
    548c:	b143      	cbz	r3, 54a0 <xTaskGenericNotifyFromISR+0x9c>
    548e:	f04f 0380 	mov.w	r3, #128	; 0x80
    5492:	f383 8811 	msr	BASEPRI, r3
    5496:	f3bf 8f6f 	isb	sy
    549a:	f3bf 8f4f 	dsb	sy
    549e:	e7fe      	b.n	549e <xTaskGenericNotifyFromISR+0x9a>
    54a0:	4d15      	ldr	r5, [pc, #84]	; (54f8 <xTaskGenericNotifyFromISR+0xf4>)
    54a2:	f8df 805c 	ldr.w	r8, [pc, #92]	; 5500 <xTaskGenericNotifyFromISR+0xfc>
    54a6:	f8d5 30d8 	ldr.w	r3, [r5, #216]	; 0xd8
    54aa:	b9cb      	cbnz	r3, 54e0 <xTaskGenericNotifyFromISR+0xdc>
    54ac:	f104 0904 	add.w	r9, r4, #4
    54b0:	4b12      	ldr	r3, [pc, #72]	; (54fc <xTaskGenericNotifyFromISR+0xf8>)
    54b2:	4648      	mov	r0, r9
    54b4:	4798      	blx	r3
    54b6:	6ae3      	ldr	r3, [r4, #44]	; 0x2c
    54b8:	f8d5 20d4 	ldr.w	r2, [r5, #212]	; 0xd4
    54bc:	2014      	movs	r0, #20
    54be:	4293      	cmp	r3, r2
    54c0:	bf88      	it	hi
    54c2:	f8c5 30d4 	strhi.w	r3, [r5, #212]	; 0xd4
    54c6:	4649      	mov	r1, r9
    54c8:	fb00 5003 	mla	r0, r0, r3, r5
    54cc:	47c0      	blx	r8
    54ce:	6f2b      	ldr	r3, [r5, #112]	; 0x70
    54d0:	6ae2      	ldr	r2, [r4, #44]	; 0x2c
    54d2:	6adb      	ldr	r3, [r3, #44]	; 0x2c
    54d4:	429a      	cmp	r2, r3
    54d6:	d9cb      	bls.n	5470 <xTaskGenericNotifyFromISR+0x6c>
    54d8:	2001      	movs	r0, #1
    54da:	b137      	cbz	r7, 54ea <xTaskGenericNotifyFromISR+0xe6>
    54dc:	6038      	str	r0, [r7, #0]
    54de:	e7c8      	b.n	5472 <xTaskGenericNotifyFromISR+0x6e>
    54e0:	f104 0118 	add.w	r1, r4, #24
    54e4:	f105 008c 	add.w	r0, r5, #140	; 0x8c
    54e8:	e7f0      	b.n	54cc <xTaskGenericNotifyFromISR+0xc8>
    54ea:	f8c5 00e8 	str.w	r0, [r5, #232]	; 0xe8
    54ee:	e7c0      	b.n	5472 <xTaskGenericNotifyFromISR+0x6e>
    54f0:	2000      	movs	r0, #0
    54f2:	e7be      	b.n	5472 <xTaskGenericNotifyFromISR+0x6e>
    54f4:	00003fc1 	.word	0x00003fc1
    54f8:	20003420 	.word	0x20003420
    54fc:	00003c97 	.word	0x00003c97
    5500:	00003c51 	.word	0x00003c51

00005504 <prvCheckForValidListAndQueue>:
    5504:	e92d 41f0 	stmdb	sp!, {r4, r5, r6, r7, r8, lr}
    5508:	4c0c      	ldr	r4, [pc, #48]	; (553c <prvCheckForValidListAndQueue+0x38>)
    550a:	4b0d      	ldr	r3, [pc, #52]	; (5540 <prvCheckForValidListAndQueue+0x3c>)
    550c:	4798      	blx	r3
    550e:	6825      	ldr	r5, [r4, #0]
    5510:	b985      	cbnz	r5, 5534 <prvCheckForValidListAndQueue+0x30>
    5512:	1d27      	adds	r7, r4, #4
    5514:	4638      	mov	r0, r7
    5516:	f8df 8034 	ldr.w	r8, [pc, #52]	; 554c <prvCheckForValidListAndQueue+0x48>
    551a:	f104 0618 	add.w	r6, r4, #24
    551e:	47c0      	blx	r8
    5520:	4630      	mov	r0, r6
    5522:	47c0      	blx	r8
    5524:	462a      	mov	r2, r5
    5526:	210c      	movs	r1, #12
    5528:	2014      	movs	r0, #20
    552a:	4b06      	ldr	r3, [pc, #24]	; (5544 <prvCheckForValidListAndQueue+0x40>)
    552c:	62e7      	str	r7, [r4, #44]	; 0x2c
    552e:	6326      	str	r6, [r4, #48]	; 0x30
    5530:	4798      	blx	r3
    5532:	6020      	str	r0, [r4, #0]
    5534:	4b04      	ldr	r3, [pc, #16]	; (5548 <prvCheckForValidListAndQueue+0x44>)
    5536:	e8bd 41f0 	ldmia.w	sp!, {r4, r5, r6, r7, r8, lr}
    553a:	4718      	bx	r3
    553c:	2000350c 	.word	0x2000350c
    5540:	00003d85 	.word	0x00003d85
    5544:	00004389 	.word	0x00004389
    5548:	00003dc9 	.word	0x00003dc9
    554c:	00003c35 	.word	0x00003c35

00005550 <prvInsertTimerInActiveList>:
    5550:	4291      	cmp	r1, r2
    5552:	b508      	push	{r3, lr}
    5554:	6041      	str	r1, [r0, #4]
    5556:	6100      	str	r0, [r0, #16]
    5558:	d80a      	bhi.n	5570 <prvInsertTimerInActiveList+0x20>
    555a:	1ad2      	subs	r2, r2, r3
    555c:	6983      	ldr	r3, [r0, #24]
    555e:	429a      	cmp	r2, r3
    5560:	d20e      	bcs.n	5580 <prvInsertTimerInActiveList+0x30>
    5562:	4b08      	ldr	r3, [pc, #32]	; (5584 <prvInsertTimerInActiveList+0x34>)
    5564:	1d01      	adds	r1, r0, #4
    5566:	6b18      	ldr	r0, [r3, #48]	; 0x30
    5568:	4b07      	ldr	r3, [pc, #28]	; (5588 <prvInsertTimerInActiveList+0x38>)
    556a:	4798      	blx	r3
    556c:	2000      	movs	r0, #0
    556e:	bd08      	pop	{r3, pc}
    5570:	429a      	cmp	r2, r3
    5572:	d201      	bcs.n	5578 <prvInsertTimerInActiveList+0x28>
    5574:	4299      	cmp	r1, r3
    5576:	d203      	bcs.n	5580 <prvInsertTimerInActiveList+0x30>
    5578:	4b02      	ldr	r3, [pc, #8]	; (5584 <prvInsertTimerInActiveList+0x34>)
    557a:	1d01      	adds	r1, r0, #4
    557c:	6ad8      	ldr	r0, [r3, #44]	; 0x2c
    557e:	e7f3      	b.n	5568 <prvInsertTimerInActiveList+0x18>
    5580:	2001      	movs	r0, #1
    5582:	bd08      	pop	{r3, pc}
    5584:	2000350c 	.word	0x2000350c
    5588:	00003c69 	.word	0x00003c69

0000558c <xTimerCreateTimerTask>:
    558c:	4b0e      	ldr	r3, [pc, #56]	; (55c8 <xTimerCreateTimerTask+0x3c>)
    558e:	b513      	push	{r0, r1, r4, lr}
    5590:	4798      	blx	r3
    5592:	4b0e      	ldr	r3, [pc, #56]	; (55cc <xTimerCreateTimerTask+0x40>)
    5594:	681a      	ldr	r2, [r3, #0]
    5596:	b942      	cbnz	r2, 55aa <xTimerCreateTimerTask+0x1e>
    5598:	f04f 0380 	mov.w	r3, #128	; 0x80
    559c:	f383 8811 	msr	BASEPRI, r3
    55a0:	f3bf 8f6f 	isb	sy
    55a4:	f3bf 8f4f 	dsb	sy
    55a8:	e7fe      	b.n	55a8 <xTimerCreateTimerTask+0x1c>
    55aa:	3334      	adds	r3, #52	; 0x34
    55ac:	9301      	str	r3, [sp, #4]
    55ae:	2303      	movs	r3, #3
    55b0:	9300      	str	r3, [sp, #0]
    55b2:	2280      	movs	r2, #128	; 0x80
    55b4:	2300      	movs	r3, #0
    55b6:	4906      	ldr	r1, [pc, #24]	; (55d0 <xTimerCreateTimerTask+0x44>)
    55b8:	4806      	ldr	r0, [pc, #24]	; (55d4 <xTimerCreateTimerTask+0x48>)
    55ba:	4c07      	ldr	r4, [pc, #28]	; (55d8 <xTimerCreateTimerTask+0x4c>)
    55bc:	47a0      	blx	r4
    55be:	2800      	cmp	r0, #0
    55c0:	d0ea      	beq.n	5598 <xTimerCreateTimerTask+0xc>
    55c2:	b002      	add	sp, #8
    55c4:	bd10      	pop	{r4, pc}
    55c6:	bf00      	nop
    55c8:	00005505 	.word	0x00005505
    55cc:	2000350c 	.word	0x2000350c
    55d0:	00008309 	.word	0x00008309
    55d4:	00005715 	.word	0x00005715
    55d8:	00004af1 	.word	0x00004af1

000055dc <xTimerCreate>:
    55dc:	e92d 41f0 	stmdb	sp!, {r4, r5, r6, r7, r8, lr}
    55e0:	4680      	mov	r8, r0
    55e2:	461e      	mov	r6, r3
    55e4:	202c      	movs	r0, #44	; 0x2c
    55e6:	4b0f      	ldr	r3, [pc, #60]	; (5624 <xTimerCreate+0x48>)
    55e8:	460d      	mov	r5, r1
    55ea:	4617      	mov	r7, r2
    55ec:	4798      	blx	r3
    55ee:	4604      	mov	r4, r0
    55f0:	b1a8      	cbz	r0, 561e <xTimerCreate+0x42>
    55f2:	b945      	cbnz	r5, 5606 <xTimerCreate+0x2a>
    55f4:	f04f 0380 	mov.w	r3, #128	; 0x80
    55f8:	f383 8811 	msr	BASEPRI, r3
    55fc:	f3bf 8f6f 	isb	sy
    5600:	f3bf 8f4f 	dsb	sy
    5604:	e7fe      	b.n	5604 <xTimerCreate+0x28>
    5606:	4b08      	ldr	r3, [pc, #32]	; (5628 <xTimerCreate+0x4c>)
    5608:	4798      	blx	r3
    560a:	9b06      	ldr	r3, [sp, #24]
    560c:	6263      	str	r3, [r4, #36]	; 0x24
    560e:	f8c4 8000 	str.w	r8, [r4]
    5612:	61a5      	str	r5, [r4, #24]
    5614:	61e7      	str	r7, [r4, #28]
    5616:	6226      	str	r6, [r4, #32]
    5618:	1d20      	adds	r0, r4, #4
    561a:	4b04      	ldr	r3, [pc, #16]	; (562c <xTimerCreate+0x50>)
    561c:	4798      	blx	r3
    561e:	4620      	mov	r0, r4
    5620:	e8bd 81f0 	ldmia.w	sp!, {r4, r5, r6, r7, r8, pc}
    5624:	00004015 	.word	0x00004015
    5628:	00005505 	.word	0x00005505
    562c:	00003c4b 	.word	0x00003c4b

00005630 <xTimerGenericCommand>:
    5630:	b530      	push	{r4, r5, lr}
    5632:	4615      	mov	r5, r2
    5634:	b085      	sub	sp, #20
    5636:	461a      	mov	r2, r3
    5638:	4603      	mov	r3, r0
    563a:	b940      	cbnz	r0, 564e <xTimerGenericCommand+0x1e>
    563c:	f04f 0380 	mov.w	r3, #128	; 0x80
    5640:	f383 8811 	msr	BASEPRI, r3
    5644:	f3bf 8f6f 	isb	sy
    5648:	f3bf 8f4f 	dsb	sy
    564c:	e7fe      	b.n	564c <xTimerGenericCommand+0x1c>
    564e:	4c0d      	ldr	r4, [pc, #52]	; (5684 <xTimerGenericCommand+0x54>)
    5650:	6820      	ldr	r0, [r4, #0]
    5652:	b180      	cbz	r0, 5676 <xTimerGenericCommand+0x46>
    5654:	2905      	cmp	r1, #5
    5656:	9101      	str	r1, [sp, #4]
    5658:	9502      	str	r5, [sp, #8]
    565a:	9303      	str	r3, [sp, #12]
    565c:	dc0d      	bgt.n	567a <xTimerGenericCommand+0x4a>
    565e:	4b0a      	ldr	r3, [pc, #40]	; (5688 <xTimerGenericCommand+0x58>)
    5660:	4d0a      	ldr	r5, [pc, #40]	; (568c <xTimerGenericCommand+0x5c>)
    5662:	4798      	blx	r3
    5664:	2300      	movs	r3, #0
    5666:	2802      	cmp	r0, #2
    5668:	bf08      	it	eq
    566a:	9a08      	ldreq	r2, [sp, #32]
    566c:	6820      	ldr	r0, [r4, #0]
    566e:	bf18      	it	ne
    5670:	461a      	movne	r2, r3
    5672:	a901      	add	r1, sp, #4
    5674:	47a8      	blx	r5
    5676:	b005      	add	sp, #20
    5678:	bd30      	pop	{r4, r5, pc}
    567a:	2300      	movs	r3, #0
    567c:	a901      	add	r1, sp, #4
    567e:	4c04      	ldr	r4, [pc, #16]	; (5690 <xTimerGenericCommand+0x60>)
    5680:	47a0      	blx	r4
    5682:	e7f8      	b.n	5676 <xTimerGenericCommand+0x46>
    5684:	2000350c 	.word	0x2000350c
    5688:	0000518d 	.word	0x0000518d
    568c:	000043dd 	.word	0x000043dd
    5690:	000045b5 	.word	0x000045b5

00005694 <prvSwitchTimerLists>:
    5694:	e92d 41f3 	stmdb	sp!, {r0, r1, r4, r5, r6, r7, r8, lr}
    5698:	4d1a      	ldr	r5, [pc, #104]	; (5704 <prvSwitchTimerLists+0x70>)
    569a:	4f1b      	ldr	r7, [pc, #108]	; (5708 <prvSwitchTimerLists+0x74>)
    569c:	6aeb      	ldr	r3, [r5, #44]	; 0x2c
    569e:	681a      	ldr	r2, [r3, #0]
    56a0:	b92a      	cbnz	r2, 56ae <prvSwitchTimerLists+0x1a>
    56a2:	6b2a      	ldr	r2, [r5, #48]	; 0x30
    56a4:	62ea      	str	r2, [r5, #44]	; 0x2c
    56a6:	632b      	str	r3, [r5, #48]	; 0x30
    56a8:	b002      	add	sp, #8
    56aa:	e8bd 81f0 	ldmia.w	sp!, {r4, r5, r6, r7, r8, pc}
    56ae:	68db      	ldr	r3, [r3, #12]
    56b0:	68dc      	ldr	r4, [r3, #12]
    56b2:	681e      	ldr	r6, [r3, #0]
    56b4:	f104 0804 	add.w	r8, r4, #4
    56b8:	4640      	mov	r0, r8
    56ba:	47b8      	blx	r7
    56bc:	6a63      	ldr	r3, [r4, #36]	; 0x24
    56be:	4620      	mov	r0, r4
    56c0:	4798      	blx	r3
    56c2:	69e3      	ldr	r3, [r4, #28]
    56c4:	2b01      	cmp	r3, #1
    56c6:	d1e9      	bne.n	569c <prvSwitchTimerLists+0x8>
    56c8:	69a3      	ldr	r3, [r4, #24]
    56ca:	4433      	add	r3, r6
    56cc:	429e      	cmp	r6, r3
    56ce:	d206      	bcs.n	56de <prvSwitchTimerLists+0x4a>
    56d0:	6063      	str	r3, [r4, #4]
    56d2:	6124      	str	r4, [r4, #16]
    56d4:	4641      	mov	r1, r8
    56d6:	6ae8      	ldr	r0, [r5, #44]	; 0x2c
    56d8:	4b0c      	ldr	r3, [pc, #48]	; (570c <prvSwitchTimerLists+0x78>)
    56da:	4798      	blx	r3
    56dc:	e7de      	b.n	569c <prvSwitchTimerLists+0x8>
    56de:	2300      	movs	r3, #0
    56e0:	4620      	mov	r0, r4
    56e2:	9300      	str	r3, [sp, #0]
    56e4:	4632      	mov	r2, r6
    56e6:	4619      	mov	r1, r3
    56e8:	4c09      	ldr	r4, [pc, #36]	; (5710 <prvSwitchTimerLists+0x7c>)
    56ea:	47a0      	blx	r4
    56ec:	2800      	cmp	r0, #0
    56ee:	d1d5      	bne.n	569c <prvSwitchTimerLists+0x8>
    56f0:	f04f 0380 	mov.w	r3, #128	; 0x80
    56f4:	f383 8811 	msr	BASEPRI, r3
    56f8:	f3bf 8f6f 	isb	sy
    56fc:	f3bf 8f4f 	dsb	sy
    5700:	e7fe      	b.n	5700 <prvSwitchTimerLists+0x6c>
    5702:	bf00      	nop
    5704:	2000350c 	.word	0x2000350c
    5708:	00003c97 	.word	0x00003c97
    570c:	00003c69 	.word	0x00003c69
    5710:	00005631 	.word	0x00005631

00005714 <prvTimerTask>:
    5714:	e92d 4ff0 	stmdb	sp!, {r4, r5, r6, r7, r8, r9, sl, fp, lr}
    5718:	b087      	sub	sp, #28
    571a:	4d64      	ldr	r5, [pc, #400]	; (58ac <prvTimerTask+0x198>)
    571c:	6aea      	ldr	r2, [r5, #44]	; 0x2c
    571e:	f8d2 9000 	ldr.w	r9, [r2]
    5722:	46a8      	mov	r8, r5
    5724:	f1b9 0f00 	cmp.w	r9, #0
    5728:	d03b      	beq.n	57a2 <prvTimerTask+0x8e>
    572a:	68d2      	ldr	r2, [r2, #12]
    572c:	6816      	ldr	r6, [r2, #0]
    572e:	4a60      	ldr	r2, [pc, #384]	; (58b0 <prvTimerTask+0x19c>)
    5730:	4f60      	ldr	r7, [pc, #384]	; (58b4 <prvTimerTask+0x1a0>)
    5732:	4790      	blx	r2
    5734:	47b8      	blx	r7
    5736:	6baa      	ldr	r2, [r5, #56]	; 0x38
    5738:	4290      	cmp	r0, r2
    573a:	4682      	mov	sl, r0
    573c:	d233      	bcs.n	57a6 <prvTimerTask+0x92>
    573e:	4a5e      	ldr	r2, [pc, #376]	; (58b8 <prvTimerTask+0x1a4>)
    5740:	4790      	blx	r2
    5742:	2401      	movs	r4, #1
    5744:	f8c5 a038 	str.w	sl, [r5, #56]	; 0x38
    5748:	f8df b18c 	ldr.w	fp, [pc, #396]	; 58d8 <prvTimerTask+0x1c4>
    574c:	2c00      	cmp	r4, #0
    574e:	d173      	bne.n	5838 <prvTimerTask+0x124>
    5750:	f1b9 0f00 	cmp.w	r9, #0
    5754:	d058      	beq.n	5808 <prvTimerTask+0xf4>
    5756:	4556      	cmp	r6, sl
    5758:	d86c      	bhi.n	5834 <prvTimerTask+0x120>
    575a:	47d8      	blx	fp
    575c:	6aeb      	ldr	r3, [r5, #44]	; 0x2c
    575e:	68db      	ldr	r3, [r3, #12]
    5760:	68dd      	ldr	r5, [r3, #12]
    5762:	4b56      	ldr	r3, [pc, #344]	; (58bc <prvTimerTask+0x1a8>)
    5764:	1d28      	adds	r0, r5, #4
    5766:	4798      	blx	r3
    5768:	69eb      	ldr	r3, [r5, #28]
    576a:	2b01      	cmp	r3, #1
    576c:	d11d      	bne.n	57aa <prvTimerTask+0x96>
    576e:	69a9      	ldr	r1, [r5, #24]
    5770:	4652      	mov	r2, sl
    5772:	4633      	mov	r3, r6
    5774:	4431      	add	r1, r6
    5776:	4628      	mov	r0, r5
    5778:	f8df a158 	ldr.w	sl, [pc, #344]	; 58d4 <prvTimerTask+0x1c0>
    577c:	47d0      	blx	sl
    577e:	b1a0      	cbz	r0, 57aa <prvTimerTask+0x96>
    5780:	9400      	str	r4, [sp, #0]
    5782:	4623      	mov	r3, r4
    5784:	4621      	mov	r1, r4
    5786:	4632      	mov	r2, r6
    5788:	4628      	mov	r0, r5
    578a:	4c4d      	ldr	r4, [pc, #308]	; (58c0 <prvTimerTask+0x1ac>)
    578c:	47a0      	blx	r4
    578e:	b960      	cbnz	r0, 57aa <prvTimerTask+0x96>
    5790:	f04f 0380 	mov.w	r3, #128	; 0x80
    5794:	f383 8811 	msr	BASEPRI, r3
    5798:	f3bf 8f6f 	isb	sy
    579c:	f3bf 8f4f 	dsb	sy
    57a0:	e7fe      	b.n	57a0 <prvTimerTask+0x8c>
    57a2:	464e      	mov	r6, r9
    57a4:	e7c3      	b.n	572e <prvTimerTask+0x1a>
    57a6:	2400      	movs	r4, #0
    57a8:	e7cc      	b.n	5744 <prvTimerTask+0x30>
    57aa:	6a6b      	ldr	r3, [r5, #36]	; 0x24
    57ac:	4628      	mov	r0, r5
    57ae:	4798      	blx	r3
    57b0:	4d44      	ldr	r5, [pc, #272]	; (58c4 <prvTimerTask+0x1b0>)
    57b2:	4e41      	ldr	r6, [pc, #260]	; (58b8 <prvTimerTask+0x1a4>)
    57b4:	f8d8 0000 	ldr.w	r0, [r8]
    57b8:	2200      	movs	r2, #0
    57ba:	a903      	add	r1, sp, #12
    57bc:	47a8      	blx	r5
    57be:	2800      	cmp	r0, #0
    57c0:	d0ab      	beq.n	571a <prvTimerTask+0x6>
    57c2:	9b03      	ldr	r3, [sp, #12]
    57c4:	2b00      	cmp	r3, #0
    57c6:	dbf5      	blt.n	57b4 <prvTimerTask+0xa0>
    57c8:	9c05      	ldr	r4, [sp, #20]
    57ca:	6963      	ldr	r3, [r4, #20]
    57cc:	b113      	cbz	r3, 57d4 <prvTimerTask+0xc0>
    57ce:	1d20      	adds	r0, r4, #4
    57d0:	4b3a      	ldr	r3, [pc, #232]	; (58bc <prvTimerTask+0x1a8>)
    57d2:	4798      	blx	r3
    57d4:	47b8      	blx	r7
    57d6:	f8d8 3038 	ldr.w	r3, [r8, #56]	; 0x38
    57da:	4298      	cmp	r0, r3
    57dc:	4683      	mov	fp, r0
    57de:	d200      	bcs.n	57e2 <prvTimerTask+0xce>
    57e0:	47b0      	blx	r6
    57e2:	9a03      	ldr	r2, [sp, #12]
    57e4:	f8c8 b038 	str.w	fp, [r8, #56]	; 0x38
    57e8:	2a09      	cmp	r2, #9
    57ea:	d8e3      	bhi.n	57b4 <prvTimerTask+0xa0>
    57ec:	2301      	movs	r3, #1
    57ee:	4093      	lsls	r3, r2
    57f0:	f413 7a04 	ands.w	sl, r3, #528	; 0x210
    57f4:	d146      	bne.n	5884 <prvTimerTask+0x170>
    57f6:	f013 0fc7 	tst.w	r3, #199	; 0xc7
    57fa:	d11f      	bne.n	583c <prvTimerTask+0x128>
    57fc:	069b      	lsls	r3, r3, #26
    57fe:	d5d9      	bpl.n	57b4 <prvTimerTask+0xa0>
    5800:	4620      	mov	r0, r4
    5802:	4b31      	ldr	r3, [pc, #196]	; (58c8 <prvTimerTask+0x1b4>)
    5804:	4798      	blx	r3
    5806:	e7d4      	b.n	57b2 <prvTimerTask+0x9e>
    5808:	6b2b      	ldr	r3, [r5, #48]	; 0x30
    580a:	681a      	ldr	r2, [r3, #0]
    580c:	fab2 f282 	clz	r2, r2
    5810:	0952      	lsrs	r2, r2, #5
    5812:	eba6 010a 	sub.w	r1, r6, sl
    5816:	6828      	ldr	r0, [r5, #0]
    5818:	4b2c      	ldr	r3, [pc, #176]	; (58cc <prvTimerTask+0x1b8>)
    581a:	4798      	blx	r3
    581c:	47d8      	blx	fp
    581e:	2800      	cmp	r0, #0
    5820:	d1c6      	bne.n	57b0 <prvTimerTask+0x9c>
    5822:	4b2b      	ldr	r3, [pc, #172]	; (58d0 <prvTimerTask+0x1bc>)
    5824:	f04f 5280 	mov.w	r2, #268435456	; 0x10000000
    5828:	601a      	str	r2, [r3, #0]
    582a:	f3bf 8f4f 	dsb	sy
    582e:	f3bf 8f6f 	isb	sy
    5832:	e7bd      	b.n	57b0 <prvTimerTask+0x9c>
    5834:	4622      	mov	r2, r4
    5836:	e7ec      	b.n	5812 <prvTimerTask+0xfe>
    5838:	47d8      	blx	fp
    583a:	e7b9      	b.n	57b0 <prvTimerTask+0x9c>
    583c:	69a1      	ldr	r1, [r4, #24]
    583e:	9b04      	ldr	r3, [sp, #16]
    5840:	4e24      	ldr	r6, [pc, #144]	; (58d4 <prvTimerTask+0x1c0>)
    5842:	465a      	mov	r2, fp
    5844:	4419      	add	r1, r3
    5846:	4620      	mov	r0, r4
    5848:	47b0      	blx	r6
    584a:	2800      	cmp	r0, #0
    584c:	d0b1      	beq.n	57b2 <prvTimerTask+0x9e>
    584e:	6a63      	ldr	r3, [r4, #36]	; 0x24
    5850:	4620      	mov	r0, r4
    5852:	4798      	blx	r3
    5854:	69e3      	ldr	r3, [r4, #28]
    5856:	2b01      	cmp	r3, #1
    5858:	d1ab      	bne.n	57b2 <prvTimerTask+0x9e>
    585a:	69a2      	ldr	r2, [r4, #24]
    585c:	9904      	ldr	r1, [sp, #16]
    585e:	f8cd a000 	str.w	sl, [sp]
    5862:	440a      	add	r2, r1
    5864:	4620      	mov	r0, r4
    5866:	4653      	mov	r3, sl
    5868:	4651      	mov	r1, sl
    586a:	4c15      	ldr	r4, [pc, #84]	; (58c0 <prvTimerTask+0x1ac>)
    586c:	47a0      	blx	r4
    586e:	2800      	cmp	r0, #0
    5870:	d19f      	bne.n	57b2 <prvTimerTask+0x9e>
    5872:	f04f 0380 	mov.w	r3, #128	; 0x80
    5876:	f383 8811 	msr	BASEPRI, r3
    587a:	f3bf 8f6f 	isb	sy
    587e:	f3bf 8f4f 	dsb	sy
    5882:	e7fe      	b.n	5882 <prvTimerTask+0x16e>
    5884:	9904      	ldr	r1, [sp, #16]
    5886:	61a1      	str	r1, [r4, #24]
    5888:	b941      	cbnz	r1, 589c <prvTimerTask+0x188>
    588a:	f04f 0380 	mov.w	r3, #128	; 0x80
    588e:	f383 8811 	msr	BASEPRI, r3
    5892:	f3bf 8f6f 	isb	sy
    5896:	f3bf 8f4f 	dsb	sy
    589a:	e7fe      	b.n	589a <prvTimerTask+0x186>
    589c:	465b      	mov	r3, fp
    589e:	465a      	mov	r2, fp
    58a0:	4459      	add	r1, fp
    58a2:	4620      	mov	r0, r4
    58a4:	4c0b      	ldr	r4, [pc, #44]	; (58d4 <prvTimerTask+0x1c0>)
    58a6:	47a0      	blx	r4
    58a8:	e783      	b.n	57b2 <prvTimerTask+0x9e>
    58aa:	bf00      	nop
    58ac:	2000350c 	.word	0x2000350c
    58b0:	00004d11 	.word	0x00004d11
    58b4:	00004d25 	.word	0x00004d25
    58b8:	00005695 	.word	0x00005695
    58bc:	00003c97 	.word	0x00003c97
    58c0:	00005631 	.word	0x00005631
    58c4:	00004699 	.word	0x00004699
    58c8:	000040e1 	.word	0x000040e1
    58cc:	000049e9 	.word	0x000049e9
    58d0:	e000ed04 	.word	0xe000ed04
    58d4:	00005551 	.word	0x00005551
    58d8:	00004e1d 	.word	0x00004e1d

000058dc <atoi>:
    58dc:	220a      	movs	r2, #10
    58de:	2100      	movs	r1, #0
    58e0:	f000 ba1c 	b.w	5d1c <strtol>

000058e4 <__libc_init_array>:
    58e4:	b570      	push	{r4, r5, r6, lr}
    58e6:	4e0d      	ldr	r6, [pc, #52]	; (591c <__libc_init_array+0x38>)
    58e8:	4c0d      	ldr	r4, [pc, #52]	; (5920 <__libc_init_array+0x3c>)
    58ea:	1ba4      	subs	r4, r4, r6
    58ec:	10a4      	asrs	r4, r4, #2
    58ee:	2500      	movs	r5, #0
    58f0:	42a5      	cmp	r5, r4
    58f2:	d109      	bne.n	5908 <__libc_init_array+0x24>
    58f4:	4e0b      	ldr	r6, [pc, #44]	; (5924 <__libc_init_array+0x40>)
    58f6:	4c0c      	ldr	r4, [pc, #48]	; (5928 <__libc_init_array+0x44>)
    58f8:	f002 fdda 	bl	84b0 <_init>
    58fc:	1ba4      	subs	r4, r4, r6
    58fe:	10a4      	asrs	r4, r4, #2
    5900:	2500      	movs	r5, #0
    5902:	42a5      	cmp	r5, r4
    5904:	d105      	bne.n	5912 <__libc_init_array+0x2e>
    5906:	bd70      	pop	{r4, r5, r6, pc}
    5908:	f856 3025 	ldr.w	r3, [r6, r5, lsl #2]
    590c:	4798      	blx	r3
    590e:	3501      	adds	r5, #1
    5910:	e7ee      	b.n	58f0 <__libc_init_array+0xc>
    5912:	f856 3025 	ldr.w	r3, [r6, r5, lsl #2]
    5916:	4798      	blx	r3
    5918:	3501      	adds	r5, #1
    591a:	e7f2      	b.n	5902 <__libc_init_array+0x1e>
    591c:	000084bc 	.word	0x000084bc
    5920:	000084bc 	.word	0x000084bc
    5924:	000084bc 	.word	0x000084bc
    5928:	000084c0 	.word	0x000084c0

0000592c <__locale_ctype_ptr_l>:
    592c:	f8d0 00ec 	ldr.w	r0, [r0, #236]	; 0xec
    5930:	4770      	bx	lr

00005932 <__ascii_mbtowc>:
    5932:	b082      	sub	sp, #8
    5934:	b901      	cbnz	r1, 5938 <__ascii_mbtowc+0x6>
    5936:	a901      	add	r1, sp, #4
    5938:	b142      	cbz	r2, 594c <__ascii_mbtowc+0x1a>
    593a:	b14b      	cbz	r3, 5950 <__ascii_mbtowc+0x1e>
    593c:	7813      	ldrb	r3, [r2, #0]
    593e:	600b      	str	r3, [r1, #0]
    5940:	7812      	ldrb	r2, [r2, #0]
    5942:	1c10      	adds	r0, r2, #0
    5944:	bf18      	it	ne
    5946:	2001      	movne	r0, #1
    5948:	b002      	add	sp, #8
    594a:	4770      	bx	lr
    594c:	4610      	mov	r0, r2
    594e:	e7fb      	b.n	5948 <__ascii_mbtowc+0x16>
    5950:	f06f 0001 	mvn.w	r0, #1
    5954:	e7f8      	b.n	5948 <__ascii_mbtowc+0x16>

00005956 <memcmp>:
    5956:	b510      	push	{r4, lr}
    5958:	3901      	subs	r1, #1
    595a:	4402      	add	r2, r0
    595c:	4290      	cmp	r0, r2
    595e:	d101      	bne.n	5964 <memcmp+0xe>
    5960:	2000      	movs	r0, #0
    5962:	bd10      	pop	{r4, pc}
    5964:	f810 3b01 	ldrb.w	r3, [r0], #1
    5968:	f811 4f01 	ldrb.w	r4, [r1, #1]!
    596c:	42a3      	cmp	r3, r4
    596e:	d0f5      	beq.n	595c <memcmp+0x6>
    5970:	1b18      	subs	r0, r3, r4
    5972:	bd10      	pop	{r4, pc}

00005974 <memcpy>:
    5974:	b510      	push	{r4, lr}
    5976:	1e43      	subs	r3, r0, #1
    5978:	440a      	add	r2, r1
    597a:	4291      	cmp	r1, r2
    597c:	d100      	bne.n	5980 <memcpy+0xc>
    597e:	bd10      	pop	{r4, pc}
    5980:	f811 4b01 	ldrb.w	r4, [r1], #1
    5984:	f803 4f01 	strb.w	r4, [r3, #1]!
    5988:	e7f7      	b.n	597a <memcpy+0x6>

0000598a <memmove>:
    598a:	4288      	cmp	r0, r1
    598c:	b510      	push	{r4, lr}
    598e:	eb01 0302 	add.w	r3, r1, r2
    5992:	d803      	bhi.n	599c <memmove+0x12>
    5994:	1e42      	subs	r2, r0, #1
    5996:	4299      	cmp	r1, r3
    5998:	d10c      	bne.n	59b4 <memmove+0x2a>
    599a:	bd10      	pop	{r4, pc}
    599c:	4298      	cmp	r0, r3
    599e:	d2f9      	bcs.n	5994 <memmove+0xa>
    59a0:	1881      	adds	r1, r0, r2
    59a2:	1ad2      	subs	r2, r2, r3
    59a4:	42d3      	cmn	r3, r2
    59a6:	d100      	bne.n	59aa <memmove+0x20>
    59a8:	bd10      	pop	{r4, pc}
    59aa:	f813 4d01 	ldrb.w	r4, [r3, #-1]!
    59ae:	f801 4d01 	strb.w	r4, [r1, #-1]!
    59b2:	e7f7      	b.n	59a4 <memmove+0x1a>
    59b4:	f811 4b01 	ldrb.w	r4, [r1], #1
    59b8:	f802 4f01 	strb.w	r4, [r2, #1]!
    59bc:	e7eb      	b.n	5996 <memmove+0xc>

000059be <memset>:
    59be:	4402      	add	r2, r0
    59c0:	4603      	mov	r3, r0
    59c2:	4293      	cmp	r3, r2
    59c4:	d100      	bne.n	59c8 <memset+0xa>
    59c6:	4770      	bx	lr
    59c8:	f803 1b01 	strb.w	r1, [r3], #1
    59cc:	e7f9      	b.n	59c2 <memset+0x4>
	...

000059d0 <_free_r>:
    59d0:	b538      	push	{r3, r4, r5, lr}
    59d2:	4605      	mov	r5, r0
    59d4:	2900      	cmp	r1, #0
    59d6:	d045      	beq.n	5a64 <_free_r+0x94>
    59d8:	f851 3c04 	ldr.w	r3, [r1, #-4]
    59dc:	1f0c      	subs	r4, r1, #4
    59de:	2b00      	cmp	r3, #0
    59e0:	bfb8      	it	lt
    59e2:	18e4      	addlt	r4, r4, r3
    59e4:	f000 f9bd 	bl	5d62 <__malloc_lock>
    59e8:	4a1f      	ldr	r2, [pc, #124]	; (5a68 <_free_r+0x98>)
    59ea:	6813      	ldr	r3, [r2, #0]
    59ec:	4610      	mov	r0, r2
    59ee:	b933      	cbnz	r3, 59fe <_free_r+0x2e>
    59f0:	6063      	str	r3, [r4, #4]
    59f2:	6014      	str	r4, [r2, #0]
    59f4:	4628      	mov	r0, r5
    59f6:	e8bd 4038 	ldmia.w	sp!, {r3, r4, r5, lr}
    59fa:	f000 b9b3 	b.w	5d64 <__malloc_unlock>
    59fe:	42a3      	cmp	r3, r4
    5a00:	d90c      	bls.n	5a1c <_free_r+0x4c>
    5a02:	6821      	ldr	r1, [r4, #0]
    5a04:	1862      	adds	r2, r4, r1
    5a06:	4293      	cmp	r3, r2
    5a08:	bf04      	itt	eq
    5a0a:	681a      	ldreq	r2, [r3, #0]
    5a0c:	685b      	ldreq	r3, [r3, #4]
    5a0e:	6063      	str	r3, [r4, #4]
    5a10:	bf04      	itt	eq
    5a12:	1852      	addeq	r2, r2, r1
    5a14:	6022      	streq	r2, [r4, #0]
    5a16:	6004      	str	r4, [r0, #0]
    5a18:	e7ec      	b.n	59f4 <_free_r+0x24>
    5a1a:	4613      	mov	r3, r2
    5a1c:	685a      	ldr	r2, [r3, #4]
    5a1e:	b10a      	cbz	r2, 5a24 <_free_r+0x54>
    5a20:	42a2      	cmp	r2, r4
    5a22:	d9fa      	bls.n	5a1a <_free_r+0x4a>
    5a24:	6819      	ldr	r1, [r3, #0]
    5a26:	1858      	adds	r0, r3, r1
    5a28:	42a0      	cmp	r0, r4
    5a2a:	d10b      	bne.n	5a44 <_free_r+0x74>
    5a2c:	6820      	ldr	r0, [r4, #0]
    5a2e:	4401      	add	r1, r0
    5a30:	1858      	adds	r0, r3, r1
    5a32:	4282      	cmp	r2, r0
    5a34:	6019      	str	r1, [r3, #0]
    5a36:	d1dd      	bne.n	59f4 <_free_r+0x24>
    5a38:	6810      	ldr	r0, [r2, #0]
    5a3a:	6852      	ldr	r2, [r2, #4]
    5a3c:	605a      	str	r2, [r3, #4]
    5a3e:	4401      	add	r1, r0
    5a40:	6019      	str	r1, [r3, #0]
    5a42:	e7d7      	b.n	59f4 <_free_r+0x24>
    5a44:	d902      	bls.n	5a4c <_free_r+0x7c>
    5a46:	230c      	movs	r3, #12
    5a48:	602b      	str	r3, [r5, #0]
    5a4a:	e7d3      	b.n	59f4 <_free_r+0x24>
    5a4c:	6820      	ldr	r0, [r4, #0]
    5a4e:	1821      	adds	r1, r4, r0
    5a50:	428a      	cmp	r2, r1
    5a52:	bf04      	itt	eq
    5a54:	6811      	ldreq	r1, [r2, #0]
    5a56:	6852      	ldreq	r2, [r2, #4]
    5a58:	6062      	str	r2, [r4, #4]
    5a5a:	bf04      	itt	eq
    5a5c:	1809      	addeq	r1, r1, r0
    5a5e:	6021      	streq	r1, [r4, #0]
    5a60:	605c      	str	r4, [r3, #4]
    5a62:	e7c7      	b.n	59f4 <_free_r+0x24>
    5a64:	bd38      	pop	{r3, r4, r5, pc}
    5a66:	bf00      	nop
    5a68:	20003548 	.word	0x20003548

00005a6c <_malloc_r>:
    5a6c:	b570      	push	{r4, r5, r6, lr}
    5a6e:	1ccd      	adds	r5, r1, #3
    5a70:	f025 0503 	bic.w	r5, r5, #3
    5a74:	3508      	adds	r5, #8
    5a76:	2d0c      	cmp	r5, #12
    5a78:	bf38      	it	cc
    5a7a:	250c      	movcc	r5, #12
    5a7c:	2d00      	cmp	r5, #0
    5a7e:	4606      	mov	r6, r0
    5a80:	db01      	blt.n	5a86 <_malloc_r+0x1a>
    5a82:	42a9      	cmp	r1, r5
    5a84:	d903      	bls.n	5a8e <_malloc_r+0x22>
    5a86:	230c      	movs	r3, #12
    5a88:	6033      	str	r3, [r6, #0]
    5a8a:	2000      	movs	r0, #0
    5a8c:	bd70      	pop	{r4, r5, r6, pc}
    5a8e:	f000 f968 	bl	5d62 <__malloc_lock>
    5a92:	4a23      	ldr	r2, [pc, #140]	; (5b20 <_malloc_r+0xb4>)
    5a94:	6814      	ldr	r4, [r2, #0]
    5a96:	4621      	mov	r1, r4
    5a98:	b991      	cbnz	r1, 5ac0 <_malloc_r+0x54>
    5a9a:	4c22      	ldr	r4, [pc, #136]	; (5b24 <_malloc_r+0xb8>)
    5a9c:	6823      	ldr	r3, [r4, #0]
    5a9e:	b91b      	cbnz	r3, 5aa8 <_malloc_r+0x3c>
    5aa0:	4630      	mov	r0, r6
    5aa2:	f000 f841 	bl	5b28 <_sbrk_r>
    5aa6:	6020      	str	r0, [r4, #0]
    5aa8:	4629      	mov	r1, r5
    5aaa:	4630      	mov	r0, r6
    5aac:	f000 f83c 	bl	5b28 <_sbrk_r>
    5ab0:	1c43      	adds	r3, r0, #1
    5ab2:	d126      	bne.n	5b02 <_malloc_r+0x96>
    5ab4:	230c      	movs	r3, #12
    5ab6:	6033      	str	r3, [r6, #0]
    5ab8:	4630      	mov	r0, r6
    5aba:	f000 f953 	bl	5d64 <__malloc_unlock>
    5abe:	e7e4      	b.n	5a8a <_malloc_r+0x1e>
    5ac0:	680b      	ldr	r3, [r1, #0]
    5ac2:	1b5b      	subs	r3, r3, r5
    5ac4:	d41a      	bmi.n	5afc <_malloc_r+0x90>
    5ac6:	2b0b      	cmp	r3, #11
    5ac8:	d90f      	bls.n	5aea <_malloc_r+0x7e>
    5aca:	600b      	str	r3, [r1, #0]
    5acc:	50cd      	str	r5, [r1, r3]
    5ace:	18cc      	adds	r4, r1, r3
    5ad0:	4630      	mov	r0, r6
    5ad2:	f000 f947 	bl	5d64 <__malloc_unlock>
    5ad6:	f104 000b 	add.w	r0, r4, #11
    5ada:	1d23      	adds	r3, r4, #4
    5adc:	f020 0007 	bic.w	r0, r0, #7
    5ae0:	1ac3      	subs	r3, r0, r3
    5ae2:	d01b      	beq.n	5b1c <_malloc_r+0xb0>
    5ae4:	425a      	negs	r2, r3
    5ae6:	50e2      	str	r2, [r4, r3]
    5ae8:	bd70      	pop	{r4, r5, r6, pc}
    5aea:	428c      	cmp	r4, r1
    5aec:	bf0d      	iteet	eq
    5aee:	6863      	ldreq	r3, [r4, #4]
    5af0:	684b      	ldrne	r3, [r1, #4]
    5af2:	6063      	strne	r3, [r4, #4]
    5af4:	6013      	streq	r3, [r2, #0]
    5af6:	bf18      	it	ne
    5af8:	460c      	movne	r4, r1
    5afa:	e7e9      	b.n	5ad0 <_malloc_r+0x64>
    5afc:	460c      	mov	r4, r1
    5afe:	6849      	ldr	r1, [r1, #4]
    5b00:	e7ca      	b.n	5a98 <_malloc_r+0x2c>
    5b02:	1cc4      	adds	r4, r0, #3
    5b04:	f024 0403 	bic.w	r4, r4, #3
    5b08:	42a0      	cmp	r0, r4
    5b0a:	d005      	beq.n	5b18 <_malloc_r+0xac>
    5b0c:	1a21      	subs	r1, r4, r0
    5b0e:	4630      	mov	r0, r6
    5b10:	f000 f80a 	bl	5b28 <_sbrk_r>
    5b14:	3001      	adds	r0, #1
    5b16:	d0cd      	beq.n	5ab4 <_malloc_r+0x48>
    5b18:	6025      	str	r5, [r4, #0]
    5b1a:	e7d9      	b.n	5ad0 <_malloc_r+0x64>
    5b1c:	bd70      	pop	{r4, r5, r6, pc}
    5b1e:	bf00      	nop
    5b20:	20003548 	.word	0x20003548
    5b24:	2000354c 	.word	0x2000354c

00005b28 <_sbrk_r>:
    5b28:	b538      	push	{r3, r4, r5, lr}
    5b2a:	4c06      	ldr	r4, [pc, #24]	; (5b44 <_sbrk_r+0x1c>)
    5b2c:	2300      	movs	r3, #0
    5b2e:	4605      	mov	r5, r0
    5b30:	4608      	mov	r0, r1
    5b32:	6023      	str	r3, [r4, #0]
    5b34:	f7fd fa1a 	bl	2f6c <_sbrk>
    5b38:	1c43      	adds	r3, r0, #1
    5b3a:	d102      	bne.n	5b42 <_sbrk_r+0x1a>
    5b3c:	6823      	ldr	r3, [r4, #0]
    5b3e:	b103      	cbz	r3, 5b42 <_sbrk_r+0x1a>
    5b40:	602b      	str	r3, [r5, #0]
    5b42:	bd38      	pop	{r3, r4, r5, pc}
    5b44:	20003f84 	.word	0x20003f84

00005b48 <siprintf>:
    5b48:	b40e      	push	{r1, r2, r3}
    5b4a:	b500      	push	{lr}
    5b4c:	b09c      	sub	sp, #112	; 0x70
    5b4e:	f44f 7102 	mov.w	r1, #520	; 0x208
    5b52:	ab1d      	add	r3, sp, #116	; 0x74
    5b54:	f8ad 1014 	strh.w	r1, [sp, #20]
    5b58:	9002      	str	r0, [sp, #8]
    5b5a:	9006      	str	r0, [sp, #24]
    5b5c:	f06f 4100 	mvn.w	r1, #2147483648	; 0x80000000
    5b60:	480a      	ldr	r0, [pc, #40]	; (5b8c <siprintf+0x44>)
    5b62:	9104      	str	r1, [sp, #16]
    5b64:	9107      	str	r1, [sp, #28]
    5b66:	f64f 71ff 	movw	r1, #65535	; 0xffff
    5b6a:	f853 2b04 	ldr.w	r2, [r3], #4
    5b6e:	f8ad 1016 	strh.w	r1, [sp, #22]
    5b72:	6800      	ldr	r0, [r0, #0]
    5b74:	9301      	str	r3, [sp, #4]
    5b76:	a902      	add	r1, sp, #8
    5b78:	f000 f950 	bl	5e1c <_svfiprintf_r>
    5b7c:	9b02      	ldr	r3, [sp, #8]
    5b7e:	2200      	movs	r2, #0
    5b80:	701a      	strb	r2, [r3, #0]
    5b82:	b01c      	add	sp, #112	; 0x70
    5b84:	f85d eb04 	ldr.w	lr, [sp], #4
    5b88:	b003      	add	sp, #12
    5b8a:	4770      	bx	lr
    5b8c:	20000098 	.word	0x20000098

00005b90 <strcat>:
    5b90:	b510      	push	{r4, lr}
    5b92:	4602      	mov	r2, r0
    5b94:	4613      	mov	r3, r2
    5b96:	3201      	adds	r2, #1
    5b98:	781c      	ldrb	r4, [r3, #0]
    5b9a:	2c00      	cmp	r4, #0
    5b9c:	d1fa      	bne.n	5b94 <strcat+0x4>
    5b9e:	3b01      	subs	r3, #1
    5ba0:	f811 2b01 	ldrb.w	r2, [r1], #1
    5ba4:	f803 2f01 	strb.w	r2, [r3, #1]!
    5ba8:	2a00      	cmp	r2, #0
    5baa:	d1f9      	bne.n	5ba0 <strcat+0x10>
    5bac:	bd10      	pop	{r4, pc}

00005bae <strcpy>:
    5bae:	4603      	mov	r3, r0
    5bb0:	f811 2b01 	ldrb.w	r2, [r1], #1
    5bb4:	f803 2b01 	strb.w	r2, [r3], #1
    5bb8:	2a00      	cmp	r2, #0
    5bba:	d1f9      	bne.n	5bb0 <strcpy+0x2>
    5bbc:	4770      	bx	lr

00005bbe <strlen>:
    5bbe:	4603      	mov	r3, r0
    5bc0:	f813 2b01 	ldrb.w	r2, [r3], #1
    5bc4:	2a00      	cmp	r2, #0
    5bc6:	d1fb      	bne.n	5bc0 <strlen+0x2>
    5bc8:	1a18      	subs	r0, r3, r0
    5bca:	3801      	subs	r0, #1
    5bcc:	4770      	bx	lr

00005bce <strncmp>:
    5bce:	b510      	push	{r4, lr}
    5bd0:	b16a      	cbz	r2, 5bee <strncmp+0x20>
    5bd2:	3901      	subs	r1, #1
    5bd4:	1884      	adds	r4, r0, r2
    5bd6:	f810 3b01 	ldrb.w	r3, [r0], #1
    5bda:	f811 2f01 	ldrb.w	r2, [r1, #1]!
    5bde:	4293      	cmp	r3, r2
    5be0:	d103      	bne.n	5bea <strncmp+0x1c>
    5be2:	42a0      	cmp	r0, r4
    5be4:	d001      	beq.n	5bea <strncmp+0x1c>
    5be6:	2b00      	cmp	r3, #0
    5be8:	d1f5      	bne.n	5bd6 <strncmp+0x8>
    5bea:	1a98      	subs	r0, r3, r2
    5bec:	bd10      	pop	{r4, pc}
    5bee:	4610      	mov	r0, r2
    5bf0:	bd10      	pop	{r4, pc}

00005bf2 <strncpy>:
    5bf2:	b570      	push	{r4, r5, r6, lr}
    5bf4:	4604      	mov	r4, r0
    5bf6:	b902      	cbnz	r2, 5bfa <strncpy+0x8>
    5bf8:	bd70      	pop	{r4, r5, r6, pc}
    5bfa:	4623      	mov	r3, r4
    5bfc:	f811 5b01 	ldrb.w	r5, [r1], #1
    5c00:	f803 5b01 	strb.w	r5, [r3], #1
    5c04:	1e56      	subs	r6, r2, #1
    5c06:	b91d      	cbnz	r5, 5c10 <strncpy+0x1e>
    5c08:	4414      	add	r4, r2
    5c0a:	42a3      	cmp	r3, r4
    5c0c:	d103      	bne.n	5c16 <strncpy+0x24>
    5c0e:	bd70      	pop	{r4, r5, r6, pc}
    5c10:	461c      	mov	r4, r3
    5c12:	4632      	mov	r2, r6
    5c14:	e7ef      	b.n	5bf6 <strncpy+0x4>
    5c16:	f803 5b01 	strb.w	r5, [r3], #1
    5c1a:	e7f6      	b.n	5c0a <strncpy+0x18>

00005c1c <_strtol_l.isra.0>:
    5c1c:	e92d 4ff8 	stmdb	sp!, {r3, r4, r5, r6, r7, r8, r9, sl, fp, lr}
    5c20:	4680      	mov	r8, r0
    5c22:	4689      	mov	r9, r1
    5c24:	4692      	mov	sl, r2
    5c26:	461f      	mov	r7, r3
    5c28:	468b      	mov	fp, r1
    5c2a:	465d      	mov	r5, fp
    5c2c:	980a      	ldr	r0, [sp, #40]	; 0x28
    5c2e:	f815 4b01 	ldrb.w	r4, [r5], #1
    5c32:	f7ff fe7b 	bl	592c <__locale_ctype_ptr_l>
    5c36:	4420      	add	r0, r4
    5c38:	7846      	ldrb	r6, [r0, #1]
    5c3a:	f016 0608 	ands.w	r6, r6, #8
    5c3e:	d10b      	bne.n	5c58 <_strtol_l.isra.0+0x3c>
    5c40:	2c2d      	cmp	r4, #45	; 0x2d
    5c42:	d10b      	bne.n	5c5c <_strtol_l.isra.0+0x40>
    5c44:	782c      	ldrb	r4, [r5, #0]
    5c46:	2601      	movs	r6, #1
    5c48:	f10b 0502 	add.w	r5, fp, #2
    5c4c:	b167      	cbz	r7, 5c68 <_strtol_l.isra.0+0x4c>
    5c4e:	2f10      	cmp	r7, #16
    5c50:	d114      	bne.n	5c7c <_strtol_l.isra.0+0x60>
    5c52:	2c30      	cmp	r4, #48	; 0x30
    5c54:	d00a      	beq.n	5c6c <_strtol_l.isra.0+0x50>
    5c56:	e011      	b.n	5c7c <_strtol_l.isra.0+0x60>
    5c58:	46ab      	mov	fp, r5
    5c5a:	e7e6      	b.n	5c2a <_strtol_l.isra.0+0xe>
    5c5c:	2c2b      	cmp	r4, #43	; 0x2b
    5c5e:	bf04      	itt	eq
    5c60:	782c      	ldrbeq	r4, [r5, #0]
    5c62:	f10b 0502 	addeq.w	r5, fp, #2
    5c66:	e7f1      	b.n	5c4c <_strtol_l.isra.0+0x30>
    5c68:	2c30      	cmp	r4, #48	; 0x30
    5c6a:	d127      	bne.n	5cbc <_strtol_l.isra.0+0xa0>
    5c6c:	782b      	ldrb	r3, [r5, #0]
    5c6e:	f003 03df 	and.w	r3, r3, #223	; 0xdf
    5c72:	2b58      	cmp	r3, #88	; 0x58
    5c74:	d14b      	bne.n	5d0e <_strtol_l.isra.0+0xf2>
    5c76:	786c      	ldrb	r4, [r5, #1]
    5c78:	2710      	movs	r7, #16
    5c7a:	3502      	adds	r5, #2
    5c7c:	2e00      	cmp	r6, #0
    5c7e:	bf0c      	ite	eq
    5c80:	f06f 4100 	mvneq.w	r1, #2147483648	; 0x80000000
    5c84:	f04f 4100 	movne.w	r1, #2147483648	; 0x80000000
    5c88:	2200      	movs	r2, #0
    5c8a:	fbb1 fef7 	udiv	lr, r1, r7
    5c8e:	4610      	mov	r0, r2
    5c90:	fb07 1c1e 	mls	ip, r7, lr, r1
    5c94:	f1a4 0330 	sub.w	r3, r4, #48	; 0x30
    5c98:	2b09      	cmp	r3, #9
    5c9a:	d811      	bhi.n	5cc0 <_strtol_l.isra.0+0xa4>
    5c9c:	461c      	mov	r4, r3
    5c9e:	42a7      	cmp	r7, r4
    5ca0:	dd1d      	ble.n	5cde <_strtol_l.isra.0+0xc2>
    5ca2:	1c53      	adds	r3, r2, #1
    5ca4:	d007      	beq.n	5cb6 <_strtol_l.isra.0+0x9a>
    5ca6:	4586      	cmp	lr, r0
    5ca8:	d316      	bcc.n	5cd8 <_strtol_l.isra.0+0xbc>
    5caa:	d101      	bne.n	5cb0 <_strtol_l.isra.0+0x94>
    5cac:	45a4      	cmp	ip, r4
    5cae:	db13      	blt.n	5cd8 <_strtol_l.isra.0+0xbc>
    5cb0:	fb00 4007 	mla	r0, r0, r7, r4
    5cb4:	2201      	movs	r2, #1
    5cb6:	f815 4b01 	ldrb.w	r4, [r5], #1
    5cba:	e7eb      	b.n	5c94 <_strtol_l.isra.0+0x78>
    5cbc:	270a      	movs	r7, #10
    5cbe:	e7dd      	b.n	5c7c <_strtol_l.isra.0+0x60>
    5cc0:	f1a4 0341 	sub.w	r3, r4, #65	; 0x41
    5cc4:	2b19      	cmp	r3, #25
    5cc6:	d801      	bhi.n	5ccc <_strtol_l.isra.0+0xb0>
    5cc8:	3c37      	subs	r4, #55	; 0x37
    5cca:	e7e8      	b.n	5c9e <_strtol_l.isra.0+0x82>
    5ccc:	f1a4 0361 	sub.w	r3, r4, #97	; 0x61
    5cd0:	2b19      	cmp	r3, #25
    5cd2:	d804      	bhi.n	5cde <_strtol_l.isra.0+0xc2>
    5cd4:	3c57      	subs	r4, #87	; 0x57
    5cd6:	e7e2      	b.n	5c9e <_strtol_l.isra.0+0x82>
    5cd8:	f04f 32ff 	mov.w	r2, #4294967295
    5cdc:	e7eb      	b.n	5cb6 <_strtol_l.isra.0+0x9a>
    5cde:	1c53      	adds	r3, r2, #1
    5ce0:	d108      	bne.n	5cf4 <_strtol_l.isra.0+0xd8>
    5ce2:	2322      	movs	r3, #34	; 0x22
    5ce4:	f8c8 3000 	str.w	r3, [r8]
    5ce8:	4608      	mov	r0, r1
    5cea:	f1ba 0f00 	cmp.w	sl, #0
    5cee:	d107      	bne.n	5d00 <_strtol_l.isra.0+0xe4>
    5cf0:	e8bd 8ff8 	ldmia.w	sp!, {r3, r4, r5, r6, r7, r8, r9, sl, fp, pc}
    5cf4:	b106      	cbz	r6, 5cf8 <_strtol_l.isra.0+0xdc>
    5cf6:	4240      	negs	r0, r0
    5cf8:	f1ba 0f00 	cmp.w	sl, #0
    5cfc:	d00c      	beq.n	5d18 <_strtol_l.isra.0+0xfc>
    5cfe:	b122      	cbz	r2, 5d0a <_strtol_l.isra.0+0xee>
    5d00:	3d01      	subs	r5, #1
    5d02:	f8ca 5000 	str.w	r5, [sl]
    5d06:	e8bd 8ff8 	ldmia.w	sp!, {r3, r4, r5, r6, r7, r8, r9, sl, fp, pc}
    5d0a:	464d      	mov	r5, r9
    5d0c:	e7f9      	b.n	5d02 <_strtol_l.isra.0+0xe6>
    5d0e:	2430      	movs	r4, #48	; 0x30
    5d10:	2f00      	cmp	r7, #0
    5d12:	d1b3      	bne.n	5c7c <_strtol_l.isra.0+0x60>
    5d14:	2708      	movs	r7, #8
    5d16:	e7b1      	b.n	5c7c <_strtol_l.isra.0+0x60>
    5d18:	e8bd 8ff8 	ldmia.w	sp!, {r3, r4, r5, r6, r7, r8, r9, sl, fp, pc}

00005d1c <strtol>:
    5d1c:	4b08      	ldr	r3, [pc, #32]	; (5d40 <strtol+0x24>)
    5d1e:	b537      	push	{r0, r1, r2, r4, r5, lr}
    5d20:	681c      	ldr	r4, [r3, #0]
    5d22:	4d08      	ldr	r5, [pc, #32]	; (5d44 <strtol+0x28>)
    5d24:	6a23      	ldr	r3, [r4, #32]
    5d26:	2b00      	cmp	r3, #0
    5d28:	bf08      	it	eq
    5d2a:	462b      	moveq	r3, r5
    5d2c:	9300      	str	r3, [sp, #0]
    5d2e:	4613      	mov	r3, r2
    5d30:	460a      	mov	r2, r1
    5d32:	4601      	mov	r1, r0
    5d34:	4620      	mov	r0, r4
    5d36:	f7ff ff71 	bl	5c1c <_strtol_l.isra.0>
    5d3a:	b003      	add	sp, #12
    5d3c:	bd30      	pop	{r4, r5, pc}
    5d3e:	bf00      	nop
    5d40:	20000098 	.word	0x20000098
    5d44:	200000fc 	.word	0x200000fc

00005d48 <__ascii_wctomb>:
    5d48:	b149      	cbz	r1, 5d5e <__ascii_wctomb+0x16>
    5d4a:	2aff      	cmp	r2, #255	; 0xff
    5d4c:	bf85      	ittet	hi
    5d4e:	238a      	movhi	r3, #138	; 0x8a
    5d50:	6003      	strhi	r3, [r0, #0]
    5d52:	700a      	strbls	r2, [r1, #0]
    5d54:	f04f 30ff 	movhi.w	r0, #4294967295
    5d58:	bf98      	it	ls
    5d5a:	2001      	movls	r0, #1
    5d5c:	4770      	bx	lr
    5d5e:	4608      	mov	r0, r1
    5d60:	4770      	bx	lr

00005d62 <__malloc_lock>:
    5d62:	4770      	bx	lr

00005d64 <__malloc_unlock>:
    5d64:	4770      	bx	lr

00005d66 <__ssputs_r>:
    5d66:	e92d 47f0 	stmdb	sp!, {r4, r5, r6, r7, r8, r9, sl, lr}
    5d6a:	688e      	ldr	r6, [r1, #8]
    5d6c:	429e      	cmp	r6, r3
    5d6e:	4682      	mov	sl, r0
    5d70:	460c      	mov	r4, r1
    5d72:	4691      	mov	r9, r2
    5d74:	4698      	mov	r8, r3
    5d76:	d835      	bhi.n	5de4 <__ssputs_r+0x7e>
    5d78:	898a      	ldrh	r2, [r1, #12]
    5d7a:	f412 6f90 	tst.w	r2, #1152	; 0x480
    5d7e:	d031      	beq.n	5de4 <__ssputs_r+0x7e>
    5d80:	6825      	ldr	r5, [r4, #0]
    5d82:	6909      	ldr	r1, [r1, #16]
    5d84:	1a6f      	subs	r7, r5, r1
    5d86:	6965      	ldr	r5, [r4, #20]
    5d88:	2302      	movs	r3, #2
    5d8a:	eb05 0545 	add.w	r5, r5, r5, lsl #1
    5d8e:	fb95 f5f3 	sdiv	r5, r5, r3
    5d92:	f108 0301 	add.w	r3, r8, #1
    5d96:	443b      	add	r3, r7
    5d98:	429d      	cmp	r5, r3
    5d9a:	bf38      	it	cc
    5d9c:	461d      	movcc	r5, r3
    5d9e:	0553      	lsls	r3, r2, #21
    5da0:	d531      	bpl.n	5e06 <__ssputs_r+0xa0>
    5da2:	4629      	mov	r1, r5
    5da4:	f7ff fe62 	bl	5a6c <_malloc_r>
    5da8:	4606      	mov	r6, r0
    5daa:	b950      	cbnz	r0, 5dc2 <__ssputs_r+0x5c>
    5dac:	230c      	movs	r3, #12
    5dae:	f8ca 3000 	str.w	r3, [sl]
    5db2:	89a3      	ldrh	r3, [r4, #12]
    5db4:	f043 0340 	orr.w	r3, r3, #64	; 0x40
    5db8:	81a3      	strh	r3, [r4, #12]
    5dba:	f04f 30ff 	mov.w	r0, #4294967295
    5dbe:	e8bd 87f0 	ldmia.w	sp!, {r4, r5, r6, r7, r8, r9, sl, pc}
    5dc2:	463a      	mov	r2, r7
    5dc4:	6921      	ldr	r1, [r4, #16]
    5dc6:	f7ff fdd5 	bl	5974 <memcpy>
    5dca:	89a3      	ldrh	r3, [r4, #12]
    5dcc:	f423 6390 	bic.w	r3, r3, #1152	; 0x480
    5dd0:	f043 0380 	orr.w	r3, r3, #128	; 0x80
    5dd4:	81a3      	strh	r3, [r4, #12]
    5dd6:	6126      	str	r6, [r4, #16]
    5dd8:	6165      	str	r5, [r4, #20]
    5dda:	443e      	add	r6, r7
    5ddc:	1bed      	subs	r5, r5, r7
    5dde:	6026      	str	r6, [r4, #0]
    5de0:	60a5      	str	r5, [r4, #8]
    5de2:	4646      	mov	r6, r8
    5de4:	4546      	cmp	r6, r8
    5de6:	bf28      	it	cs
    5de8:	4646      	movcs	r6, r8
    5dea:	4632      	mov	r2, r6
    5dec:	4649      	mov	r1, r9
    5dee:	6820      	ldr	r0, [r4, #0]
    5df0:	f7ff fdcb 	bl	598a <memmove>
    5df4:	68a3      	ldr	r3, [r4, #8]
    5df6:	1b9b      	subs	r3, r3, r6
    5df8:	60a3      	str	r3, [r4, #8]
    5dfa:	6823      	ldr	r3, [r4, #0]
    5dfc:	441e      	add	r6, r3
    5dfe:	6026      	str	r6, [r4, #0]
    5e00:	2000      	movs	r0, #0
    5e02:	e8bd 87f0 	ldmia.w	sp!, {r4, r5, r6, r7, r8, r9, sl, pc}
    5e06:	462a      	mov	r2, r5
    5e08:	f000 fae2 	bl	63d0 <_realloc_r>
    5e0c:	4606      	mov	r6, r0
    5e0e:	2800      	cmp	r0, #0
    5e10:	d1e1      	bne.n	5dd6 <__ssputs_r+0x70>
    5e12:	6921      	ldr	r1, [r4, #16]
    5e14:	4650      	mov	r0, sl
    5e16:	f7ff fddb 	bl	59d0 <_free_r>
    5e1a:	e7c7      	b.n	5dac <__ssputs_r+0x46>

00005e1c <_svfiprintf_r>:
    5e1c:	e92d 4ff0 	stmdb	sp!, {r4, r5, r6, r7, r8, r9, sl, fp, lr}
    5e20:	b09d      	sub	sp, #116	; 0x74
    5e22:	4680      	mov	r8, r0
    5e24:	9303      	str	r3, [sp, #12]
    5e26:	898b      	ldrh	r3, [r1, #12]
    5e28:	061c      	lsls	r4, r3, #24
    5e2a:	460d      	mov	r5, r1
    5e2c:	4616      	mov	r6, r2
    5e2e:	d50f      	bpl.n	5e50 <_svfiprintf_r+0x34>
    5e30:	690b      	ldr	r3, [r1, #16]
    5e32:	b96b      	cbnz	r3, 5e50 <_svfiprintf_r+0x34>
    5e34:	2140      	movs	r1, #64	; 0x40
    5e36:	f7ff fe19 	bl	5a6c <_malloc_r>
    5e3a:	6028      	str	r0, [r5, #0]
    5e3c:	6128      	str	r0, [r5, #16]
    5e3e:	b928      	cbnz	r0, 5e4c <_svfiprintf_r+0x30>
    5e40:	230c      	movs	r3, #12
    5e42:	f8c8 3000 	str.w	r3, [r8]
    5e46:	f04f 30ff 	mov.w	r0, #4294967295
    5e4a:	e0c5      	b.n	5fd8 <_svfiprintf_r+0x1bc>
    5e4c:	2340      	movs	r3, #64	; 0x40
    5e4e:	616b      	str	r3, [r5, #20]
    5e50:	2300      	movs	r3, #0
    5e52:	9309      	str	r3, [sp, #36]	; 0x24
    5e54:	2320      	movs	r3, #32
    5e56:	f88d 3029 	strb.w	r3, [sp, #41]	; 0x29
    5e5a:	2330      	movs	r3, #48	; 0x30
    5e5c:	f88d 302a 	strb.w	r3, [sp, #42]	; 0x2a
    5e60:	f04f 0b01 	mov.w	fp, #1
    5e64:	4637      	mov	r7, r6
    5e66:	463c      	mov	r4, r7
    5e68:	f814 3b01 	ldrb.w	r3, [r4], #1
    5e6c:	2b00      	cmp	r3, #0
    5e6e:	d13c      	bne.n	5eea <_svfiprintf_r+0xce>
    5e70:	ebb7 0a06 	subs.w	sl, r7, r6
    5e74:	d00b      	beq.n	5e8e <_svfiprintf_r+0x72>
    5e76:	4653      	mov	r3, sl
    5e78:	4632      	mov	r2, r6
    5e7a:	4629      	mov	r1, r5
    5e7c:	4640      	mov	r0, r8
    5e7e:	f7ff ff72 	bl	5d66 <__ssputs_r>
    5e82:	3001      	adds	r0, #1
    5e84:	f000 80a3 	beq.w	5fce <_svfiprintf_r+0x1b2>
    5e88:	9b09      	ldr	r3, [sp, #36]	; 0x24
    5e8a:	4453      	add	r3, sl
    5e8c:	9309      	str	r3, [sp, #36]	; 0x24
    5e8e:	783b      	ldrb	r3, [r7, #0]
    5e90:	2b00      	cmp	r3, #0
    5e92:	f000 809c 	beq.w	5fce <_svfiprintf_r+0x1b2>
    5e96:	2300      	movs	r3, #0
    5e98:	f04f 32ff 	mov.w	r2, #4294967295
    5e9c:	9304      	str	r3, [sp, #16]
    5e9e:	9307      	str	r3, [sp, #28]
    5ea0:	9205      	str	r2, [sp, #20]
    5ea2:	9306      	str	r3, [sp, #24]
    5ea4:	f88d 3053 	strb.w	r3, [sp, #83]	; 0x53
    5ea8:	931a      	str	r3, [sp, #104]	; 0x68
    5eaa:	2205      	movs	r2, #5
    5eac:	7821      	ldrb	r1, [r4, #0]
    5eae:	4850      	ldr	r0, [pc, #320]	; (5ff0 <_svfiprintf_r+0x1d4>)
    5eb0:	f000 fa3e 	bl	6330 <memchr>
    5eb4:	1c67      	adds	r7, r4, #1
    5eb6:	9b04      	ldr	r3, [sp, #16]
    5eb8:	b9d8      	cbnz	r0, 5ef2 <_svfiprintf_r+0xd6>
    5eba:	06d9      	lsls	r1, r3, #27
    5ebc:	bf44      	itt	mi
    5ebe:	2220      	movmi	r2, #32
    5ec0:	f88d 2053 	strbmi.w	r2, [sp, #83]	; 0x53
    5ec4:	071a      	lsls	r2, r3, #28
    5ec6:	bf44      	itt	mi
    5ec8:	222b      	movmi	r2, #43	; 0x2b
    5eca:	f88d 2053 	strbmi.w	r2, [sp, #83]	; 0x53
    5ece:	7822      	ldrb	r2, [r4, #0]
    5ed0:	2a2a      	cmp	r2, #42	; 0x2a
    5ed2:	d016      	beq.n	5f02 <_svfiprintf_r+0xe6>
    5ed4:	9a07      	ldr	r2, [sp, #28]
    5ed6:	2100      	movs	r1, #0
    5ed8:	200a      	movs	r0, #10
    5eda:	4627      	mov	r7, r4
    5edc:	3401      	adds	r4, #1
    5ede:	783b      	ldrb	r3, [r7, #0]
    5ee0:	3b30      	subs	r3, #48	; 0x30
    5ee2:	2b09      	cmp	r3, #9
    5ee4:	d951      	bls.n	5f8a <_svfiprintf_r+0x16e>
    5ee6:	b1c9      	cbz	r1, 5f1c <_svfiprintf_r+0x100>
    5ee8:	e011      	b.n	5f0e <_svfiprintf_r+0xf2>
    5eea:	2b25      	cmp	r3, #37	; 0x25
    5eec:	d0c0      	beq.n	5e70 <_svfiprintf_r+0x54>
    5eee:	4627      	mov	r7, r4
    5ef0:	e7b9      	b.n	5e66 <_svfiprintf_r+0x4a>
    5ef2:	4a3f      	ldr	r2, [pc, #252]	; (5ff0 <_svfiprintf_r+0x1d4>)
    5ef4:	1a80      	subs	r0, r0, r2
    5ef6:	fa0b f000 	lsl.w	r0, fp, r0
    5efa:	4318      	orrs	r0, r3
    5efc:	9004      	str	r0, [sp, #16]
    5efe:	463c      	mov	r4, r7
    5f00:	e7d3      	b.n	5eaa <_svfiprintf_r+0x8e>
    5f02:	9a03      	ldr	r2, [sp, #12]
    5f04:	1d11      	adds	r1, r2, #4
    5f06:	6812      	ldr	r2, [r2, #0]
    5f08:	9103      	str	r1, [sp, #12]
    5f0a:	2a00      	cmp	r2, #0
    5f0c:	db01      	blt.n	5f12 <_svfiprintf_r+0xf6>
    5f0e:	9207      	str	r2, [sp, #28]
    5f10:	e004      	b.n	5f1c <_svfiprintf_r+0x100>
    5f12:	4252      	negs	r2, r2
    5f14:	f043 0302 	orr.w	r3, r3, #2
    5f18:	9207      	str	r2, [sp, #28]
    5f1a:	9304      	str	r3, [sp, #16]
    5f1c:	783b      	ldrb	r3, [r7, #0]
    5f1e:	2b2e      	cmp	r3, #46	; 0x2e
    5f20:	d10e      	bne.n	5f40 <_svfiprintf_r+0x124>
    5f22:	787b      	ldrb	r3, [r7, #1]
    5f24:	2b2a      	cmp	r3, #42	; 0x2a
    5f26:	f107 0101 	add.w	r1, r7, #1
    5f2a:	d132      	bne.n	5f92 <_svfiprintf_r+0x176>
    5f2c:	9b03      	ldr	r3, [sp, #12]
    5f2e:	1d1a      	adds	r2, r3, #4
    5f30:	681b      	ldr	r3, [r3, #0]
    5f32:	9203      	str	r2, [sp, #12]
    5f34:	2b00      	cmp	r3, #0
    5f36:	bfb8      	it	lt
    5f38:	f04f 33ff 	movlt.w	r3, #4294967295
    5f3c:	3702      	adds	r7, #2
    5f3e:	9305      	str	r3, [sp, #20]
    5f40:	4c2c      	ldr	r4, [pc, #176]	; (5ff4 <_svfiprintf_r+0x1d8>)
    5f42:	7839      	ldrb	r1, [r7, #0]
    5f44:	2203      	movs	r2, #3
    5f46:	4620      	mov	r0, r4
    5f48:	f000 f9f2 	bl	6330 <memchr>
    5f4c:	b138      	cbz	r0, 5f5e <_svfiprintf_r+0x142>
    5f4e:	2340      	movs	r3, #64	; 0x40
    5f50:	1b00      	subs	r0, r0, r4
    5f52:	fa03 f000 	lsl.w	r0, r3, r0
    5f56:	9b04      	ldr	r3, [sp, #16]
    5f58:	4303      	orrs	r3, r0
    5f5a:	9304      	str	r3, [sp, #16]
    5f5c:	3701      	adds	r7, #1
    5f5e:	7839      	ldrb	r1, [r7, #0]
    5f60:	4825      	ldr	r0, [pc, #148]	; (5ff8 <_svfiprintf_r+0x1dc>)
    5f62:	f88d 1028 	strb.w	r1, [sp, #40]	; 0x28
    5f66:	2206      	movs	r2, #6
    5f68:	1c7e      	adds	r6, r7, #1
    5f6a:	f000 f9e1 	bl	6330 <memchr>
    5f6e:	2800      	cmp	r0, #0
    5f70:	d035      	beq.n	5fde <_svfiprintf_r+0x1c2>
    5f72:	4b22      	ldr	r3, [pc, #136]	; (5ffc <_svfiprintf_r+0x1e0>)
    5f74:	b9fb      	cbnz	r3, 5fb6 <_svfiprintf_r+0x19a>
    5f76:	9b03      	ldr	r3, [sp, #12]
    5f78:	3307      	adds	r3, #7
    5f7a:	f023 0307 	bic.w	r3, r3, #7
    5f7e:	3308      	adds	r3, #8
    5f80:	9303      	str	r3, [sp, #12]
    5f82:	9b09      	ldr	r3, [sp, #36]	; 0x24
    5f84:	444b      	add	r3, r9
    5f86:	9309      	str	r3, [sp, #36]	; 0x24
    5f88:	e76c      	b.n	5e64 <_svfiprintf_r+0x48>
    5f8a:	fb00 3202 	mla	r2, r0, r2, r3
    5f8e:	2101      	movs	r1, #1
    5f90:	e7a3      	b.n	5eda <_svfiprintf_r+0xbe>
    5f92:	2300      	movs	r3, #0
    5f94:	9305      	str	r3, [sp, #20]
    5f96:	4618      	mov	r0, r3
    5f98:	240a      	movs	r4, #10
    5f9a:	460f      	mov	r7, r1
    5f9c:	3101      	adds	r1, #1
    5f9e:	783a      	ldrb	r2, [r7, #0]
    5fa0:	3a30      	subs	r2, #48	; 0x30
    5fa2:	2a09      	cmp	r2, #9
    5fa4:	d903      	bls.n	5fae <_svfiprintf_r+0x192>
    5fa6:	2b00      	cmp	r3, #0
    5fa8:	d0ca      	beq.n	5f40 <_svfiprintf_r+0x124>
    5faa:	9005      	str	r0, [sp, #20]
    5fac:	e7c8      	b.n	5f40 <_svfiprintf_r+0x124>
    5fae:	fb04 2000 	mla	r0, r4, r0, r2
    5fb2:	2301      	movs	r3, #1
    5fb4:	e7f1      	b.n	5f9a <_svfiprintf_r+0x17e>
    5fb6:	ab03      	add	r3, sp, #12
    5fb8:	9300      	str	r3, [sp, #0]
    5fba:	462a      	mov	r2, r5
    5fbc:	4b10      	ldr	r3, [pc, #64]	; (6000 <_svfiprintf_r+0x1e4>)
    5fbe:	a904      	add	r1, sp, #16
    5fc0:	4640      	mov	r0, r8
    5fc2:	f3af 8000 	nop.w
    5fc6:	f1b0 3fff 	cmp.w	r0, #4294967295
    5fca:	4681      	mov	r9, r0
    5fcc:	d1d9      	bne.n	5f82 <_svfiprintf_r+0x166>
    5fce:	89ab      	ldrh	r3, [r5, #12]
    5fd0:	065b      	lsls	r3, r3, #25
    5fd2:	f53f af38 	bmi.w	5e46 <_svfiprintf_r+0x2a>
    5fd6:	9809      	ldr	r0, [sp, #36]	; 0x24
    5fd8:	b01d      	add	sp, #116	; 0x74
    5fda:	e8bd 8ff0 	ldmia.w	sp!, {r4, r5, r6, r7, r8, r9, sl, fp, pc}
    5fde:	ab03      	add	r3, sp, #12
    5fe0:	9300      	str	r3, [sp, #0]
    5fe2:	462a      	mov	r2, r5
    5fe4:	4b06      	ldr	r3, [pc, #24]	; (6000 <_svfiprintf_r+0x1e4>)
    5fe6:	a904      	add	r1, sp, #16
    5fe8:	4640      	mov	r0, r8
    5fea:	f000 f881 	bl	60f0 <_printf_i>
    5fee:	e7ea      	b.n	5fc6 <_svfiprintf_r+0x1aa>
    5ff0:	0000847d 	.word	0x0000847d
    5ff4:	00008483 	.word	0x00008483
    5ff8:	00008487 	.word	0x00008487
    5ffc:	00000000 	.word	0x00000000
    6000:	00005d67 	.word	0x00005d67

00006004 <_printf_common>:
    6004:	e92d 47f0 	stmdb	sp!, {r4, r5, r6, r7, r8, r9, sl, lr}
    6008:	4691      	mov	r9, r2
    600a:	461f      	mov	r7, r3
    600c:	688a      	ldr	r2, [r1, #8]
    600e:	690b      	ldr	r3, [r1, #16]
    6010:	f8dd 8020 	ldr.w	r8, [sp, #32]
    6014:	4293      	cmp	r3, r2
    6016:	bfb8      	it	lt
    6018:	4613      	movlt	r3, r2
    601a:	f8c9 3000 	str.w	r3, [r9]
    601e:	f891 2043 	ldrb.w	r2, [r1, #67]	; 0x43
    6022:	4606      	mov	r6, r0
    6024:	460c      	mov	r4, r1
    6026:	b112      	cbz	r2, 602e <_printf_common+0x2a>
    6028:	3301      	adds	r3, #1
    602a:	f8c9 3000 	str.w	r3, [r9]
    602e:	6823      	ldr	r3, [r4, #0]
    6030:	0699      	lsls	r1, r3, #26
    6032:	bf42      	ittt	mi
    6034:	f8d9 3000 	ldrmi.w	r3, [r9]
    6038:	3302      	addmi	r3, #2
    603a:	f8c9 3000 	strmi.w	r3, [r9]
    603e:	6825      	ldr	r5, [r4, #0]
    6040:	f015 0506 	ands.w	r5, r5, #6
    6044:	d107      	bne.n	6056 <_printf_common+0x52>
    6046:	f104 0a19 	add.w	sl, r4, #25
    604a:	68e3      	ldr	r3, [r4, #12]
    604c:	f8d9 2000 	ldr.w	r2, [r9]
    6050:	1a9b      	subs	r3, r3, r2
    6052:	429d      	cmp	r5, r3
    6054:	db29      	blt.n	60aa <_printf_common+0xa6>
    6056:	f894 3043 	ldrb.w	r3, [r4, #67]	; 0x43
    605a:	6822      	ldr	r2, [r4, #0]
    605c:	3300      	adds	r3, #0
    605e:	bf18      	it	ne
    6060:	2301      	movne	r3, #1
    6062:	0692      	lsls	r2, r2, #26
    6064:	d42e      	bmi.n	60c4 <_printf_common+0xc0>
    6066:	f104 0243 	add.w	r2, r4, #67	; 0x43
    606a:	4639      	mov	r1, r7
    606c:	4630      	mov	r0, r6
    606e:	47c0      	blx	r8
    6070:	3001      	adds	r0, #1
    6072:	d021      	beq.n	60b8 <_printf_common+0xb4>
    6074:	6823      	ldr	r3, [r4, #0]
    6076:	68e5      	ldr	r5, [r4, #12]
    6078:	f8d9 2000 	ldr.w	r2, [r9]
    607c:	f003 0306 	and.w	r3, r3, #6
    6080:	2b04      	cmp	r3, #4
    6082:	bf08      	it	eq
    6084:	1aad      	subeq	r5, r5, r2
    6086:	68a3      	ldr	r3, [r4, #8]
    6088:	6922      	ldr	r2, [r4, #16]
    608a:	bf0c      	ite	eq
    608c:	ea25 75e5 	biceq.w	r5, r5, r5, asr #31
    6090:	2500      	movne	r5, #0
    6092:	4293      	cmp	r3, r2
    6094:	bfc4      	itt	gt
    6096:	1a9b      	subgt	r3, r3, r2
    6098:	18ed      	addgt	r5, r5, r3
    609a:	f04f 0900 	mov.w	r9, #0
    609e:	341a      	adds	r4, #26
    60a0:	454d      	cmp	r5, r9
    60a2:	d11b      	bne.n	60dc <_printf_common+0xd8>
    60a4:	2000      	movs	r0, #0
    60a6:	e8bd 87f0 	ldmia.w	sp!, {r4, r5, r6, r7, r8, r9, sl, pc}
    60aa:	2301      	movs	r3, #1
    60ac:	4652      	mov	r2, sl
    60ae:	4639      	mov	r1, r7
    60b0:	4630      	mov	r0, r6
    60b2:	47c0      	blx	r8
    60b4:	3001      	adds	r0, #1
    60b6:	d103      	bne.n	60c0 <_printf_common+0xbc>
    60b8:	f04f 30ff 	mov.w	r0, #4294967295
    60bc:	e8bd 87f0 	ldmia.w	sp!, {r4, r5, r6, r7, r8, r9, sl, pc}
    60c0:	3501      	adds	r5, #1
    60c2:	e7c2      	b.n	604a <_printf_common+0x46>
    60c4:	18e1      	adds	r1, r4, r3
    60c6:	1c5a      	adds	r2, r3, #1
    60c8:	2030      	movs	r0, #48	; 0x30
    60ca:	f881 0043 	strb.w	r0, [r1, #67]	; 0x43
    60ce:	4422      	add	r2, r4
    60d0:	f894 1045 	ldrb.w	r1, [r4, #69]	; 0x45
    60d4:	f882 1043 	strb.w	r1, [r2, #67]	; 0x43
    60d8:	3302      	adds	r3, #2
    60da:	e7c4      	b.n	6066 <_printf_common+0x62>
    60dc:	2301      	movs	r3, #1
    60de:	4622      	mov	r2, r4
    60e0:	4639      	mov	r1, r7
    60e2:	4630      	mov	r0, r6
    60e4:	47c0      	blx	r8
    60e6:	3001      	adds	r0, #1
    60e8:	d0e6      	beq.n	60b8 <_printf_common+0xb4>
    60ea:	f109 0901 	add.w	r9, r9, #1
    60ee:	e7d7      	b.n	60a0 <_printf_common+0x9c>

000060f0 <_printf_i>:
    60f0:	e92d 43f0 	stmdb	sp!, {r4, r5, r6, r7, r8, r9, lr}
    60f4:	4617      	mov	r7, r2
    60f6:	7e0a      	ldrb	r2, [r1, #24]
    60f8:	b085      	sub	sp, #20
    60fa:	2a6e      	cmp	r2, #110	; 0x6e
    60fc:	4698      	mov	r8, r3
    60fe:	4606      	mov	r6, r0
    6100:	460c      	mov	r4, r1
    6102:	9b0c      	ldr	r3, [sp, #48]	; 0x30
    6104:	f101 0e43 	add.w	lr, r1, #67	; 0x43
    6108:	f000 80bc 	beq.w	6284 <_printf_i+0x194>
    610c:	d81a      	bhi.n	6144 <_printf_i+0x54>
    610e:	2a63      	cmp	r2, #99	; 0x63
    6110:	d02e      	beq.n	6170 <_printf_i+0x80>
    6112:	d80a      	bhi.n	612a <_printf_i+0x3a>
    6114:	2a00      	cmp	r2, #0
    6116:	f000 80c8 	beq.w	62aa <_printf_i+0x1ba>
    611a:	2a58      	cmp	r2, #88	; 0x58
    611c:	f000 808a 	beq.w	6234 <_printf_i+0x144>
    6120:	f104 0542 	add.w	r5, r4, #66	; 0x42
    6124:	f884 2042 	strb.w	r2, [r4, #66]	; 0x42
    6128:	e02a      	b.n	6180 <_printf_i+0x90>
    612a:	2a64      	cmp	r2, #100	; 0x64
    612c:	d001      	beq.n	6132 <_printf_i+0x42>
    612e:	2a69      	cmp	r2, #105	; 0x69
    6130:	d1f6      	bne.n	6120 <_printf_i+0x30>
    6132:	6821      	ldr	r1, [r4, #0]
    6134:	681a      	ldr	r2, [r3, #0]
    6136:	f011 0f80 	tst.w	r1, #128	; 0x80
    613a:	d023      	beq.n	6184 <_printf_i+0x94>
    613c:	1d11      	adds	r1, r2, #4
    613e:	6019      	str	r1, [r3, #0]
    6140:	6813      	ldr	r3, [r2, #0]
    6142:	e027      	b.n	6194 <_printf_i+0xa4>
    6144:	2a73      	cmp	r2, #115	; 0x73
    6146:	f000 80b4 	beq.w	62b2 <_printf_i+0x1c2>
    614a:	d808      	bhi.n	615e <_printf_i+0x6e>
    614c:	2a6f      	cmp	r2, #111	; 0x6f
    614e:	d02a      	beq.n	61a6 <_printf_i+0xb6>
    6150:	2a70      	cmp	r2, #112	; 0x70
    6152:	d1e5      	bne.n	6120 <_printf_i+0x30>
    6154:	680a      	ldr	r2, [r1, #0]
    6156:	f042 0220 	orr.w	r2, r2, #32
    615a:	600a      	str	r2, [r1, #0]
    615c:	e003      	b.n	6166 <_printf_i+0x76>
    615e:	2a75      	cmp	r2, #117	; 0x75
    6160:	d021      	beq.n	61a6 <_printf_i+0xb6>
    6162:	2a78      	cmp	r2, #120	; 0x78
    6164:	d1dc      	bne.n	6120 <_printf_i+0x30>
    6166:	2278      	movs	r2, #120	; 0x78
    6168:	f884 2045 	strb.w	r2, [r4, #69]	; 0x45
    616c:	496e      	ldr	r1, [pc, #440]	; (6328 <_printf_i+0x238>)
    616e:	e064      	b.n	623a <_printf_i+0x14a>
    6170:	681a      	ldr	r2, [r3, #0]
    6172:	f101 0542 	add.w	r5, r1, #66	; 0x42
    6176:	1d11      	adds	r1, r2, #4
    6178:	6019      	str	r1, [r3, #0]
    617a:	6813      	ldr	r3, [r2, #0]
    617c:	f884 3042 	strb.w	r3, [r4, #66]	; 0x42
    6180:	2301      	movs	r3, #1
    6182:	e0a3      	b.n	62cc <_printf_i+0x1dc>
    6184:	f011 0f40 	tst.w	r1, #64	; 0x40
    6188:	f102 0104 	add.w	r1, r2, #4
    618c:	6019      	str	r1, [r3, #0]
    618e:	d0d7      	beq.n	6140 <_printf_i+0x50>
    6190:	f9b2 3000 	ldrsh.w	r3, [r2]
    6194:	2b00      	cmp	r3, #0
    6196:	da03      	bge.n	61a0 <_printf_i+0xb0>
    6198:	222d      	movs	r2, #45	; 0x2d
    619a:	425b      	negs	r3, r3
    619c:	f884 2043 	strb.w	r2, [r4, #67]	; 0x43
    61a0:	4962      	ldr	r1, [pc, #392]	; (632c <_printf_i+0x23c>)
    61a2:	220a      	movs	r2, #10
    61a4:	e017      	b.n	61d6 <_printf_i+0xe6>
    61a6:	6820      	ldr	r0, [r4, #0]
    61a8:	6819      	ldr	r1, [r3, #0]
    61aa:	f010 0f80 	tst.w	r0, #128	; 0x80
    61ae:	d003      	beq.n	61b8 <_printf_i+0xc8>
    61b0:	1d08      	adds	r0, r1, #4
    61b2:	6018      	str	r0, [r3, #0]
    61b4:	680b      	ldr	r3, [r1, #0]
    61b6:	e006      	b.n	61c6 <_printf_i+0xd6>
    61b8:	f010 0f40 	tst.w	r0, #64	; 0x40
    61bc:	f101 0004 	add.w	r0, r1, #4
    61c0:	6018      	str	r0, [r3, #0]
    61c2:	d0f7      	beq.n	61b4 <_printf_i+0xc4>
    61c4:	880b      	ldrh	r3, [r1, #0]
    61c6:	4959      	ldr	r1, [pc, #356]	; (632c <_printf_i+0x23c>)
    61c8:	2a6f      	cmp	r2, #111	; 0x6f
    61ca:	bf14      	ite	ne
    61cc:	220a      	movne	r2, #10
    61ce:	2208      	moveq	r2, #8
    61d0:	2000      	movs	r0, #0
    61d2:	f884 0043 	strb.w	r0, [r4, #67]	; 0x43
    61d6:	6865      	ldr	r5, [r4, #4]
    61d8:	60a5      	str	r5, [r4, #8]
    61da:	2d00      	cmp	r5, #0
    61dc:	f2c0 809c 	blt.w	6318 <_printf_i+0x228>
    61e0:	6820      	ldr	r0, [r4, #0]
    61e2:	f020 0004 	bic.w	r0, r0, #4
    61e6:	6020      	str	r0, [r4, #0]
    61e8:	2b00      	cmp	r3, #0
    61ea:	d13f      	bne.n	626c <_printf_i+0x17c>
    61ec:	2d00      	cmp	r5, #0
    61ee:	f040 8095 	bne.w	631c <_printf_i+0x22c>
    61f2:	4675      	mov	r5, lr
    61f4:	2a08      	cmp	r2, #8
    61f6:	d10b      	bne.n	6210 <_printf_i+0x120>
    61f8:	6823      	ldr	r3, [r4, #0]
    61fa:	07da      	lsls	r2, r3, #31
    61fc:	d508      	bpl.n	6210 <_printf_i+0x120>
    61fe:	6923      	ldr	r3, [r4, #16]
    6200:	6862      	ldr	r2, [r4, #4]
    6202:	429a      	cmp	r2, r3
    6204:	bfde      	ittt	le
    6206:	2330      	movle	r3, #48	; 0x30
    6208:	f805 3c01 	strble.w	r3, [r5, #-1]
    620c:	f105 35ff 	addle.w	r5, r5, #4294967295
    6210:	ebae 0305 	sub.w	r3, lr, r5
    6214:	6123      	str	r3, [r4, #16]
    6216:	f8cd 8000 	str.w	r8, [sp]
    621a:	463b      	mov	r3, r7
    621c:	aa03      	add	r2, sp, #12
    621e:	4621      	mov	r1, r4
    6220:	4630      	mov	r0, r6
    6222:	f7ff feef 	bl	6004 <_printf_common>
    6226:	3001      	adds	r0, #1
    6228:	d155      	bne.n	62d6 <_printf_i+0x1e6>
    622a:	f04f 30ff 	mov.w	r0, #4294967295
    622e:	b005      	add	sp, #20
    6230:	e8bd 83f0 	ldmia.w	sp!, {r4, r5, r6, r7, r8, r9, pc}
    6234:	f881 2045 	strb.w	r2, [r1, #69]	; 0x45
    6238:	493c      	ldr	r1, [pc, #240]	; (632c <_printf_i+0x23c>)
    623a:	6822      	ldr	r2, [r4, #0]
    623c:	6818      	ldr	r0, [r3, #0]
    623e:	f012 0f80 	tst.w	r2, #128	; 0x80
    6242:	f100 0504 	add.w	r5, r0, #4
    6246:	601d      	str	r5, [r3, #0]
    6248:	d001      	beq.n	624e <_printf_i+0x15e>
    624a:	6803      	ldr	r3, [r0, #0]
    624c:	e002      	b.n	6254 <_printf_i+0x164>
    624e:	0655      	lsls	r5, r2, #25
    6250:	d5fb      	bpl.n	624a <_printf_i+0x15a>
    6252:	8803      	ldrh	r3, [r0, #0]
    6254:	07d0      	lsls	r0, r2, #31
    6256:	bf44      	itt	mi
    6258:	f042 0220 	orrmi.w	r2, r2, #32
    625c:	6022      	strmi	r2, [r4, #0]
    625e:	b91b      	cbnz	r3, 6268 <_printf_i+0x178>
    6260:	6822      	ldr	r2, [r4, #0]
    6262:	f022 0220 	bic.w	r2, r2, #32
    6266:	6022      	str	r2, [r4, #0]
    6268:	2210      	movs	r2, #16
    626a:	e7b1      	b.n	61d0 <_printf_i+0xe0>
    626c:	4675      	mov	r5, lr
    626e:	fbb3 f0f2 	udiv	r0, r3, r2
    6272:	fb02 3310 	mls	r3, r2, r0, r3
    6276:	5ccb      	ldrb	r3, [r1, r3]
    6278:	f805 3d01 	strb.w	r3, [r5, #-1]!
    627c:	4603      	mov	r3, r0
    627e:	2800      	cmp	r0, #0
    6280:	d1f5      	bne.n	626e <_printf_i+0x17e>
    6282:	e7b7      	b.n	61f4 <_printf_i+0x104>
    6284:	6808      	ldr	r0, [r1, #0]
    6286:	681a      	ldr	r2, [r3, #0]
    6288:	6949      	ldr	r1, [r1, #20]
    628a:	f010 0f80 	tst.w	r0, #128	; 0x80
    628e:	d004      	beq.n	629a <_printf_i+0x1aa>
    6290:	1d10      	adds	r0, r2, #4
    6292:	6018      	str	r0, [r3, #0]
    6294:	6813      	ldr	r3, [r2, #0]
    6296:	6019      	str	r1, [r3, #0]
    6298:	e007      	b.n	62aa <_printf_i+0x1ba>
    629a:	f010 0f40 	tst.w	r0, #64	; 0x40
    629e:	f102 0004 	add.w	r0, r2, #4
    62a2:	6018      	str	r0, [r3, #0]
    62a4:	6813      	ldr	r3, [r2, #0]
    62a6:	d0f6      	beq.n	6296 <_printf_i+0x1a6>
    62a8:	8019      	strh	r1, [r3, #0]
    62aa:	2300      	movs	r3, #0
    62ac:	6123      	str	r3, [r4, #16]
    62ae:	4675      	mov	r5, lr
    62b0:	e7b1      	b.n	6216 <_printf_i+0x126>
    62b2:	681a      	ldr	r2, [r3, #0]
    62b4:	1d11      	adds	r1, r2, #4
    62b6:	6019      	str	r1, [r3, #0]
    62b8:	6815      	ldr	r5, [r2, #0]
    62ba:	6862      	ldr	r2, [r4, #4]
    62bc:	2100      	movs	r1, #0
    62be:	4628      	mov	r0, r5
    62c0:	f000 f836 	bl	6330 <memchr>
    62c4:	b108      	cbz	r0, 62ca <_printf_i+0x1da>
    62c6:	1b40      	subs	r0, r0, r5
    62c8:	6060      	str	r0, [r4, #4]
    62ca:	6863      	ldr	r3, [r4, #4]
    62cc:	6123      	str	r3, [r4, #16]
    62ce:	2300      	movs	r3, #0
    62d0:	f884 3043 	strb.w	r3, [r4, #67]	; 0x43
    62d4:	e79f      	b.n	6216 <_printf_i+0x126>
    62d6:	6923      	ldr	r3, [r4, #16]
    62d8:	462a      	mov	r2, r5
    62da:	4639      	mov	r1, r7
    62dc:	4630      	mov	r0, r6
    62de:	47c0      	blx	r8
    62e0:	3001      	adds	r0, #1
    62e2:	d0a2      	beq.n	622a <_printf_i+0x13a>
    62e4:	6823      	ldr	r3, [r4, #0]
    62e6:	079b      	lsls	r3, r3, #30
    62e8:	d507      	bpl.n	62fa <_printf_i+0x20a>
    62ea:	2500      	movs	r5, #0
    62ec:	f104 0919 	add.w	r9, r4, #25
    62f0:	68e3      	ldr	r3, [r4, #12]
    62f2:	9a03      	ldr	r2, [sp, #12]
    62f4:	1a9b      	subs	r3, r3, r2
    62f6:	429d      	cmp	r5, r3
    62f8:	db05      	blt.n	6306 <_printf_i+0x216>
    62fa:	68e0      	ldr	r0, [r4, #12]
    62fc:	9b03      	ldr	r3, [sp, #12]
    62fe:	4298      	cmp	r0, r3
    6300:	bfb8      	it	lt
    6302:	4618      	movlt	r0, r3
    6304:	e793      	b.n	622e <_printf_i+0x13e>
    6306:	2301      	movs	r3, #1
    6308:	464a      	mov	r2, r9
    630a:	4639      	mov	r1, r7
    630c:	4630      	mov	r0, r6
    630e:	47c0      	blx	r8
    6310:	3001      	adds	r0, #1
    6312:	d08a      	beq.n	622a <_printf_i+0x13a>
    6314:	3501      	adds	r5, #1
    6316:	e7eb      	b.n	62f0 <_printf_i+0x200>
    6318:	2b00      	cmp	r3, #0
    631a:	d1a7      	bne.n	626c <_printf_i+0x17c>
    631c:	780b      	ldrb	r3, [r1, #0]
    631e:	f884 3042 	strb.w	r3, [r4, #66]	; 0x42
    6322:	f104 0542 	add.w	r5, r4, #66	; 0x42
    6326:	e765      	b.n	61f4 <_printf_i+0x104>
    6328:	0000849f 	.word	0x0000849f
    632c:	0000848e 	.word	0x0000848e

00006330 <memchr>:
    6330:	f001 01ff 	and.w	r1, r1, #255	; 0xff
    6334:	2a10      	cmp	r2, #16
    6336:	db2b      	blt.n	6390 <memchr+0x60>
    6338:	f010 0f07 	tst.w	r0, #7
    633c:	d008      	beq.n	6350 <memchr+0x20>
    633e:	f810 3b01 	ldrb.w	r3, [r0], #1
    6342:	3a01      	subs	r2, #1
    6344:	428b      	cmp	r3, r1
    6346:	d02d      	beq.n	63a4 <memchr+0x74>
    6348:	f010 0f07 	tst.w	r0, #7
    634c:	b342      	cbz	r2, 63a0 <memchr+0x70>
    634e:	d1f6      	bne.n	633e <memchr+0xe>
    6350:	b4f0      	push	{r4, r5, r6, r7}
    6352:	ea41 2101 	orr.w	r1, r1, r1, lsl #8
    6356:	ea41 4101 	orr.w	r1, r1, r1, lsl #16
    635a:	f022 0407 	bic.w	r4, r2, #7
    635e:	f07f 0700 	mvns.w	r7, #0
    6362:	2300      	movs	r3, #0
    6364:	e8f0 5602 	ldrd	r5, r6, [r0], #8
    6368:	3c08      	subs	r4, #8
    636a:	ea85 0501 	eor.w	r5, r5, r1
    636e:	ea86 0601 	eor.w	r6, r6, r1
    6372:	fa85 f547 	uadd8	r5, r5, r7
    6376:	faa3 f587 	sel	r5, r3, r7
    637a:	fa86 f647 	uadd8	r6, r6, r7
    637e:	faa5 f687 	sel	r6, r5, r7
    6382:	b98e      	cbnz	r6, 63a8 <memchr+0x78>
    6384:	d1ee      	bne.n	6364 <memchr+0x34>
    6386:	bcf0      	pop	{r4, r5, r6, r7}
    6388:	f001 01ff 	and.w	r1, r1, #255	; 0xff
    638c:	f002 0207 	and.w	r2, r2, #7
    6390:	b132      	cbz	r2, 63a0 <memchr+0x70>
    6392:	f810 3b01 	ldrb.w	r3, [r0], #1
    6396:	3a01      	subs	r2, #1
    6398:	ea83 0301 	eor.w	r3, r3, r1
    639c:	b113      	cbz	r3, 63a4 <memchr+0x74>
    639e:	d1f8      	bne.n	6392 <memchr+0x62>
    63a0:	2000      	movs	r0, #0
    63a2:	4770      	bx	lr
    63a4:	3801      	subs	r0, #1
    63a6:	4770      	bx	lr
    63a8:	2d00      	cmp	r5, #0
    63aa:	bf06      	itte	eq
    63ac:	4635      	moveq	r5, r6
    63ae:	3803      	subeq	r0, #3
    63b0:	3807      	subne	r0, #7
    63b2:	f015 0f01 	tst.w	r5, #1
    63b6:	d107      	bne.n	63c8 <memchr+0x98>
    63b8:	3001      	adds	r0, #1
    63ba:	f415 7f80 	tst.w	r5, #256	; 0x100
    63be:	bf02      	ittt	eq
    63c0:	3001      	addeq	r0, #1
    63c2:	f415 3fc0 	tsteq.w	r5, #98304	; 0x18000
    63c6:	3001      	addeq	r0, #1
    63c8:	bcf0      	pop	{r4, r5, r6, r7}
    63ca:	3801      	subs	r0, #1
    63cc:	4770      	bx	lr
    63ce:	bf00      	nop

000063d0 <_realloc_r>:
    63d0:	b5f8      	push	{r3, r4, r5, r6, r7, lr}
    63d2:	4607      	mov	r7, r0
    63d4:	4614      	mov	r4, r2
    63d6:	460e      	mov	r6, r1
    63d8:	b921      	cbnz	r1, 63e4 <_realloc_r+0x14>
    63da:	4611      	mov	r1, r2
    63dc:	e8bd 40f8 	ldmia.w	sp!, {r3, r4, r5, r6, r7, lr}
    63e0:	f7ff bb44 	b.w	5a6c <_malloc_r>
    63e4:	b922      	cbnz	r2, 63f0 <_realloc_r+0x20>
    63e6:	f7ff faf3 	bl	59d0 <_free_r>
    63ea:	4625      	mov	r5, r4
    63ec:	4628      	mov	r0, r5
    63ee:	bdf8      	pop	{r3, r4, r5, r6, r7, pc}
    63f0:	f000 f814 	bl	641c <_malloc_usable_size_r>
    63f4:	4284      	cmp	r4, r0
    63f6:	d90f      	bls.n	6418 <_realloc_r+0x48>
    63f8:	4621      	mov	r1, r4
    63fa:	4638      	mov	r0, r7
    63fc:	f7ff fb36 	bl	5a6c <_malloc_r>
    6400:	4605      	mov	r5, r0
    6402:	2800      	cmp	r0, #0
    6404:	d0f2      	beq.n	63ec <_realloc_r+0x1c>
    6406:	4631      	mov	r1, r6
    6408:	4622      	mov	r2, r4
    640a:	f7ff fab3 	bl	5974 <memcpy>
    640e:	4631      	mov	r1, r6
    6410:	4638      	mov	r0, r7
    6412:	f7ff fadd 	bl	59d0 <_free_r>
    6416:	e7e9      	b.n	63ec <_realloc_r+0x1c>
    6418:	4635      	mov	r5, r6
    641a:	e7e7      	b.n	63ec <_realloc_r+0x1c>

0000641c <_malloc_usable_size_r>:
    641c:	f851 0c04 	ldr.w	r0, [r1, #-4]
    6420:	2800      	cmp	r0, #0
    6422:	f1a0 0004 	sub.w	r0, r0, #4
    6426:	bfbc      	itt	lt
    6428:	580b      	ldrlt	r3, [r1, r0]
    642a:	18c0      	addlt	r0, r0, r3
    642c:	4770      	bx	lr
    642e:	2a2a      	.short	0x2a2a
    6430:	2a2a2a2a 	.word	0x2a2a2a2a
    6434:	2a2a2a2a 	.word	0x2a2a2a2a
    6438:	2a2a2a2a 	.word	0x2a2a2a2a
    643c:	2a2a2a2a 	.word	0x2a2a2a2a
    6440:	2a2a2a2a 	.word	0x2a2a2a2a
    6444:	2a2a2a2a 	.word	0x2a2a2a2a
    6448:	2a2a2a2a 	.word	0x2a2a2a2a
    644c:	2a2a2a2a 	.word	0x2a2a2a2a
    6450:	2a2a2a2a 	.word	0x2a2a2a2a
    6454:	2a2a2a2a 	.word	0x2a2a2a2a
    6458:	2a2a2a2a 	.word	0x2a2a2a2a
    645c:	2a2a2a2a 	.word	0x2a2a2a2a
    6460:	2a2a2a2a 	.word	0x2a2a2a2a
    6464:	2a2a2a2a 	.word	0x2a2a2a2a
    6468:	2a2a2a00 	.word	0x2a2a2a00
    646c:	2a2a2a2a 	.word	0x2a2a2a2a
    6470:	2a2a2a2a 	.word	0x2a2a2a2a
    6474:	2a2a2a2a 	.word	0x2a2a2a2a
    6478:	43415453 	.word	0x43415453
    647c:	564f204b 	.word	0x564f204b
    6480:	4c465245 	.word	0x4c465245
    6484:	4420574f 	.word	0x4420574f
    6488:	43455445 	.word	0x43455445
    648c:	2a444554 	.word	0x2a444554
    6490:	2a2a2a2a 	.word	0x2a2a2a2a
    6494:	2a2a2a2a 	.word	0x2a2a2a2a
    6498:	2a2a2a2a 	.word	0x2a2a2a2a
    649c:	2a2a2a2a 	.word	0x2a2a2a2a
    64a0:	002a2a2a 	.word	0x002a2a2a
    64a4:	6b736154 	.word	0x6b736154
    64a8:	6e614820 	.word	0x6e614820
    64ac:	20656c64 	.word	0x20656c64
    64b0:	6425202d 	.word	0x6425202d
    64b4:	2a000a0d 	.word	0x2a000a0d
    64b8:	2a2a2a2a 	.word	0x2a2a2a2a
    64bc:	2a2a2a2a 	.word	0x2a2a2a2a
    64c0:	2a2a2a2a 	.word	0x2a2a2a2a
    64c4:	414d2a2a 	.word	0x414d2a2a
    64c8:	434f4c4c 	.word	0x434f4c4c
    64cc:	49414620 	.word	0x49414620
    64d0:	4552554c 	.word	0x4552554c
    64d4:	54454420 	.word	0x54454420
    64d8:	45544345 	.word	0x45544345
    64dc:	2a2a2a44 	.word	0x2a2a2a44
    64e0:	2a2a2a2a 	.word	0x2a2a2a2a
    64e4:	2a2a2a2a 	.word	0x2a2a2a2a
    64e8:	2a2a2a2a 	.word	0x2a2a2a2a
    64ec:	2a2a2a2a 	.word	0x2a2a2a2a
    64f0:	002a      	.short	0x002a
    64f2:	4e49      	.short	0x4e49
    64f4:	43444120 	.word	0x43444120
    64f8:	20305f30 	.word	0x20305f30
    64fc:	646e6168 	.word	0x646e6168
    6500:	0072656c 	.word	0x0072656c
    6504:	41204e49 	.word	0x41204e49
    6508:	5f304344 	.word	0x5f304344
    650c:	61682031 	.word	0x61682031
    6510:	656c646e 	.word	0x656c646e
    6514:	0072      	.short	0x0072
    6516:	4f46      	.short	0x4f46
    6518:	3a204154 	.word	0x3a204154
    651c:	45484320 	.word	0x45484320
    6520:	4e494b43 	.word	0x4e494b43
    6524:	4f462047 	.word	0x4f462047
    6528:	4f4d2052 	.word	0x4f4d2052
    652c:	204d4544 	.word	0x204d4544
    6530:	4d524946 	.word	0x4d524946
    6534:	45524157 	.word	0x45524157
    6538:	44505520 	.word	0x44505520
    653c:	20455441 	.word	0x20455441
    6540:	4d4f5246 	.word	0x4d4f5246
    6544:	52494120 	.word	0x52494120
    6548:	4e415620 	.word	0x4e415620
    654c:	45474154 	.word	0x45474154
    6550:	52455320 	.word	0x52455320
    6554:	2e524556 	.word	0x2e524556
    6558:	72694600 	.word	0x72694600
    655c:	7261776d 	.word	0x7261776d
    6560:	776f4465 	.word	0x776f4465
    6564:	616f6c6e 	.word	0x616f6c6e
    6568:	65684364 	.word	0x65684364
    656c:	69546b63 	.word	0x69546b63
    6570:	0072656d 	.word	0x0072656d
    6574:	6c696146 	.word	0x6c696146
    6578:	74206465 	.word	0x74206465
    657c:	6573206f 	.word	0x6573206f
    6580:	7420746e 	.word	0x7420746e
    6584:	73206568 	.word	0x73206568
    6588:	41207465 	.word	0x41207465
    658c:	72204e50 	.word	0x72204e50
    6590:	65757165 	.word	0x65757165
    6594:	74207473 	.word	0x74207473
    6598:	7854206f 	.word	0x7854206f
    659c:	73615420 	.word	0x73615420
    65a0:	7245006b 	.word	0x7245006b
    65a4:	20726f72 	.word	0x20726f72
    65a8:	6f4e203a 	.word	0x6f4e203a
    65ac:	62612074 	.word	0x62612074
    65b0:	7420656c 	.word	0x7420656c
    65b4:	626f206f 	.word	0x626f206f
    65b8:	6e696174 	.word	0x6e696174
    65bc:	20785420 	.word	0x20785420
    65c0:	616d6553 	.word	0x616d6553
    65c4:	6f686170 	.word	0x6f686170
    65c8:	54006572 	.word	0x54006572
    65cc:	736e6172 	.word	0x736e6172
    65d0:	2074696d 	.word	0x2074696d
    65d4:	75657551 	.word	0x75657551
    65d8:	73692065 	.word	0x73692065
    65dc:	746f6e20 	.word	0x746f6e20
    65e0:	706d6520 	.word	0x706d6520
    65e4:	46007974 	.word	0x46007974
    65e8:	2041544f 	.word	0x2041544f
    65ec:	6553203a 	.word	0x6553203a
    65f0:	68742074 	.word	0x68742074
    65f4:	50412065 	.word	0x50412065
    65f8:	6f66204e 	.word	0x6f66204e
    65fc:	6f632072 	.word	0x6f632072
    6600:	63656e6e 	.word	0x63656e6e
    6604:	676e6974 	.word	0x676e6974
    6608:	206f7420 	.word	0x206f7420
    660c:	20726941 	.word	0x20726941
    6610:	746e6156 	.word	0x746e6156
    6614:	00656761 	.word	0x00656761
    6618:	6f727245 	.word	0x6f727245
    661c:	78453a72 	.word	0x78453a72
    6620:	74636570 	.word	0x74636570
    6624:	52206465 	.word	0x52206465
    6628:	6f707365 	.word	0x6f707365
    662c:	2065736e 	.word	0x2065736e
    6630:	20746f4e 	.word	0x20746f4e
    6634:	65636552 	.word	0x65636552
    6638:	64657669 	.word	0x64657669
    663c:	002e2e2e 	.word	0x002e2e2e
    6640:	6f727245 	.word	0x6f727245
    6644:	61463a72 	.word	0x61463a72
    6648:	64656c69 	.word	0x64656c69
    664c:	206f7420 	.word	0x206f7420
    6650:	65636572 	.word	0x65636572
    6654:	20657669 	.word	0x20657669
    6658:	6e6e6f63 	.word	0x6e6e6f63
    665c:	69746365 	.word	0x69746365
    6660:	72206e6f 	.word	0x72206e6f
    6664:	6f707365 	.word	0x6f707365
    6668:	2065736e 	.word	0x2065736e
    666c:	52206e69 	.word	0x52206e69
    6670:	6f6d2058 	.word	0x6f6d2058
    6674:	46006564 	.word	0x46006564
    6678:	656c6961 	.word	0x656c6961
    667c:	6f742064 	.word	0x6f742064
    6680:	6e657320 	.word	0x6e657320
    6684:	68742074 	.word	0x68742074
    6688:	65732065 	.word	0x65732065
    668c:	63697672 	.word	0x63697672
    6690:	6e692065 	.word	0x6e692065
    6694:	61636964 	.word	0x61636964
    6698:	6e6f6974 	.word	0x6e6f6974
    669c:	71657220 	.word	0x71657220
    66a0:	74736575 	.word	0x74736575
    66a4:	206f7420 	.word	0x206f7420
    66a8:	54207854 	.word	0x54207854
    66ac:	006b7361 	.word	0x006b7361
    66b0:	41544f46 	.word	0x41544f46
    66b4:	53203a20 	.word	0x53203a20
    66b8:	64207465 	.word	0x64207465
    66bc:	63697665 	.word	0x63697665
    66c0:	65732065 	.word	0x65732065
    66c4:	63697672 	.word	0x63697672
    66c8:	6e692065 	.word	0x6e692065
    66cc:	61636964 	.word	0x61636964
    66d0:	6e6f6974 	.word	0x6e6f6974
    66d4:	46002e73 	.word	0x46002e73
    66d8:	656c6961 	.word	0x656c6961
    66dc:	6f742064 	.word	0x6f742064
    66e0:	6e657320 	.word	0x6e657320
    66e4:	68742074 	.word	0x68742074
    66e8:	73752065 	.word	0x73752065
    66ec:	61207265 	.word	0x61207265
    66f0:	65657267 	.word	0x65657267
    66f4:	746e656d 	.word	0x746e656d
    66f8:	74636120 	.word	0x74636120
    66fc:	74617669 	.word	0x74617669
    6700:	206e6f69 	.word	0x206e6f69
    6704:	75716572 	.word	0x75716572
    6708:	20747365 	.word	0x20747365
    670c:	20726f66 	.word	0x20726f66
    6710:	64205746 	.word	0x64205746
    6714:	6c6e776f 	.word	0x6c6e776f
    6718:	2064616f 	.word	0x2064616f
    671c:	54206f74 	.word	0x54206f74
    6720:	61542078 	.word	0x61542078
    6724:	46006b73 	.word	0x46006b73
    6728:	2041544f 	.word	0x2041544f
    672c:	6553203a 	.word	0x6553203a
    6730:	73752074 	.word	0x73752074
    6734:	61207265 	.word	0x61207265
    6738:	65657267 	.word	0x65657267
    673c:	746e656d 	.word	0x746e656d
    6740:	74636120 	.word	0x74636120
    6744:	74617669 	.word	0x74617669
    6748:	206e6f69 	.word	0x206e6f69
    674c:	20726f66 	.word	0x20726f66
    6750:	64205746 	.word	0x64205746
    6754:	6c6e776f 	.word	0x6c6e776f
    6758:	2e64616f 	.word	0x2e64616f
    675c:	69614600 	.word	0x69614600
    6760:	2064656c 	.word	0x2064656c
    6764:	73206f74 	.word	0x73206f74
    6768:	20746e65 	.word	0x20746e65
    676c:	20656874 	.word	0x20656874
    6770:	72657375 	.word	0x72657375
    6774:	72676120 	.word	0x72676120
    6778:	656d6565 	.word	0x656d6565
    677c:	6120746e 	.word	0x6120746e
    6780:	76697463 	.word	0x76697463
    6784:	6f697461 	.word	0x6f697461
    6788:	6572206e 	.word	0x6572206e
    678c:	73657571 	.word	0x73657571
    6790:	6f662074 	.word	0x6f662074
    6794:	57462072 	.word	0x57462072
    6798:	736e6920 	.word	0x736e6920
    679c:	6c6c6174 	.word	0x6c6c6174
    67a0:	6f697461 	.word	0x6f697461
    67a4:	6f74206e 	.word	0x6f74206e
    67a8:	20785420 	.word	0x20785420
    67ac:	6b736154 	.word	0x6b736154
    67b0:	544f4600 	.word	0x544f4600
    67b4:	203a2041 	.word	0x203a2041
    67b8:	20746553 	.word	0x20746553
    67bc:	72657375 	.word	0x72657375
    67c0:	72676120 	.word	0x72676120
    67c4:	656d6565 	.word	0x656d6565
    67c8:	6120746e 	.word	0x6120746e
    67cc:	76697463 	.word	0x76697463
    67d0:	6f697461 	.word	0x6f697461
    67d4:	6f66206e 	.word	0x6f66206e
    67d8:	57462072 	.word	0x57462072
    67dc:	736e6920 	.word	0x736e6920
    67e0:	6c6c6174 	.word	0x6c6c6174
    67e4:	6f697461 	.word	0x6f697461
    67e8:	46002e6e 	.word	0x46002e6e
    67ec:	656c6961 	.word	0x656c6961
    67f0:	6f742064 	.word	0x6f742064
    67f4:	6e657320 	.word	0x6e657320
    67f8:	68742074 	.word	0x68742074
    67fc:	74732065 	.word	0x74732065
    6800:	20747261 	.word	0x20747261
    6804:	73204d44 	.word	0x73204d44
    6808:	69737365 	.word	0x69737365
    680c:	72206e6f 	.word	0x72206e6f
    6810:	65757165 	.word	0x65757165
    6814:	74207473 	.word	0x74207473
    6818:	7854206f 	.word	0x7854206f
    681c:	73615420 	.word	0x73615420
    6820:	4f46006b 	.word	0x4f46006b
    6824:	3a204154 	.word	0x3a204154
    6828:	696e4920 	.word	0x696e4920
    682c:	74616974 	.word	0x74616974
    6830:	20676e69 	.word	0x20676e69
    6834:	20656874 	.word	0x20656874
    6838:	73204d44 	.word	0x73204d44
    683c:	69737365 	.word	0x69737365
    6840:	77206e6f 	.word	0x77206e6f
    6844:	20687469 	.word	0x20687469
    6848:	20726941 	.word	0x20726941
    684c:	746e6156 	.word	0x746e6156
    6850:	2e656761 	.word	0x2e656761
    6854:	2b0a0d00 	.word	0x2b0a0d00
    6858:	49534457 	.word	0x49534457
    685c:	4600203a 	.word	0x4600203a
    6860:	2041544f 	.word	0x2041544f
    6864:	5041203a 	.word	0x5041203a
    6868:	5349204e 	.word	0x5349204e
    686c:	54455320 	.word	0x54455320
    6870:	4552202e 	.word	0x4552202e
    6874:	20594441 	.word	0x20594441
    6878:	20524f46 	.word	0x20524f46
    687c:	53204d44 	.word	0x53204d44
    6880:	49535345 	.word	0x49535345
    6884:	0d2e4e4f 	.word	0x0d2e4e4f
    6888:	4f46000a 	.word	0x4f46000a
    688c:	3a204154 	.word	0x3a204154
    6890:	52494120 	.word	0x52494120
    6894:	544e4156 	.word	0x544e4156
    6898:	20454741 	.word	0x20454741
    689c:	4749524f 	.word	0x4749524f
    68a0:	54414e49 	.word	0x54414e49
    68a4:	44204445 	.word	0x44204445
    68a8:	4553204d 	.word	0x4553204d
    68ac:	4f495353 	.word	0x4f495353
    68b0:	4552204e 	.word	0x4552204e
    68b4:	53455551 	.word	0x53455551
    68b8:	0a0d2e54 	.word	0x0a0d2e54
    68bc:	544f4600 	.word	0x544f4600
    68c0:	203a2041 	.word	0x203a2041
    68c4:	56524941 	.word	0x56524941
    68c8:	41544e41 	.word	0x41544e41
    68cc:	52204547 	.word	0x52204547
    68d0:	45555145 	.word	0x45555145
    68d4:	20535453 	.word	0x20535453
    68d8:	20524f46 	.word	0x20524f46
    68dc:	4d524946 	.word	0x4d524946
    68e0:	45524157 	.word	0x45524157
    68e4:	574f4420 	.word	0x574f4420
    68e8:	414f4c4e 	.word	0x414f4c4e
    68ec:	0a0d2e44 	.word	0x0a0d2e44
    68f0:	544f4600 	.word	0x544f4600
    68f4:	203a2041 	.word	0x203a2041
    68f8:	56524941 	.word	0x56524941
    68fc:	41544e41 	.word	0x41544e41
    6900:	52204547 	.word	0x52204547
    6904:	45555145 	.word	0x45555145
    6908:	20535453 	.word	0x20535453
    690c:	20524f46 	.word	0x20524f46
    6910:	4d524946 	.word	0x4d524946
    6914:	45524157 	.word	0x45524157
    6918:	534e4920 	.word	0x534e4920
    691c:	4c4c4154 	.word	0x4c4c4154
    6920:	4f495441 	.word	0x4f495441
    6924:	0a0d2e4e 	.word	0x0a0d2e4e
    6928:	544f4600 	.word	0x544f4600
    692c:	203a2041 	.word	0x203a2041
    6930:	52415453 	.word	0x52415453
    6934:	474e4954 	.word	0x474e4954
    6938:	20505520 	.word	0x20505520
    693c:	20454854 	.word	0x20454854
    6940:	53204d44 	.word	0x53204d44
    6944:	49535345 	.word	0x49535345
    6948:	57204e4f 	.word	0x57204e4f
    694c:	20485449 	.word	0x20485449
    6950:	56524941 	.word	0x56524941
    6954:	41544e41 	.word	0x41544e41
    6958:	0d2e4547 	.word	0x0d2e4547
    695c:	4f46000a 	.word	0x4f46000a
    6960:	3a204154 	.word	0x3a204154
    6964:	204d4420 	.word	0x204d4420
    6968:	53534553 	.word	0x53534553
    696c:	204e4f49 	.word	0x204e4f49
    6970:	52415453 	.word	0x52415453
    6974:	20444554 	.word	0x20444554
    6978:	20444e41 	.word	0x20444e41
    697c:	4e415254 	.word	0x4e415254
    6980:	54434153 	.word	0x54434153
    6984:	534e4f49 	.word	0x534e4f49
    6988:	43434f20 	.word	0x43434f20
    698c:	44455255 	.word	0x44455255
    6990:	000a0d2e 	.word	0x000a0d2e
    6994:	41544f46 	.word	0x41544f46
    6998:	44203a20 	.word	0x44203a20
    699c:	4553204d 	.word	0x4553204d
    69a0:	4f495353 	.word	0x4f495353
    69a4:	4957204e 	.word	0x4957204e
    69a8:	41204854 	.word	0x41204854
    69ac:	41565249 	.word	0x41565249
    69b0:	4741544e 	.word	0x4741544e
    69b4:	53492045 	.word	0x53492045
    69b8:	4f4c4320 	.word	0x4f4c4320
    69bc:	2e444553 	.word	0x2e444553
    69c0:	46000a0d 	.word	0x46000a0d
    69c4:	2041544f 	.word	0x2041544f
    69c8:	4946203a 	.word	0x4946203a
    69cc:	41574d52 	.word	0x41574d52
    69d0:	55204552 	.word	0x55204552
    69d4:	54414450 	.word	0x54414450
    69d8:	53492045 	.word	0x53492045
    69dc:	544f4e20 	.word	0x544f4e20
    69e0:	52455020 	.word	0x52455020
    69e4:	4d524f46 	.word	0x4d524f46
    69e8:	002e4445 	.word	0x002e4445
    69ec:	41544f46 	.word	0x41544f46
    69f0:	49203a20 	.word	0x49203a20
    69f4:	4154534e 	.word	0x4154534e
    69f8:	44454c4c 	.word	0x44454c4c
    69fc:	52494620 	.word	0x52494620
    6a00:	5241574d 	.word	0x5241574d
    6a04:	414d2045 	.word	0x414d2045
    6a08:	45484354 	.word	0x45484354
    6a0c:	49572053 	.word	0x49572053
    6a10:	46204854 	.word	0x46204854
    6a14:	574d5249 	.word	0x574d5249
    6a18:	20455241 	.word	0x20455241
    6a1c:	4d4f5246 	.word	0x4d4f5246
    6a20:	52494120 	.word	0x52494120
    6a24:	4e415620 	.word	0x4e415620
    6a28:	45474154 	.word	0x45474154
    6a2c:	52455320 	.word	0x52455320
    6a30:	2e524556 	.word	0x2e524556
    6a34:	46000a0d 	.word	0x46000a0d
    6a38:	2041544f 	.word	0x2041544f
    6a3c:	5553203a 	.word	0x5553203a
    6a40:	53454343 	.word	0x53454343
    6a44:	4c554653 	.word	0x4c554653
    6a48:	4920594c 	.word	0x4920594c
    6a4c:	4154534e 	.word	0x4154534e
    6a50:	44454c4c 	.word	0x44454c4c
    6a54:	45485420 	.word	0x45485420
    6a58:	574f4420 	.word	0x574f4420
    6a5c:	414f4c4e 	.word	0x414f4c4e
    6a60:	20444544 	.word	0x20444544
    6a64:	4d524946 	.word	0x4d524946
    6a68:	45524157 	.word	0x45524157
    6a6c:	4f46002e 	.word	0x4f46002e
    6a70:	3a204154 	.word	0x3a204154
    6a74:	42455220 	.word	0x42455220
    6a78:	49544f4f 	.word	0x49544f4f
    6a7c:	5420474e 	.word	0x5420474e
    6a80:	44204548 	.word	0x44204548
    6a84:	43495645 	.word	0x43495645
    6a88:	46412045 	.word	0x46412045
    6a8c:	20524554 	.word	0x20524554
    6a90:	55532041 	.word	0x55532041
    6a94:	53454343 	.word	0x53454343
    6a98:	4c554653 	.word	0x4c554653
    6a9c:	52494620 	.word	0x52494620
    6aa0:	5241574d 	.word	0x5241574d
    6aa4:	4e492045 	.word	0x4e492045
    6aa8:	4c415453 	.word	0x4c415453
    6aac:	4954414c 	.word	0x4954414c
    6ab0:	0d2e4e4f 	.word	0x0d2e4e4f
    6ab4:	4f46000a 	.word	0x4f46000a
    6ab8:	3a204154 	.word	0x3a204154
    6abc:	52494620 	.word	0x52494620
    6ac0:	5241574d 	.word	0x5241574d
    6ac4:	53492045 	.word	0x53492045
    6ac8:	41564120 	.word	0x41564120
    6acc:	42414c49 	.word	0x42414c49
    6ad0:	4620454c 	.word	0x4620454c
    6ad4:	4420524f 	.word	0x4420524f
    6ad8:	4c4e574f 	.word	0x4c4e574f
    6adc:	2e44414f 	.word	0x2e44414f
    6ae0:	46000a0d 	.word	0x46000a0d
    6ae4:	2041544f 	.word	0x2041544f
    6ae8:	4946203a 	.word	0x4946203a
    6aec:	41574d52 	.word	0x41574d52
    6af0:	49204552 	.word	0x49204552
    6af4:	4f442053 	.word	0x4f442053
    6af8:	4f4c4e57 	.word	0x4f4c4e57
    6afc:	44454441 	.word	0x44454441
    6b00:	444e4120 	.word	0x444e4120
    6b04:	4f545320 	.word	0x4f545320
    6b08:	20444552 	.word	0x20444552
    6b0c:	46204e49 	.word	0x46204e49
    6b10:	4853414c 	.word	0x4853414c
    6b14:	000a0d2e 	.word	0x000a0d2e
    6b18:	41544f46 	.word	0x41544f46
    6b1c:	44203a20 	.word	0x44203a20
    6b20:	4c4e574f 	.word	0x4c4e574f
    6b24:	4544414f 	.word	0x4544414f
    6b28:	41502044 	.word	0x41502044
    6b2c:	47414b43 	.word	0x47414b43
    6b30:	53492045 	.word	0x53492045
    6b34:	52455620 	.word	0x52455620
    6b38:	45494649 	.word	0x45494649
    6b3c:	53412044 	.word	0x53412044
    6b40:	52454320 	.word	0x52454320
    6b44:	49464954 	.word	0x49464954
    6b48:	0d2e4445 	.word	0x0d2e4445
    6b4c:	4f46000a 	.word	0x4f46000a
    6b50:	3a204154 	.word	0x3a204154
    6b54:	534e4920 	.word	0x534e4920
    6b58:	4c4c4154 	.word	0x4c4c4154
    6b5c:	20474e49 	.word	0x20474e49
    6b60:	20454854 	.word	0x20454854
    6b64:	4e574f44 	.word	0x4e574f44
    6b68:	44414f4c 	.word	0x44414f4c
    6b6c:	46204445 	.word	0x46204445
    6b70:	574d5249 	.word	0x574d5249
    6b74:	2e455241 	.word	0x2e455241
    6b78:	4c502e2e 	.word	0x4c502e2e
    6b7c:	45534145 	.word	0x45534145
    6b80:	49415720 	.word	0x49415720
    6b84:	2e2e2e54 	.word	0x2e2e2e54
    6b88:	46000a0d 	.word	0x46000a0d
    6b8c:	2041544f 	.word	0x2041544f
    6b90:	5453203a 	.word	0x5453203a
    6b94:	49545241 	.word	0x49545241
    6b98:	5420474e 	.word	0x5420474e
    6b9c:	46204548 	.word	0x46204548
    6ba0:	574d5249 	.word	0x574d5249
    6ba4:	20455241 	.word	0x20455241
    6ba8:	41445055 	.word	0x41445055
    6bac:	0d2e4554 	.word	0x0d2e4554
    6bb0:	4f46000a 	.word	0x4f46000a
    6bb4:	3a204154 	.word	0x3a204154
    6bb8:	49414620 	.word	0x49414620
    6bbc:	2044454c 	.word	0x2044454c
    6bc0:	55204f54 	.word	0x55204f54
    6bc4:	54414450 	.word	0x54414450
    6bc8:	48542045 	.word	0x48542045
    6bcc:	49462045 	.word	0x49462045
    6bd0:	41574d52 	.word	0x41574d52
    6bd4:	002e4552 	.word	0x002e4552
    6bd8:	41544f46 	.word	0x41544f46
    6bdc:	52203a20 	.word	0x52203a20
    6be0:	4f4f4245 	.word	0x4f4f4245
    6be4:	474e4954 	.word	0x474e4954
    6be8:	45485420 	.word	0x45485420
    6bec:	56454420 	.word	0x56454420
    6bf0:	20454349 	.word	0x20454349
    6bf4:	45544641 	.word	0x45544641
    6bf8:	20412052 	.word	0x20412052
    6bfc:	4c494146 	.word	0x4c494146
    6c00:	41204445 	.word	0x41204445
    6c04:	4d455454 	.word	0x4d455454
    6c08:	4f205450 	.word	0x4f205450
    6c0c:	49462046 	.word	0x49462046
    6c10:	41574d52 	.word	0x41574d52
    6c14:	49204552 	.word	0x49204552
    6c18:	4154534e 	.word	0x4154534e
    6c1c:	54414c4c 	.word	0x54414c4c
    6c20:	2e4e4f49 	.word	0x2e4e4f49
    6c24:	46000a0d 	.word	0x46000a0d
    6c28:	2041544f 	.word	0x2041544f
    6c2c:	4f44203a 	.word	0x4f44203a
    6c30:	4f4c4e57 	.word	0x4f4c4e57
    6c34:	4e494441 	.word	0x4e494441
    6c38:	48542047 	.word	0x48542047
    6c3c:	49462045 	.word	0x49462045
    6c40:	41574d52 	.word	0x41574d52
    6c44:	46204552 	.word	0x46204552
    6c48:	204d4f52 	.word	0x204d4f52
    6c4c:	20524941 	.word	0x20524941
    6c50:	544e4156 	.word	0x544e4156
    6c54:	20454741 	.word	0x20454741
    6c58:	56524553 	.word	0x56524553
    6c5c:	2e2e5245 	.word	0x2e2e5245
    6c60:	454c502e 	.word	0x454c502e
    6c64:	20455341 	.word	0x20455341
    6c68:	54494157 	.word	0x54494157
    6c6c:	0d2e2e2e 	.word	0x0d2e2e2e
    6c70:	7245000a 	.word	0x7245000a
    6c74:	3a726f72 	.word	0x3a726f72
    6c78:	69614620 	.word	0x69614620
    6c7c:	2064656c 	.word	0x2064656c
    6c80:	73206f74 	.word	0x73206f74
    6c84:	20746e65 	.word	0x20746e65
    6c88:	64205746 	.word	0x64205746
    6c8c:	6c6e776f 	.word	0x6c6e776f
    6c90:	2064616f 	.word	0x2064616f
    6c94:	65636361 	.word	0x65636361
    6c98:	6e617470 	.word	0x6e617470
    6c9c:	74206563 	.word	0x74206563
    6ca0:	7854206f 	.word	0x7854206f
    6ca4:	73615420 	.word	0x73615420
    6ca8:	4f46006b 	.word	0x4f46006b
    6cac:	3a204154 	.word	0x3a204154
    6cb0:	63634120 	.word	0x63634120
    6cb4:	65747065 	.word	0x65747065
    6cb8:	68742064 	.word	0x68742064
    6cbc:	65722065 	.word	0x65722065
    6cc0:	73657571 	.word	0x73657571
    6cc4:	6f662074 	.word	0x6f662074
    6cc8:	69662072 	.word	0x69662072
    6ccc:	61776d72 	.word	0x61776d72
    6cd0:	44206572 	.word	0x44206572
    6cd4:	6c6e776f 	.word	0x6c6e776f
    6cd8:	2064616f 	.word	0x2064616f
    6cdc:	20646e61 	.word	0x20646e61
    6ce0:	746e6573 	.word	0x746e6573
    6ce4:	65687420 	.word	0x65687420
    6ce8:	6b636120 	.word	0x6b636120
    6cec:	6c776f6e 	.word	0x6c776f6e
    6cf0:	6d676465 	.word	0x6d676465
    6cf4:	20746e65 	.word	0x20746e65
    6cf8:	41206f74 	.word	0x41206f74
    6cfc:	61767269 	.word	0x61767269
    6d00:	6761746e 	.word	0x6761746e
    6d04:	65732065 	.word	0x65732065
    6d08:	72657672 	.word	0x72657672
    6d0c:	72724500 	.word	0x72724500
    6d10:	203a726f 	.word	0x203a726f
    6d14:	6c696146 	.word	0x6c696146
    6d18:	74206465 	.word	0x74206465
    6d1c:	6573206f 	.word	0x6573206f
    6d20:	4620746e 	.word	0x4620746e
    6d24:	6e692057 	.word	0x6e692057
    6d28:	6c617473 	.word	0x6c617473
    6d2c:	6361206c 	.word	0x6361206c
    6d30:	74706563 	.word	0x74706563
    6d34:	65636e61 	.word	0x65636e61
    6d38:	206f7420 	.word	0x206f7420
    6d3c:	54207854 	.word	0x54207854
    6d40:	006b7361 	.word	0x006b7361
    6d44:	41544f46 	.word	0x41544f46
    6d48:	41203a20 	.word	0x41203a20
    6d4c:	70656363 	.word	0x70656363
    6d50:	20646574 	.word	0x20646574
    6d54:	20656874 	.word	0x20656874
    6d58:	75716572 	.word	0x75716572
    6d5c:	20747365 	.word	0x20747365
    6d60:	20726f66 	.word	0x20726f66
    6d64:	6d726966 	.word	0x6d726966
    6d68:	65726177 	.word	0x65726177
    6d6c:	736e4920 	.word	0x736e4920
    6d70:	6c6c6174 	.word	0x6c6c6174
    6d74:	6f697461 	.word	0x6f697461
    6d78:	6e61206e 	.word	0x6e61206e
    6d7c:	65732064 	.word	0x65732064
    6d80:	7420746e 	.word	0x7420746e
    6d84:	61206568 	.word	0x61206568
    6d88:	6f6e6b63 	.word	0x6f6e6b63
    6d8c:	64656c77 	.word	0x64656c77
    6d90:	6e656d67 	.word	0x6e656d67
    6d94:	6f742074 	.word	0x6f742074
    6d98:	72694120 	.word	0x72694120
    6d9c:	746e6176 	.word	0x746e6176
    6da0:	20656761 	.word	0x20656761
    6da4:	76726573 	.word	0x76726573
    6da8:	46007265 	.word	0x46007265
    6dac:	2041544f 	.word	0x2041544f
    6db0:	5453203a 	.word	0x5453203a
    6db4:	49545241 	.word	0x49545241
    6db8:	5520474e 	.word	0x5520474e
    6dbc:	48542050 	.word	0x48542050
    6dc0:	49462045 	.word	0x49462045
    6dc4:	41574d52 	.word	0x41574d52
    6dc8:	49204552 	.word	0x49204552
    6dcc:	4154534e 	.word	0x4154534e
    6dd0:	54414c4c 	.word	0x54414c4c
    6dd4:	2e4e4f49 	.word	0x2e4e4f49
    6dd8:	45000a0d 	.word	0x45000a0d
    6ddc:	726f7272 	.word	0x726f7272
    6de0:	4f46203a 	.word	0x4f46203a
    6de4:	74204154 	.word	0x74204154
    6de8:	72656d69 	.word	0x72656d69
    6dec:	746f6e20 	.word	0x746f6e20
    6df0:	61747320 	.word	0x61747320
    6df4:	64657472 	.word	0x64657472
    6df8:	6552202e 	.word	0x6552202e
    6dfc:	746f6f62 	.word	0x746f6f62
    6e00:	20676e69 	.word	0x20676e69
    6e04:	20656874 	.word	0x20656874
    6e08:	74737973 	.word	0x74737973
    6e0c:	2e2e6d65 	.word	0x2e2e6d65
    6e10:	002e      	.short	0x002e
    6e12:	6553      	.short	0x6553
    6e14:	7463656c 	.word	0x7463656c
    6e18:	6e694c20 	.word	0x6e694c20
    6e1c:	6f4c2065 	.word	0x6f4c2065
    6e20:	2d202077 	.word	0x2d202077
    6e24:	726f5020 	.word	0x726f5020
    6e28:	00000074 	.word	0x00000074

00006e2c <ModemCmdData>:
    6e2c:	00000300 00008028 00000000 00002591     ....(........%..
    6e3c:	00000000 00000001 00007309 00020003     .........s......
    6e4c:	00002591 00000009 00000002 0000730d     .%...........s..
    6e5c:	000f0008 00002591 0000001b 00000003     .....%..........
    6e6c:	00007316 000e000c 00002591 0000001e     .s.......%......
    6e7c:	00000004 00007323 000c0008 00002591     ....#s.......%..
    6e8c:	00000018 00000005 0000732c 00080005     ........,s......
    6e9c:	00002591 00000011 00000006 00007336     .%..........6s..
    6eac:	000b000a 00002591 00000019 00000007     .....%..........
    6ebc:	00007341 0015000a 00002591 00000023     As.......%..#...
    6ecc:	00000008 0000734c 00020005 00002591     ....Ls.......%..
    6edc:	0000000b 00000109 00007352 003d0027     ........Rs..'.=.
    6eec:	00002591 00000068 0000010a 0000737a     .%..h.......zs..
    6efc:	00020012 00002591 00000018 0000010b     .....%..........
    6f0c:	0000738d 00020012 00002591 00000018     .s.......%......
    6f1c:	0000010c 000073a0 00020012 00002591     .....s.......%..
    6f2c:	00000018 0000010d 000073b3 00020012     .........s......
    6f3c:	00002591 00000018 0000010e 000073c6     .%...........s..
    6f4c:	00020012 00002591 00000018 0000010f     .....%..........
    6f5c:	000073d9 00020012 00002591 00000018     .s.......%......
    6f6c:	00000110 000073ec 00020012 00002591     .....s.......%..
    6f7c:	00000018 00000111 000073ff 00020012     .........s......
    6f8c:	00002591 00000018 00000112 00007412     .%...........t..
    6f9c:	00020012 00002591 00000018 00000113     .....%..........
    6fac:	00007425 00020013 00002591 00000019     %t.......%......
    6fbc:	00000114 00007439 0002001f 00002591     ....9t.......%..
    6fcc:	00000025 00000115 20000021 00020023     %.......!.. #...
    6fdc:	00002591 00000029 00000116 00007459     .%..).......Yt..
    6fec:	0002001a 00002591 00000020 00000117     .....%.. .......
    6ffc:	20000001 00070011 00002591 0000001c     ... .....%......
    700c:	00000118 200002b2 00bf003a 00002591     ....... :....%..
    701c:	000000fd 00000119 00007474 00020010     ........tt......
    702c:	00002591 00000016 0000011a 00007485     .%...........t..
    703c:	00020010 00002591 00000016 0000011b     .....%..........
    704c:	00007496 0002000b 00002591 00000011     .t.......%......
    705c:	0000011c 000074a2 00b8000c 00002591     .....t.......%..
    706c:	000000c8 0000011d 000074af 0002000e     .........t......
    707c:	00002591 00000014 0000021e 000074be     .%...........t..
    708c:	00020018 00002591 0000001e 0000021f     .....%..........
    709c:	000074d7 0002000c 00002591 00000012     .t.......%......
    70ac:	00000220 000074e4 0002000d 00002591      ....t.......%..
    70bc:	00000013 00000221 000074f2 0002000c     ....!....t......
    70cc:	00002591 00000012 00000222 000074ff     .%......"....t..
    70dc:	0002000c 00002591 00000012 00000223     .....%......#...
    70ec:	0000750c 0002000a 00002591 00000010     .u.......%......
    70fc:	00000224 00007517 0002000a 00002591     $....u.......%..
    710c:	00000010 00000000 00000000 00000000     ................
	...
    72dc:	3d693f22 39393533 37303839 38323230     "?i=359998070228
    72ec:	26343637 31413d64 58323559 33593241     764&d=A1Y52XA2Y3
    72fc:	3d622636 73263633 0d22323d 0d544100     6&b=36&s=2"..AT.
    730c:	2b544100 4e534743 5441000d 4143572b     .AT+CGSN..AT+WCA
    731c:	45495252 41000d52 50492b54 000d3f52     RRIER..AT+IPR?..
    732c:	432b5441 3f4e4950 5441000d 5247432b     AT+CPIN?..AT+CGR
    733c:	0d3f4745 2b544100 4e53474b 000d333d     EG?..AT+KGSN=3..
    734c:	31455441 5441000d 54484b2b 46435054     ATE1..AT+KHTTPCF
    735c:	2c333d47 676e6922 31747365 7365722e     G=3,"ingest1.res
    736c:	736e6f70 6c632e65 2264756f 5441000d     ponse.cloud"..AT
    737c:	54484b2b 4c435054 3d45534f 0d302c31     +KHTTPCLOSE=1,0.
    738c:	2b544100 5454484b 4f4c4350 323d4553     .AT+KHTTPCLOSE=2
    739c:	000d302c 4b2b5441 50545448 534f4c43     ,0..AT+KHTTPCLOS
    73ac:	2c333d45 41000d30 484b2b54 43505454     E=3,0..AT+KHTTPC
    73bc:	45534f4c 302c343d 5441000d 54484b2b     LOSE=4,0..AT+KHT
    73cc:	4c435054 3d45534f 0d302c35 2b544100     TPCLOSE=5,0..AT+
    73dc:	5454484b 4f4c4350 363d4553 000d302c     KHTTPCLOSE=6,0..
    73ec:	4b2b5441 50545448 534f4c43 2c373d45     AT+KHTTPCLOSE=7,
    73fc:	41000d30 484b2b54 43505454 45534f4c     0..AT+KHTTPCLOSE
    740c:	302c383d 5441000d 54484b2b 4c435054     =8,0..AT+KHTTPCL
    741c:	3d45534f 0d302c39 2b544100 5454484b     OSE=9,0..AT+KHTT
    742c:	4f4c4350 313d4553 0d302c30 2b544100     PCLOSE=10,0..AT+
    743c:	5441504b 4e524554 2d2d223d 2d464f45     KPATTERN="--EOF-
    744c:	7461502d 6e726574 0d222d2d 2b544100     -Pattern--"..AT+
    745c:	584e434b 454d4954 2c333d52 322c3036     KCNXTIMER=3,60,2
    746c:	2c30372c 000d3036 4f452d2d 502d2d46     ,70,60..--EOF--P
    747c:	65747461 2d2d6e72 2b544100 584e434b     attern--.AT+KCNX
    748c:	4e574f44 312c333d 5441000d 4147432b     DOWN=3,1..AT+CGA
    749c:	303d5454 5441000d 4447432b 544e4f43     TT=0..AT+CGDCONT
    74ac:	41000d3f 4d572b54 53544e41 313d4c45     ?..AT+WMANTSEL=1
    74bc:	5441000d 5344572b 2c303d53 575a5622     ..AT+WDSS=0,"VZW
    74cc:	45544e49 54454e52 41000d22 44572b54     INTERNET"..AT+WD
    74dc:	313d5353 000d312c 572b5441 3d495344     SS=1,1..AT+WDSI=
    74ec:	31393138 5441000d 5344572b 2c313d43     8191..AT+WDSC=1,
    74fc:	41000d31 44572b54 323d4353 000d312c     1..AT+WDSC=2,1..
    750c:	572b5441 3d525344 41000d33 44572b54     AT+WDSR=3..AT+WD
    751c:	343d5253 7245000d 3a726f72 61654820     SR=4..Error: Hea
    752c:	6c612070 61636f6c 6e6f6974 726f6620     p allocation for
    753c:	72617020 64206573 20617461 66667562      parse data buff
    754c:	66207265 656c6961 72450064 3a726f72     er failed.Error:
    755c:	746f4e20 6c626120 6f742065 72657620      Not able to ver
    756c:	20796669 20656874 6d6d6f63 20646e61     ify the command 
    757c:	69727473 6420676e 6e697275 61702067     string during pa
    758c:	6e697372 72450067 3a726f72 746f4e20     rsing.Error: Not
    759c:	6c626120 6f742065 61657220 61642064      able to read da
    75ac:	66206174 206d6f72 65636572 20657669     ta from receive 
    75bc:	676e6972 66756220 20726566 69727564     ring buffer duri
    75cc:	7020676e 65737261 72450072 3a726f72     ng parser.Error:
    75dc:	61654820 6c612070 61636f6c 6e6f6974      Heap allocation
    75ec:	726f6620 73657220 736e6f70 61642065      for response da
    75fc:	62206174 65666675 61662072 64656c69     ta buffer failed
    760c:	6e6f4300 7463656e 206e6f69 74206f74     .Connection to t
    761c:	73206568 65767265 73692072 736f6c20     he server is los
    762c:	2e2e2e74 54002e2e 6e697972 6f742067     t......Trying to
    763c:	74736520 696c6261 74206873 63206568      establish the c
    764c:	656e6e6f 6f697463 6f74206e 72657320     onnection to ser
    765c:	2e726576 6c502e2e 65736165 69617720     ver...Please wai
    766c:	2e2e2e74 0d2e2e2e 6146000a 64656c69     t.........Failed
    767c:	206f7420 746e6573 65687420 73655320      to sent the Ses
    768c:	6e6f6973 6f6c4320 72206573 65757165     sion Close reque
    769c:	74207473 7854206f 73615420 6f4e006b     st to Tx Task.No
    76ac:	726f4d20 63412065 65766974 6e6f4320      More Active Con
    76bc:	7463656e 736e6f69 206f7420 736f6c63     nections to clos
    76cc:	6c430065 6465736f 6c6c4120 74634120     e.Closed All Act
    76dc:	20657669 6e6e6f43 69746365 00736e6f     ive Connections.
    76ec:	756f7242 20746867 20656874 20504450     Brought the PDP 
    76fc:	6e6e6f63 69746365 44206e6f 004e574f     connection DOWN.
    770c:	6c696146 74206465 6573206f 7420746e     Failed to sent t
    771c:	50206568 65442053 68636174 71657220     he PS Detach req
    772c:	74736575 206f7420 54207854 006b7361     uest to Tx Task.
    773c:	61746544 64656863 65687420 50445020     Detached the PDP
    774c:	00535020 656c6544 20646574 206c6c61      PS.Deleted all 
    775c:	7420666f 70206568 69766572 2073756f     of the previous 
    776c:	6e6e6f63 69746365 63206e6f 69666e6f     connection confi
    777c:	61727567 6e6f6974 61460073 64656c69     gurations.Failed
    778c:	206f7420 746e6573 74657320 656e6120      to sent set ane
    779c:	6e6e6574 65722061 73657571 6f742074     tenna request to
    77ac:	20785420 6b736154 74655300 65687420      Tx Task.Set the
    77bc:	49414d20 6e61204e 6e6e6574 6f662061      MAIN antenna fo
    77cc:	544c2072 61460045 64656c69 206f7420     r LTE.Failed to 
    77dc:	746e6573 65687420 464f4520 74617020     sent the EOF pat
    77ec:	6e726574 206f7420 54207854 006b7361     tern to Tx Task.
    77fc:	20464f45 74746150 206e7265 666e6f63     EOF Pattern conf
    780c:	72756769 46006465 656c6961 6f742064     igured.Failed to
    781c:	6e657320 68742074 65722065 65697274      sent the retrie
    782c:	41206576 63204e50 616d6d6f 7420646e     ve APN command t
    783c:	7854206f 73615420 6552006b 65697274     o Tx Task.Retrie
    784c:	20646576 204e5041 69727473 4600676e     ved APN string.F
    785c:	656c6961 6f742064 6e657320 63612074     ailed to sent ac
    786c:	73736563 696f7020 6320746e 7420646d     cess point cmd t
    787c:	7854206f 73615420 6341006b 73736563     o Tx Task.Access
    788c:	696f5020 6320746e 69666e6f 65727567      Point configure
    789c:	61460064 64656c69 206f7420 746e6573     d.Failed to sent
    78ac:	6e6f6320 7463656e 206e6f69 656d6974      connection time
    78bc:	6d632072 6f742064 20785420 6b736154     r cmd to Tx Task
    78cc:	6e6f4300 7463656e 206e6f69 656d6954     .Connection Time
    78dc:	63207372 69666e6f 65727567 6f430064     rs configured.Co
    78ec:	63656e6e 6e6f6974 61745320 20737574     nnection Status 
    78fc:	4944203a 4e4f4353 5443454e 44204445     : DISCONNECTED D
    790c:	54204555 454e204f 524f5754 6f43004b     UE TO NETWORK.Co
    791c:	63656e6e 6e6f6974 61745320 20737574     nnection Status 
    792c:	4f43203a 43454e4e 00444554 6e6e6f43     : CONNECTED.Conn
    793c:	69746365 73206e6f 65636375 75667373     ection successfu
    794c:	2e2e2e6c 756f6c43 65532064 72657672     l...Cloud Server
    795c:	6e6f6320 75676966 00646572 6e6e6f43      configured.Conn
    796c:	69746365 53206e6f 75746174 203a2073     ection Status : 
    797c:	4c494146 54204445 4f43204f 43454e4e     FAILED TO CONNEC
    798c:	6f430054 63656e6e 6e6f6974 61745320     T.Connection Sta
    799c:	20737574 4f43203a 43454e4e 4e4f4954     tus : CONNECTION
    79ac:	4f4c4320 00444553 6e6e6f43 69746365      CLOSED.Connecti
    79bc:	53206e6f 75746174 203a2073 4e4e4f43     on Status : CONN
    79cc:	49544345 49204e4f 5250204e 4552474f     ECTION IN PROGRE
    79dc:	43005353 656e6e6f 6f697463 7453206e     SS.Connection St
    79ec:	73757461 49203a20 20454c44 454d4954     atus : IDLE TIME
    79fc:	54532052 45545241 4f462044 49442052     R STARTED FOR DI
    7a0c:	4e4f4353 5443454e 004e4f49 6e6e6f43     SCONNECTION.Conn
    7a1c:	69746365 53206e6f 75746174 203a2073     ection Status : 
    7a2c:	454c4449 4d495420 43205245 45434e41     IDLE TIMER CANCE
    7a3c:	44454c4c 72724500 3a20726f 6e6f4320     LLED.Error : Con
    7a4c:	7463656e 206e6f69 6c696146 00657275     nection Failure.
    7a5c:	74736552 69747261 7420676e 63206568     Restarting the c
    7a6c:	656e6e6f 6f697463 6e69206e 61697469     onnection initia
    7a7c:	617a696c 6e6f6974 002e2e2e 736f6c43     lization....Clos
    7a8c:	20676e69 69746341 43206576 656e6e6f     ing Active Conne
    7a9c:	6f697463 4300736e 454e4e4f 0a0d5443     ctions.CONNECT..
    7aac:	50545448 312e312f 30303220 004b4f20     HTTP/1.1 200 OK.
    7abc:	6f430a0d 63656e6e 6e6f6974 746e6920     ..Connection int
    7acc:	75727265 64657470 502e2e2e 6f667265     errupted...Perfo
    7adc:	6e696d72 68742067 72452065 20726f72     rming the Error 
    7aec:	6f636552 79726576 2e2e2e2e 43000a0d     Recovery.......C
    7afc:	69736f6c 7420676e 61206568 76697463     losing the activ
    7b0c:	6f632065 63656e6e 6e6f6974 6f725000     e connection.Pro
    7b1c:	6d656c62 206e6920 6f747541 63655220     blem in Auto Rec
    7b2c:	7265766f 54002e79 6e697972 6f742067     overy..Trying to
    7b3c:	2d657220 61747365 73696c62 68742068      re-establish th
    7b4c:	6f632065 63656e6e 6e6f6974 72687420     e connection thr
    7b5c:	6867756f 6d206120 6d65646f 73657220     ough a modem res
    7b6c:	74726174 2e2e2e2e 4d000a0d 6d697861     tart.......Maxim
    7b7c:	72206d75 79727465 756f6320 6620746e     um retry count f
    7b8c:	6120726f 206f7475 6f636572 79726576     or auto recovery
    7b9c:	20736920 69707865 2e646572 79725400      is expired..Try
    7bac:	20676e69 72206f74 73652d65 6c626174     ing to re-establ
    7bbc:	20687369 20656874 6e6e6f63 69746365     ish the connecti
    7bcc:	74206e6f 756f7268 61206867 6f687720     on through a who
    7bdc:	7320656c 65747379 6572206d 72617473     le system restar
    7bec:	2e2e2e74 000a0d2e 6f727245 65522072     t.......Error Re
    7bfc:	65766f63 43207972 6c706d6f 64657465     covery Completed
    7c0c:	3d000a0d 3d3d3d3d 3d3d3d3d 3d3d3d3d     ...=============
    7c1c:	3d3d3d3d 3d3d3d3d 3d3d3d3d 3d3d3d3d     ================
    7c2c:	3d3d3d3d 3d3d3d3d 3d3d3d3d 3d3d3d3d     ================
    7c3c:	3d3d3d3d 45000a0d 62617473 6873696c     ====...Establish
    7c4c:	20676e69 656e2061 6f632077 63656e6e     ing a new connec
    7c5c:	6e6f6974 74697720 65732068 72657672     tion with server
    7c6c:	73795300 206d6574 61207369 206f7475     .System is auto 
    7c7c:	6f636572 65726576 6f662064 6f6d2072     recovered for mo
    7c8c:	74206572 206e6168 69742033 2e73656d     re than 3 times.
    7c9c:	72655000 6d726f66 20676e69 79732061     .Performing a sy
    7cac:	6d657473 73657220 74726174 2e2e2e2e     stem restart....
    7cbc:	2e2e2e2e 2e2e2e2e 2e2e2e2e 2e2e2e2e     ................
    7ccc:	50000a0d 6f667265 6e696d72 6f662067     ...Performing fo
    7cdc:	64656372 72726520 7220726f 766f6365     rced error recov
    7cec:	2e797265 0d2e2e2e 6146000a 64656c69     ery.......Failed
    7cfc:	206f7420 746e6573 65687420 61694420      to sent the Dia
    7d0c:	61642067 74206174 7854206f 73615420     g data to Tx Tas
    7d1c:	6556006b 79666972 20676e69 20656874     k.Verifying the 
    7d2c:	54524155 6e694c20 7473206b 73757461     UART Link status
    7d3c:	74697720 6f4d2068 006d6564 63637553      with Modem.Succ
    7d4c:	46737365 796c6c75 72657620 65696669     essFully verifie
    7d5c:	68742064 41552065 4c205452 206b6e69     d the UART Link 
    7d6c:	77746562 206e6565 444d4153 43203135     between SAMD51 C
    7d7c:	72746e6f 656c6c6f 20262072 65646f4d     ontroller & Mode
    7d8c:	6552006d 65697274 20646576 20656874     m.Retrieved the 
    7d9c:	65646f4d 4d49206d 4e204945 65626d75     Modem IMEI Numbe
    7dac:	65520072 65697274 20646576 20656874     r.Retrieved the 
    7dbc:	65646f4d 6573206d 6c616972 6d754e20     Modem serial Num
    7dcc:	00726562 74736f48 6f725020 73736563     ber.Host Process
    7ddc:	6120726f 4d20646e 6d65646f 65726120     or and Modem are
    7dec:	63757320 73736563 6c6c7566 6e692079      successfully in
    7dfc:	61697469 657a696c 2e2e2e64 48000a0d     itialized......H
    7e0c:	6c72756f 79532079 6d657473 73655220     ourly System Res
    7e1c:	74726174 6d697420 65207265 72697078     tart timer expir
    7e2c:	202e6465 6f626552 6e69746f 68742067     ed. Rebooting th
    7e3c:	79732065 6d657473 000a0d2e 72756f48     e system....Hour
    7e4c:	7953796c 6d657473 74736552 54747261     lySystemRestartT
    7e5c:	72656d69 63615000 5474656b 736e6172     imer.PacketTrans
    7e6c:	5074696d 6f697265 54636964 72656d69     mitPeriodicTimer
    7e7c:	69614600 2064656c 69206f74 6974696e     .Failed to initi
    7e8c:	7a696c61 68742065 6f6d2065 206d6564     alize the modem 
    7e9c:	656d6974 202e7372 6f626552 6e69746f     timers. Rebootin
    7eac:	68742067 79732065 6d657473 69614600     g the system.Fai
    7ebc:	2064656c 70206f74 2074736f 20656874     led to post the 
    7ecc:	6e6e6f63 69746365 52206e6f 6f707365     connection Respo
    7edc:	2065736e 51206f74 65756575 72724500     nse to Queue.Err
    7eec:	3a20726f 6d6f4320 646e616d 73655220     or : Command Res
    7efc:	736e6f70 75512065 20657565 6e207369     ponse Queue is n
    7f0c:	6520746f 7974706d 69614600 2064656c     ot empty.Failed 
    7f1c:	70206f74 2074736f 20656874 6e6e6f63     to post the conn
    7f2c:	69746365 52206e6f 6f707365 2065736e     ection Response 
    7f3c:	46206f74 2061746f 75657551 52450065     to Fota Queue.ER
    7f4c:	3a524f52 63655220 65766965 6e612064     ROR: Received an
    7f5c:	706d6520 72207974 6f707365 2065736e      empty response 
    7f6c:	69727473 6920676e 6f63206e 6e616d6d     string in comman
    7f7c:	65722064 6e6f7073 68206573 6c646e61     d response handl
    7f8c:	45007265 524f5252 6f43203a 6e616d6d     er.ERROR: Comman
    7f9c:	61502064 6e697372 61462067 64656c69     d Parsing Failed
    7fac:	4e0a0d00 6120746f 20656c62 61206f74     ...Not able to a
    7fbc:	206f7475 6f636572 20726576 6d6f7266     uto recover from
    7fcc:	6e6f6320 7463656e 206e6f69 6c696166      connection fail
    7fdc:	2e657275 65522e2e 746f6f62 2e676e69     ure...Rebooting.
    7fec:	002e2e2e 73207854 61697265 6544206c     ....Tx serial De
    7ffc:	20677562 656e6f44 52000a0d 6f442078     bug Done...Rx Do
    800c:	0a0d656e 20732500 6425202d 000a0d20     ne...%s - %d ...
    801c:	2d207325 6d642520 0a0d2056 232a2300     %s - %dmV ...#*#
    802c:	232a232a 232a232a 232a232a 232a232a     *#*#*#*#*#*#*#*#
    803c:	232a232a 232a232a 232a232a 232a232a     *#*#*#*#*#*#*#*#
    804c:	232a232a 232a232a 232a232a 232a232a     *#*#*#*#*#*#*#*#
    805c:	232a232a 232a232a 232a232a 232a232a     *#*#*#*#*#*#*#*#
    806c:	232a232a 6e55002a 65707865 64657463     *#*#*.Unexpected
    807c:	746e4920 75727265 48207470 65707061      Interrupt Happe
    808c:	2e64656e 61572e2e 6e697469 6f662067     ned...Waiting fo
    809c:	68742072 61772065 20686374 20676f64     r the watch dog 
    80ac:	656d6974 0074756f                       timeout.

000080b4 <_adcs>:
    80b4:	00c00000 00030009 02481980 00000000     ..........H.....
    80c4:	00000000 00010001 00000000 00000000     ................
	...

000080e0 <_cfgs>:
	...
    81e0:	40003000 40003400 41012000 41014000     .0.@.4.@. .A.@.A
    81f0:	43000000 43000400                       ...C...C

000081f8 <_usarts>:
    81f8:	00000003 40200004 00030000 00700002     ...... @......p.
    8208:	0000f62b 00000000 00000004 40300184     +.............0@
    8218:	00030300 00700002 0000ff2e 00000000     ......p.........
    8228:	00000005 40300004 00030000 00700002     ......0@......p.
    8238:	0000f62b 00000000                       +.......

00008240 <_i2cms>:
	...
    8258:	736e6553 6154726f 4d006b73 6d65646f     SensorTask.Modem
    8268:	61547854 4d006b73 6d65646f 61547852     TxTask.ModemRxTa
    8278:	4d006b73 6d65646f 636f7250 54737365     sk.ModemProcessT
    8288:	006b7361 65646f4d 6169446d 73615467     ask.ModemDiagTas
    8298:	6f46006b 70416174 73615470 7246006b     k.FotaAppTask.Fr
    82a8:	52206565 20534f54 65686353 656c7564     ee RTOS Schedule
    82b8:	6f6e2072 74732074 65747261 61460064     r not started.Fa
    82c8:	64656c69 206f7420 61657263 74206574     iled to create t
    82d8:	736b7361 72724500 203a726f 65686353     asks.Error: Sche
    82e8:	656c7564 78652072 64657469 4c444900     duler exited.IDL
    82f8:	25090045 75250963 09752509 0a0d7525     E..%c.%u.%u.%u..
    8308:	726d5400 63765320 00000000              .Tmr Svc....

00008314 <__sf_fake_stderr>:
	...

00008334 <__sf_fake_stdin>:
	...

00008354 <__sf_fake_stdout>:
	...
    8374:	4f500043 00584953                       C.POSIX.

0000837c <_ctype_>:
    837c:	20202000 20202020 28282020 20282828     .         ((((( 
    838c:	20202020 20202020 20202020 20202020                     
    839c:	10108820 10101010 10101010 10101010      ...............
    83ac:	04040410 04040404 10040404 10101010     ................
    83bc:	41411010 41414141 01010101 01010101     ..AAAAAA........
    83cc:	01010101 01010101 01010101 10101010     ................
    83dc:	42421010 42424242 02020202 02020202     ..BBBBBB........
    83ec:	02020202 02020202 02020202 10101010     ................
    83fc:	00000020 00000000 00000000 00000000      ...............
	...
    847c:	302d2300 6800202b 65004c6c 46456766     .#-0+ .hlL.efgEF
    848c:	31300047 35343332 39383736 44434241     G.0123456789ABCD
    849c:	30004645 34333231 38373635 63626139     EF.0123456789abc
    84ac:	00666564                                def.

000084b0 <_init>:
    84b0:	b5f8      	push	{r3, r4, r5, r6, r7, lr}
    84b2:	bf00      	nop
    84b4:	bcf8      	pop	{r3, r4, r5, r6, r7}
    84b6:	bc08      	pop	{r3}
    84b8:	469e      	mov	lr, r3
    84ba:	4770      	bx	lr

000084bc <__init_array_start>:
    84bc:	00000289 	.word	0x00000289

000084c0 <_fini>:
    84c0:	b5f8      	push	{r3, r4, r5, r6, r7, lr}
    84c2:	bf00      	nop
    84c4:	bcf8      	pop	{r3, r4, r5, r6, r7}
    84c6:	bc08      	pop	{r3}
    84c8:	469e      	mov	lr, r3
    84ca:	4770      	bx	lr

000084cc <__fini_array_start>:
    84cc:	00000265 	.word	0x00000265
